(dp1
V\u4e66\u8bb0
p2
I9
sV\u8d3e\u6c38
p3
I1
sV\u516d\u4e00
p4
I7
sV\u4e94\u5341\u4e94
p5
I1
sV\u9898\u8bcd
p6
I2
sV\u4eba\u5411
p7
I1
sV\u6cb3\u5357
p8
I2
sV\u5148\u4eba\u540e\u5df1
p9
I2
sV\u4f53\u5236\u6539\u9769
p10
I5
sV\u4ee5\u4f7f
p11
I1
sV\u786e\u4fdd
p12
I2
sV\u575a\u5b9a
p13
I3
sV\u521d\u4e09
p14
I1
sV\u56fd\u5bb6\u6559\u59d4
p15
I22
sV\u4e50\u56ed
p16
I2
sV\u516c\u5171\u8bfe
p17
I1
sV\u8d60\u9001
p18
I1
sV\u59d4\u5458
p19
I7
sV\u8c08\u5230
p20
I2
sV\u53d1\u751f
p21
I4
sV\u516d\u4e2a
p22
I1
sV\u4e00\u5411
p23
I1
sV\u66f4\u5feb
p24
I1
sV\u52a0\u5feb
p25
I1
sV\u521d\u4e2d
p26
I18
sV\u6811\u7acb
p27
I12
sV\u65b0\u4e16\u7eaa
p28
I1
sV\u4f53\u80b2\u8282
p29
I1
sV\u8fdc\u9500
p30
I1
sV\u7537\u5b50\u6c49
p31
I1
sV\u5efa\u9020
p32
I4
sV\u666e\u901a\u6559\u80b2
p33
I3
sV\u56f0\u5883
p34
I1
sV\u5341\u5206\u949f
p35
I1
sV\u4e2d\u4e13
p36
I6
sV\u7ecf\u6d4e\u6587\u5316
p37
I1
sV\u4e1c\u5317\u519c\u5927
p38
I5
sV\u96be\u4ee5
p39
I5
sV\u6761\u7ebf
p40
I2
sV\u6539\u5236
p41
I4
sV\u5173\u7cfb
p42
I19
sV\u8fdb\u4fee\u751f
p43
I1
sV\u5f88\u5f3a
p44
I1
sV\u4e09\u7ebf
p45
I2
sV\u9c9c\u82b1
p46
I1
sV\u540c\u6d4e
p47
I1
sV\u661f\u661f
p48
I1
sV\u4e16\u7eaa
p49
I19
sV\u5f20\u975e\u975e
p50
I2
sV\u8c03\u67e5\u62a5\u544a
p51
I4
sV\u4e66\u8bc4
p52
I1
sV\u6f14\u64ad\u5385
p53
I1
sV\u53cc\u4f11\u65e5
p54
I1
sV\u4e4b\u6625
p55
I1
sV\u56de\u6765
p56
I4
sV\u4e09\u7ea7
p57
I6
sV\u5c31\u8fd1
p58
I2
sV\u515a\u4e2d\u592e
p59
I2
sV\u7b2c\u4e00
p60
I9
sV\u8054\u6b22\u4f1a
p61
I1
sV\u661f\u671f\u4e8c
p62
I1
sV\u4e8b\u7269
p63
I1
sV\u65b0\u751f
p64
I4
sV\u5b98\u5458
p65
I2
sV\u5206\u5e03
p66
I1
sV\u5e38\u89c4
p67
I1
sV\u67f3\u658c
p68
I1
sV\u751f\u6d3b\u670d\u52a1
p69
I1
sV\u5ba1\u6838
p70
I1
sV\u4e61\u597d
p71
I1
sV\u7f8e\u5fb7
p72
I6
sV\u59d0\u59d0
p73
I1
sV\u4e24\u79cd
p74
I2
sV\u5b9e\u9a8c\u5ba4
p75
I6
sV\u5728\u5b66
p76
I1
sV\u4e0d\u754f
p77
I1
sV\u6280\u672f
p78
I33
sV\u4e8b\u524d
p79
I1
sV\u4e0a\u8981
p80
I1
sV\u7ae5\u8bdd
p81
I3
sV\u7cbe\u9009
p82
I2
sV\u524d\u5217
p83
I1
sV\u5bcc\u88d5
p84
I2
sV\u52b3\u52a8\u4eba\u4e8b
p85
I2
sV\u8fd9\u5757
p86
I1
sV\u513f\u7ae5\u8282
p87
I1
sV\u60c5\u51b5
p88
I21
sV\u6587\u5316\u6d3b\u52a8
p89
I6
sV\u8f7b\u89c6
p90
I2
sV\u6539\u52a8
p91
I1
sV\u6dc4\u535a\u5e02
p92
I16
sV\u5ba1\u6279\u7a0b\u5e8f
p93
I1
sV\u70c8\u58eb
p94
I1
sV\u4e0d\u552f
p95
I1
sV\u5d07\u6587\u533a
p96
I1
sV\u53e3\u543b
p97
I1
sV\u672c\u62a5
p98
I11
sV\u521b\u6c47
p99
I2
sV\u63f4\u5efa
p100
I1
sV\u56db\u6709
p101
I1
sV\u5e10\u76ee
p102
I1
sV\u98df\u5802
p103
I6
sV\u5c48\u6307\u53ef\u6570
p104
I1
sV\u635f\u4eba\u5229\u5df1
p105
I2
sV\u7ffb\u8bd1
p106
I1
sV\u4e00\u4e0b\u5b50
p107
I2
sV\u89d2\u9010
p108
I2
sV\u6536\u96c6
p109
I1
sV\u4e24\u9986
p110
I1
sV\u65b0\u95fb
p111
I1
sV\u6536\u76ca
p112
I1
sV\u4e8c\u5341\u4e00
p113
I1
sV\u513f\u5c11
p114
I3
sV\u4e8c\u5341\u4e03
p115
I1
sV\u4e13\u4e1a\u4eba\u624d
p116
I1
sV\u7b7e\u4e0b
p117
I1
sV\u4ea7\u54c1
p118
I1
sV\u6539\u529e
p119
I1
sV\u5185\u6db5
p120
I3
sV\u4e0d\u9519
p121
I1
sV\u738b\u8302\u6797
p122
I1
sV\u6d88\u9664
p123
I2
sV\u5bf9\u7b56
p124
I1
sV\u5168\u533a
p125
I4
sV\u6708\u521d
p126
I1
sV\u5c71\u4e1c\u5e08\u8303\u5927\u5b66
p127
I3
sV\u4e13\u5bb6\u8bc4\u8bf4
p128
I1
sV\u5404\u5e02
p129
I1
sV\u53d7\u76ca
p130
I3
sV\u5171\u4ea7\u515a\u5458
p131
I3
sV\u62ff\u5230
p132
I2
sV\u4ee4\u5176
p133
I1
sV\u5b9a\u5411\u57f9\u517b
p134
I1
sV\u91cd\u7533
p135
I1
sV\u673a\u5236
p136
I2
sV\u70b9\u6ef4
p137
I1
sV\u7559\u4f4f
p138
I2
sV\u5c42\u5c42
p139
I1
sV\u6536\u770b
p140
I1
sV\u5de5\u5177\u4e66
p141
I1
sV\u63a8\u59d4
p142
I1
sV\u5e7c\u6559
p143
I1
sV\u4e3b\u89c2
p144
I3
sV\u53c2\u89c2
p145
I3
sV\u8fb9\u8fdc
p146
I1
sV\u502a\u5fd7\u798f
p147
I1
sV\u4f73\u4fa3
p148
I1
sV\u94f6\u5a5a
p149
I1
sV\u4f9d\u6cd5
p150
I7
sV\u601d\u7ef4
p151
I2
sV\u6d88\u5316
p152
I2
sV\u8eac\u884c
p153
I2
sV\u5c31\u4e1a
p154
I15
sV\u533b\u52a1
p155
I1
sV\u5168\u65e5\u5236
p156
I1
sV\u4e00\u7b49\u5956
p157
I3
sV\u65e0\u58f0
p158
I1
sV\u53d8\u9769
p159
I1
sV\u8003\u751f
p160
I2
sV\u8bfb\u4e66
p161
I3
sV\u516c\u6c11
p162
I11
sV\u5168\u56fd\u653f\u534f
p163
I1
sV\u7d27\u8feb
p164
I2
sV\u666e\u53ca\u9762
p165
I1
sV\u6b63\u5f0f
p166
I1
sV\u6559\u80b2\u90e8\u95e8
p167
I4
sV\u8fd9\u662f
p168
I20
sV\u4e00\u6b65
p169
I1
sV\u79bb\u9000\u4f11
p170
I1
sV\u5bb6\u5ead\u751f\u6d3b
p171
I1
sV\u515a\u652f\u90e8
p172
I3
sV\u7eba\u7ec7
p173
I1
sV\u8bed\u91cd\u5fc3\u957f
p174
I1
sV\u80dc\u4efb
p175
I2
sV\u56fd\u60c5
p176
I6
sV\u591c\u5927
p177
I1
sV\u505a\u51fa
p178
I7
sV\u56e2\u4f53
p179
I3
sV\u8fd0\u52a8\u961f
p180
I1
sV\u4e0b\u4e3a
p181
I1
sV\u7cbe\u91c7
p182
I1
sV\u6b27\u6d32
p183
I1
sV\u5b66\u8d39
p184
I1
sV\u673a\u52a1
p185
I1
sV\u6bcf\u6821
p186
I2
sV\u7b80\u5316
p187
I2
sV\u4e71\u6536\u8d39
p188
I4
sV\u665a\u4f1a
p189
I2
sV\u6570\u7406\u5316
p190
I1
sV\u5f15\u5165
p191
I1
sV\u5c01\u5b58
p192
I1
sV\u6768\u6b63\u5348
p193
I1
sV\u5b97\u65e8
p194
I2
sV\u77ed\u671f
p195
I1
sV\u81ea\u7b79
p196
I2
sV\u9636\u6bb5\u6027
p197
I1
sV\u5f62\u6001
p198
I1
sV\u4eba\u624d\u89c2
p199
I2
sV\u4e3a\u8f85
p200
I2
sV\u914d\u5408
p201
I1
sV\u610f\u89c1
p202
I6
sV\u4e52\u4e53\u7403
p203
I1
sV\u6539\u53d8
p204
I8
sV\u51af\u53cc\u767d
p205
I1
sV\u515a\u7684\u5386\u53f2
p206
I1
sV\u5438\u5f15
p207
I2
sV\u9274\u5b9a
p208
I1
sV\u7e41\u91cd
p209
I2
sV\u79c1\u7acb
p210
I2
sV\u6821\u56ed
p211
I15
sV\u767d\u96ea\u516c\u4e3b
p212
I1
sV\u4f20\u64ad
p213
I1
sV\u5144\u5f1f
p214
I1
sV\u7cbe\u7f8e
p215
I1
sV\u9ec4\u5f69\u8679
p216
I1
sV\u4f8b\u4f1a
p217
I2
sV\u5973\u513f
p218
I1
sV\u513f\u7ae5\u6587\u5b66
p219
I3
sV\u91cd\u75c5
p220
I1
sV\u699c\u6837
p221
I1
sV\u671b\u5b50\u6210\u9f99
p222
I1
sV\u4e3b\u65cb\u5f8b
p223
I3
sV\u9519\u8bef
p224
I1
sV\u9009\u6d3e
p225
I1
sV\u590d\u4e60\u8d44\u6599
p226
I5
sV\u7535\u5316\u6559\u80b2
p227
I1
sV\u5165\u961f
p228
I1
sV\u5386\u53f2
p229
I10
sV\u5382\u77ff
p230
I3
sV\u6478\u5e95
p231
I1
sV\u9002\u9f84
p232
I1
sV\u8fd9\u573a
p233
I2
sV\u7535\u6559
p234
I7
sV\u793e\u4f1a\u5173\u7cfb
p235
I3
sV\u5f69\u56fe
p236
I1
sV\u9700\u6709
p237
I1
sV\u8bed\u6587
p238
I6
sV\u4e16\u754c\u6027
p239
I1
sV\u515a\u6821
p240
I2
sV\u5b9e\u6548
p241
I3
sV\u516d\u5c81
p242
I1
sV\u897f\u5b89\u4ea4\u901a\u5927\u5b66\u515a\u59d4
p243
I1
sV\u6280\u672f\u63a8\u5e7f
p244
I1
sV\u7f3a\u5931
p245
I2
sV\u5907\u6848
p246
I1
sV\u5b8c\u5584
p247
I5
sV\u7cbe\u529b
p248
I1
sV\u65e0\u653f\u5e9c\u4e3b\u4e49
p249
I2
sV\u79f0\u53f7
p250
I4
sV\u5148\u5bfc
p251
I1
sV\u4e00\u7fa4
p252
I1
sV\u6a21\u5f0f
p253
I7
sV\u84b8\u84b8\u65e5\u4e0a
p254
I1
sV\u5370\u8c61
p255
I2
sV\u5c11\u7ba1\u6240
p256
I1
sV\u5b66\u4e86
p257
I2
sV\u5317\u5927\u8352
p258
I1
sV\u53ea\u9700
p259
I1
sV\u52a1\u519c
p260
I1
sV\u8054\u624b
p261
I1
sV\u5168\u56fd\u5987\u8054
p262
I2
sV\u8c08\u9053
p263
I1
sV\u4ef7\u503c\u89c2
p264
I3
sV\u53d8\u8fc1
p265
I2
sV\u4e00\u884c
p266
I1
sV\u5f00\u9f50
p267
I1
sV\u540e\u80fd
p268
I1
sV\u6bcf\u5468\u56db
p269
I1
sV\u5317\u4eac\u5e02\u52b3\u52a8\u4eba\u6c11\u6587\u5316\u5bab
p270
I1
sV\u57fa\u5730
p271
I6
sV\u5df2\u6709
p272
I7
sV\u6821\u957f
p273
I10
sV\u673a\u5173
p274
I1
sV\u4f18\u751f\u4f18\u80b2
p275
I2
sV\u5730\u8bf4
p276
I3
sV\u6574\u6539
p277
I1
sV\u8d70\u4e3a
p278
I1
sV\u6b4c\u548f
p279
I1
sV\u6073\u8bf7
p280
I1
sV\u606f\u606f\u76f8\u5173
p281
I1
sV\u89c4\u6a21
p282
I7
sV\u5b9e\u8df5\u8bba
p283
I2
sV\u534a\u5929
p284
I2
sV\u8015\u8f85
p285
I1
sV\u5b5f\u5524
p286
I2
sV\u63a5\u8fc7
p287
I1
sV\u5c71\u897f\u7ecf\u6d4e\u51fa\u7248\u793e
p288
I1
sV\u4e13\u79d1\u5b66\u6821
p289
I3
sV\u8fc1\u5f80
p290
I1
sV\u6307\u6807
p291
I2
sV\u738b\u8f9b
p292
I2
sV\u8bb8\u7fa4
p293
I1
sV\u5e72\u90e8
p294
I5
sV\u7238\u7238
p295
I4
sV\u4e09\u5c42
p296
I1
sV\u5c45\u6c11
p297
I2
sV\u7ec4\u7ec7\u751f\u6d3b
p298
I1
sV\u5341\u6821
p299
I2
sV\u5e72\u6270
p300
I3
sV\u5b64\u6b8b
p301
I4
sV\u9999\u6e2f
p302
I1
sV\u6838\u9000
p303
I1
sV\u80b2\u513f
p304
I1
sV\u516c\u5b89
p305
I1
sV\u666e\u901a\u8bdd
p306
I1
sV\u57ce\u9547
p307
I3
sV\u5b57\u53f7
p308
I1
sV\u591a\u79cd\u7ecf\u8425
p309
I1
sV\u5927\u8003
p310
I1
sV\u548c\u8c10
p311
I6
sV\u52a0\u7898\u76d0
p312
I1
sV\u5148\u5b66
p313
I1
sV\u8f6c\u79fb
p314
I4
sV\u5b9e\u4e1a\u5bb6
p315
I1
sV\u52a8\u673a
p316
I2
sV\u5b89\u6392
p317
I5
sV\u8427\u5173
p318
I2
sV\u5343\u767e\u4e07
p319
I1
sV\u5f80\u5c4a
p320
I2
sV\u5207\u5b9e
p321
I11
sV\u5404\u5dde
p322
I3
sV\u5171\u4ea7\u4e3b\u4e49
p323
I6
sV\u5f90\u60df\u8bda
p324
I1
sV\u8428\u80af
p325
I1
sV\u674e\u5c9a\u6e05
p326
I11
sV\u9996\u90fd\u5e08\u8303\u5927\u5b66
p327
I7
sV\u6559\u80b2\u4f53\u5236
p328
I2
sV\u793c\u7269
p329
I2
sV\u6587\u660e\u5efa\u8bbe
p330
I1
sV\u5b9e\u65bd
p331
I28
sV\u5f31\u70b9
p332
I2
sV\u5ef6\u5b89
p333
I3
sV\u5206\u7c7b
p334
I2
sV\u804c\u4e1a\u8d44\u683c
p335
I2
sV\u81ea\u89c9
p336
I10
sV\u7fa4\u4f17
p337
I20
sV\u6210\u624d
p338
I5
sV\u62a5\u9053
p339
I5
sV\u9752\u5e74
p340
I16
sV\u826f\u5e08\u76ca\u53cb
p341
I1
sV\u590d\u5408\u578b
p342
I1
sV\u8bad\u7ec3
p343
I8
sV\u5f85\u9047
p344
I3
sV\u4e0a\u534a\u5e74
p345
I1
sV\u4e3b\u8bfe
p346
I1
sV\u6563\u53d1
p347
I2
sV\u653e\u5728
p348
I1
sV\u80e1\u6b63\u6c11
p349
I1
sV\u73b0\u5c06
p350
I1
sV\u5927\u4e13\u9662\u6821
p351
I2
sV\u996d\u83dc
p352
I1
sV\u5de6\u6743\u53bf
p353
I3
sV\u8f7b\u5fae
p354
I1
sV\u665a\u4e0a
p355
I1
sV\u4e09\u95e8
p356
I3
sV\u81ea\u5f3a\u4e0d\u606f
p357
I2
sV\u6324\u5347
p358
I1
sV\u6821\u540d
p359
I1
sV\u79d1\u6280\u6559\u80b2
p360
I3
sV\u9009\u4fee
p361
I2
sV\u901a\u8baf\u5458
p362
I7
sV\u9769\u547d\u82f1\u96c4\u4e3b\u4e49
p363
I1
sV\u4e4b\u661f
p364
I1
sV\u6307\u5bfc\u8005
p365
I1
sV\u6c11\u65cf
p366
I10
sV\u5404\u5c4a
p367
I1
sV\u5f00\u653e\u5f0f
p368
I1
sV\u63a2\u7d22
p369
I10
sV\u6b65\u9aa4
p370
I1
sV\u5357\u4eac
p371
I2
sV\u53e3\u5934\u7985
p372
I1
sV\u61c2\u5f97
p373
I1
sV\u6295\u8d44
p374
I3
sV\u7279\u6b8a\u6559\u80b2
p375
I1
sV\u9648\u5e0c\u540c
p376
I1
sV\u5168\u515a
p377
I1
sV\u5c11\u5e74\u513f\u7ae5\u51fa\u7248\u793e
p378
I3
sV\u592a\u539f
p379
I1
sV\u5386\u5e74
p380
I1
sV\u5c11\u5e74\u4e4b\u5bb6
p381
I1
sV\u673a\u9047
p382
I3
sV\u6838\u51c6
p383
I1
sV\u961f\u4f0d
p384
I3
sV\u5efa\u7b51
p385
I1
sV\u81ea\u884c
p386
I2
sV\u4e2a\u4f53\u6237
p387
I1
sV\u5404\u7c7b
p388
I23
sV\u5382\u957f
p389
I1
sV\u6559\u80b2\u6cd5
p390
I21
sV\u5c06\u4f1a
p391
I2
sV\u771f\u5207
p392
I1
sV\u6559\u5b66\u8bbe\u65bd
p393
I3
sV\u65f6\u8bf4
p394
I1
sV\u670d\u9970
p395
I1
sV\u610f\u5473\u7740
p396
I1
sV\u4f7f\u4e4b\u80fd
p397
I1
sV\u4e1c\u5927\u8857
p398
I1
sV\u597d\u4e8b
p399
I1
sV\u4e2d\u5c0f\u5b66\u751f
p400
I4
sV\u5b8c\u540e
p401
I1
sV\u610f\u8bc6
p402
I42
sV\u5b66\u4f1a
p403
I3
sV\u9488\u5bf9\u6027
p404
I4
sV\u6210\u719f
p405
I1
sV\u4e13\u4e1a\u8bbe\u7f6e
p406
I6
sV\u7ed8\u753b
p407
I1
sV\u594b\u6597
p408
I3
sV\u770b\u6cd5
p409
I2
sV\u5ea6\u8fc7
p410
I1
sV\u534f\u52a9
p411
I1
sV\u5343\u519b\u4e07\u9a6c
p412
I1
sV\u4e2d\u5c0f\u5b66
p413
I36
sV\u5206\u6b65
p414
I1
sV\u5171\u9752\u56e2\u4e2d\u592e
p415
I1
sV\u9093\u83ca\u9999
p416
I1
sV\u62c5\u4efb
p417
I1
sV\u827a\u672f\u9662\u6821
p418
I1
sV\u751f\u5b58
p419
I1
sV\u4ea4\u5927
p420
I3
sV\u73b0\u4ee3\u5316
p421
I26
sV\u53f7\u53ec
p422
I2
sV\u4e13\u4e1a\u6027
p423
I1
sV\u521b\u4f5c
p424
I3
sV\u8bfe\u684c\u51f3
p425
I2
sV\u7b79\u5efa
p426
I4
sV\u5fb7\u80b2
p427
I1
sV\u8001\u540c\u5fd7
p428
I5
sV\u4f01\u4e1a
p429
I43
sV\u5386\u7ecf
p430
I2
sV\u4e24\u4e2a\u8f6c\u53d8
p431
I2
sV\u5165\u6258
p432
I1
sV\u7231\u56fd
p433
I1
sV\u72ec\u5177\u5320\u5fc3
p434
I1
sV\u884c\u7a0b
p435
I1
sV\u52c9\u52b1
p436
I2
sV\u8054\u540d
p437
I1
sV\u5404\u7cfb
p438
I2
sV\u591a\u573a
p439
I1
sV\u7406\u4e8b\u957f
p440
I1
sV\u5584\u6076
p441
I2
sV\u8d44\u683c
p442
I3
sV\u653f\u7b56\u6cd5\u89c4
p443
I1
sV\u5b66\u4f4d
p444
I1
sV\u5a92\u4ecb
p445
I1
sV\u4e07\u5957
p446
I1
sV\u663e\u793a
p447
I1
sV\u718a\u91d1\u8d85
p448
I1
sV\u4e2d\u56fd\u793e\u4f1a\u79d1\u5b66\u9662\u793e\u4f1a\u5b66\u7814\u7a76\u6240
p449
I1
sV\u4e2d\u56fd\u798f\u5229\u4f1a
p450
I2
sV\u4ee5\u6b64
p451
I2
sV\u4e92\u6d3e
p452
I1
sV\u4f53\u5236
p453
I3
sV\u6210\u529f
p454
I7
sV\u8eab\u4f53
p455
I6
sV\u5e7f\u64ad
p456
I3
sV\u629b\u5f00
p457
I2
sV\u5341\u4e94
p458
I1
sV\u8bbe\u8ba1
p459
I2
sV\u5357\u5f00\u5927\u5b66
p460
I3
sV\u52a8\u5411
p461
I1
sV\u4ee3\u8868\u56e2
p462
I3
sV\u4e8c\u5341\u4e5d
p463
I1
sV\u4e0a\u6d77\u5e02\u6559\u59d4
p464
I1
sV\u6700\u65b0
p465
I1
sV\u4e66\u6cd5\u8bfe
p466
I1
sV\u7ea2\u65d7
p467
I1
sV\u767e\u79cd
p468
I6
sV\u4ea4\u7ed9
p469
I4
sV\u6df1\u60c5
p470
I2
sV\u611f\u6fc0
p471
I1
sV\u516d\u5341\u516d
p472
I1
sV\u4e0a\u5929
p473
I1
sV\u82b1\u94b1
p474
I1
sV\u56ed\u91cc
p475
I1
sV\u5176\u8eab
p476
I2
sV\u8679\u6865
p477
I1
sV\u4e07\u591a
p478
I4
sV\u7f8e\u5b66
p479
I3
sV\u62a5\u56fd
p480
I1
sV\u5f71\u89c6\u8868\u6f14
p481
I1
sV\u6559\u80b2\u8bfe
p482
I2
sV\u6de1\u5fd8
p483
I1
sV\u6388\u8bfe
p484
I2
sV\u5065\u5eb7
p485
I20
sV\u58f0\u8a89
p486
I1
sV\u5b9a\u5411
p487
I1
sV\u95ee\u4e16
p488
I2
sV\u4e00\u4e5d
p489
I1
sV\u7a81\u51fb\u624b
p490
I1
sV\u6446\u8131
p491
I1
sV\u62e9\u4e1a
p492
I1
sV\u62e5\u6709
p493
I5
sV\u65b0\u5174
p494
I1
sV\u5dee\u662f
p495
I1
sV\u5e74\u5236
p496
I2
sV\u8003\u4e0d\u4e0a
p497
I1
sV\u7aef\u6b63
p498
I3
sV\u62c5\u8d1f
p499
I1
sV\u767e\u9996
p500
I1
sV\u603b\u4f53\u89c4\u5212
p501
I5
sV\u98df\u7cae
p502
I1
sV\u5b66\u79d1\u6559\u5b66
p503
I1
sV\u6559\u4eba
p504
I1
sV\u521b\u9020\u6027
p505
I1
sV\u672c\u56fd
p506
I1
sV\u8d44\u672c\u4e3b\u4e49
p507
I1
sV\u89c2\u70b9
p508
I2
sV\u79d1\u534f
p509
I2
sV\u97f3\u4e50\u5267
p510
I1
sV\u5b50\u5973
p511
I9
sV\u5021\u8bae\u4e66
p512
I5
sV\u5f55\u653e
p513
I1
sV\u5f00\u9986
p514
I1
sV\u9662\u6821
p515
I3
sV\u5341\u4e07
p516
I1
sV\u591a\u540d
p517
I10
sV\u6478\u7d22
p518
I2
sV\u6d1e\u6751
p519
I1
sV\u73b0\u5b9e
p520
I7
sV\u8881\u7eaf\u6e05
p521
I1
sV\u5021\u8bae
p522
I7
sV\u5b66\u6821
p523
I221
sV\u62e9\u6821\u751f
p524
I4
sV\u53d1\u5c55\u4e2d\u56fd\u5bb6
p525
I3
sV\u9636\u6bb5
p526
I13
sV\u667a\u529b
p527
I2
sV\u91cd\u70b9
p528
I22
sV\u5b9d\u8d35
p529
I1
sV\u4f5c\u5bb6
p530
I1
sV\u50a8\u5b58
p531
I1
sV\u732e\u8eab
p532
I4
sV\u540d\u7740
p533
I2
sV\u6293\u597d
p534
I1
sV\u6559\u6cd5
p535
I1
sV\u5c31\u8bfb
p536
I1
sV\u5341\u4e2a
p537
I2
sV\u56fe\u4e66\u8d44\u6599
p538
I2
sV\u6559\u4e66
p539
I1
sV\u4fdd\u8bc1\u8d28\u91cf
p540
I1
sV\u79c1\u5fb7
p541
I1
sV\u786e\u5b9e
p542
I1
sV\u57fa\u91d1
p543
I2
sV\u804c\u6559
p544
I1
sV\u4e2d\u592e\u6559\u79d1\u6240
p545
I2
sV\u8ba4\u8d2d
p546
I1
sV\u6731\u7389\u6cc9
p547
I2
sV\u82ad\u857e\u821e
p548
I3
sV\u603b\u7406
p549
I2
sV\u5168\u56fd
p550
I36
sV\u5174\u6797
p551
I1
sV\u53d1\u51fa
p552
I7
sV\u793e\u4f1a\u670d\u52a1
p553
I3
sV\u7231\u519c
p554
I1
sV\u9886\u5bfc\u673a\u6784
p555
I1
sV\u63a8\u7ed9
p556
I1
sV\u9c9c\u660e
p557
I1
sV\u5199\u9053
p558
I1
sV\u65b0\u95fb\u51fa\u7248\u7f72
p559
I2
sV\u5168\u76d8
p560
I1
sV\u9769\u547d\u53f2
p561
I1
sV\u77e5\u6089
p562
I2
sV\u4e50\u6b64\u4e0d\u75b2
p563
I1
sV\u601d\u60f3
p564
I52
sV\u8bd5\u884c
p565
I2
sV\u6821\u53cb
p566
I2
sV\u65e0\u6bd4
p567
I1
sV\u795d\u8d3a
p568
I7
sV\u79d1\u7814\u6210\u679c
p569
I2
sV\u98ce\u5c1a
p570
I2
sV\u4e00\u4ef6
p571
I2
sV\u5d2d\u65b0
p572
I1
sV\u653e\u50cf
p573
I1
sV\u65b9\u5411
p574
I5
sV\u738b\u851a
p575
I1
sV\u8eab\u8fb9
p576
I2
sV\u4e61\u529e
p577
I1
sV\u8ff7\u60d8
p578
I1
sV\u6539\u9769
p579
I59
sV\u662f\u4ece
p580
I1
sV\u7c73\u9ec4\u8272
p581
I1
sV\u8df3\u821e
p582
I1
sV\u66f4\u9ad8
p583
I1
sV\u8d23\u602a
p584
I1
sV\u793e\u4f1a\u8c03\u67e5
p585
I2
sV\u80cc\u666f
p586
I1
sV\u540d\u76ee
p587
I1
sV\u4e2a\u4eba\u4e3b\u4e49
p588
I2
sV\u62bd\u51fa
p589
I1
sV\u6709\u76ca
p590
I2
sV\u5e74\u534a
p591
I1
sV\u666e\u53ca\u5316
p592
I1
sV\u56fd\u5bb6\u5efa\u6750\u603b\u5c40
p593
I1
sV\u8001\u4e2d\u9752
p594
I1
sV\u5065\u5168
p595
I4
sV\u79ef\u7d2f
p596
I4
sV\u4f4e\u7b49
p597
I1
sV\u65fa\u664b\u7f8e
p598
I3
sV\u5e02\u7ea7
p599
I1
sV\u8463\u6d2a\u4eae
p600
I2
sV\u5f18\u626c
p601
I5
sV\u534a\u5e74
p602
I1
sV\u7b54\u8c22
p603
I1
sV\u8206\u8bba
p604
I5
sV\u4ee5\u8eab\u4f5c\u5219
p605
I3
sV\u8fd9\u6279
p606
I1
sV\u5206\u7ba1
p607
I1
sV\u9648\u5174\u8d35
p608
I2
sV\u540e\u679c
p609
I1
sV\u56db\u5341\u516d
p610
I1
sV\u5927\u653f\u65b9\u9488
p611
I1
sV\u5168\u7701
p612
I8
sV\u81ea\u4e00
p613
I1
sV\u8c03\u6574
p614
I9
sV\u9752\u6d77\u7701
p615
I1
sV\u60c5\u64cd
p616
I2
sV\u6276\u6301
p617
I6
sV\u7814\u7a76
p618
I15
sV\u7095\u5934
p619
I1
sV\u672c\u94b1
p620
I1
sV\u590d\u65e6\u5927\u5b66
p621
I3
sV\u4e00\u4f4d
p622
I4
sV\u4e00\u4f53
p623
I1
sV\u90e8\u95e8
p624
I32
sV\u652f\u519c
p625
I1
sV\u987e\u6d2a\u6d2a
p626
I1
sV\u7559\u5f97
p627
I1
sV\u62cd\u6444
p628
I1
sV\u5916\u51fa
p629
I1
sV\u5065\u7f8e
p630
I1
sV\u5851\u9020
p631
I1
sV\u5e94\u8bd5
p632
I16
sV\u4ea4\u5f80
p633
I3
sV\u521d\u6b65
p634
I5
sV\u4fb5\u72af
p635
I1
sV\u5199\u51fa
p636
I3
sV\u4fe1\u606f\u7f51
p637
I1
sV\u56de\u6263
p638
I1
sV\u5e73\u7ee7
p639
I1
sV\u5bbf\u5802
p640
I4
sV\u79d1\u6280\u8ba1\u5212
p641
I1
sV\u4ee3\u8868
p642
I6
sV\u671f\u671b
p643
I1
sV\u5e02\u5e03
p644
I1
sV\u5b66\u6821\u7ba1\u7406
p645
I1
sV\u4f53\u73b0
p646
I1
sV\u4e0b\u4e16\u7eaa
p647
I1
sV\u8bfe\u65f6
p648
I2
sV\u591a\u5143
p649
I1
sV\u5f62\u5f0f\u591a\u6837
p650
I3
sV\u56db\u6240
p651
I1
sV\u6765\u5e74
p652
I1
sV\u4fe1\u4efb
p653
I1
sV\u5f69\u7167
p654
I1
sV\u8bf4\u662f
p655
I8
sV\u6c88\u9633
p656
I8
sV\u5408\u5fb7
p657
I1
sV\u571f\u5730
p658
I1
sV\u56e2\u652f\u90e8
p659
I2
sV\u5229\u4e8e
p660
I1
sV\u626b\u5c3e
p661
I2
sV\u8eab\u4efd
p662
I1
sV\u4f01\u4e8b\u4e1a
p663
I6
sV\u6ca1\u60f3\u5230
p664
I2
sV\u90e8\u957f
p665
I3
sV\u85cf\u4e66
p666
I1
sV\u76ee\u7684
p667
I3
sV\u767e\u5e74\u6811\u4eba
p668
I1
sV\u6731\u5f00\u8f69
p669
I1
sV\u97f3\u50cf
p670
I2
sV\u6b66\u6c49
p671
I1
sV\u677f\u4e66
p672
I1
sV\u8c03\u8282
p673
I2
sV\u5728\u6821\u5b66\u751f
p674
I2
sV\u5728\u5ea7
p675
I1
sV\u5e74\u9f84
p676
I1
sV\u518d\u63a5\u518d\u5389
p677
I1
sV\u5f97\u4ee5
p678
I1
sV\u6731\u5fb7
p679
I1
sV\u6c34\u5e73
p680
I18
sV\u515a\u7684\u77e5\u8bc6
p681
I1
sV\u4e09\u90e8\u66f2
p682
I1
sV\u5341\u4f73
p683
I1
sV\u4f18\u52bf
p684
I3
sV\u6536\u53d6
p685
I2
sV\u5b69\u5b50
p686
I69
sV\u6311\u9009
p687
I1
sV\u4e1c\u4eac
p688
I3
sV\u52a8\u6001
p689
I1
sV\u63a8\u8350
p690
I5
sV\u4e5d\u4e94\u5e74
p691
I1
sV\u5165\u56ed
p692
I1
sV\u4f18\u5148
p693
I4
sV\u8f85\u5bfc\u7ad9
p694
I1
sV\u6b63\u786e
p695
I17
sV\u8003\u524d
p696
I1
sV\u5174\u6559
p697
I2
sV\u4e3b\u4efb
p698
I3
sV\u5e08\u4e13
p699
I1
sV\u5c97\u524d\u57f9\u8bad
p700
I1
sV\u5efa\u9662
p701
I1
sV\u9752\u86d9
p702
I1
sV\u5ef6\u4f38
p703
I4
sV\u6d41\u5931\u7387
p704
I1
sV\u4e09\u7ed3\u5408
p705
I3
sV\u6c11\u4e3b\u96c6\u4e2d\u5236
p706
I2
sV\u7b49\u4e8e
p707
I2
sV\u963f\u6c9b
p708
I3
sV\u513f\u7ae5
p709
I32
sV\u4e0a\u6d77\u533b\u79d1\u5927\u5b66
p710
I2
sV\u9648\u96c4
p711
I1
sV\u7eaa\u5ff5\u6d3b\u52a8
p712
I1
sV\u6587\u5316\u5efa\u8bbe
p713
I13
sV\u610f\u4e49
p714
I5
sV\u76f8\u8f85\u76f8\u6210
p715
I1
sV\u5317\u4eac
p716
I27
sV\u65e2\u6709
p717
I2
sV\u5e7c\u6258
p718
I1
sV\u5386\u53f2\u80cc\u666f
p719
I1
sV\u4e0d\u53d7
p720
I2
sV\u6c11\u60c5
p721
I1
sV\u515a\u653f\u9886\u5bfc
p722
I4
sV\u611f\u52a8
p723
I1
sV\u5f53\u4e4b\u65e0\u6127
p724
I1
sV\u56fd\u6c11\u7ecf\u6d4e
p725
I3
sV\u7ed3\u6784
p726
I9
sV\u540c\u6b65
p727
I1
sV\u8d5e\u626c
p728
I2
sV\u5b66\u7814\u7a76\u6240
p729
I1
sV\u63a5\u89e6
p730
I1
sV\u8003\u5206
p731
I1
sV\u6b6a\u8def
p732
I1
sV\u7f8e\u597d
p733
I3
sV\u8d2b\u56f0\u5730\u533a
p734
I7
sV\u5f00\u5b66
p735
I1
sV\u8d8a\u9ad8\u8d8a
p736
I1
sV\u4f7f\u547d\u611f
p737
I3
sV\u5de1\u793c
p738
I1
sV\u4ea7\u7269
p739
I2
sV\u66f2\u8c31
p740
I2
sV\u6df1\u6df1
p741
I1
sV\u5317\u4eac\u5e02\u59d4
p742
I1
sV\u4e2d\u6821
p743
I1
sV\u4e0b\u5206
p744
I1
sV\u90ed\u793c\u534e
p745
I2
sV\u6210\u5458
p746
I9
sV\u8be5\u5e02
p747
I2
sV\u8282\u76ee
p748
I2
sV\u5927\u4f17\u5316
p749
I2
sV\u4e1a\u4f59\u515a\u6821
p750
I11
sV\u84dd\u5929
p751
I2
sV\u5355\u4f4d
p752
I19
sV\u4ece\u5c0f\u5230\u5927
p753
I1
sV\u547d\u540d
p754
I1
sV\u53d1\u73b0
p755
I3
sV\u65f6\u4ee3
p756
I5
sV\u63a8\u5e7f
p757
I8
sV\u5730\u6f14
p758
I1
sV\u8d85\u8fc7
p759
I2
sV\u7eba\u5927
p760
I1
sV\u62dc\u4f1a
p761
I1
sV\u5efa\u56e2
p762
I1
sV\u8fd8\u4f1a
p763
I1
sV\u5efa\u56fd
p764
I1
sV\u5c71\u4e1c\u7701
p765
I5
sV\u4f1a\u5458
p766
I3
sV\u771f\u7406
p767
I3
sV\u62d8\u6ce5
p768
I1
sV\u957f\u671f
p769
I2
sV\u66f4\u597d
p770
I10
sV\u6821\u5185
p771
I2
sV\u90e8\u961f
p772
I5
sV\u904d\u5e03
p773
I1
sV\u5f20\u66b4\u9ed8
p774
I1
sV\u6a21\u4eff
p775
I1
sV\u6d77\u6d0b
p776
I1
sV\u611f\u5230
p777
I5
sV\u5404\u5730\u6559\u80b2
p778
I1
sV\u4f59\u4eba
p779
I1
sV\u4f9d\u6b21
p780
I1
sV\u63a5\u7eb3
p781
I1
sV\u6cd5\u5f8b
p782
I9
sV\u5165\u515a
p783
I6
sV\u8270\u5de8
p784
I3
sV\u56fd\u6709
p785
I1
sV\u94f6\u5ddd
p786
I2
sV\u56ed\u533a
p787
I2
sV\u6218\u4e89
p788
I1
sV\u66f4\u591a
p789
I2
sV\u7a0b\u5ea6
p790
I7
sV\u623f\u6539
p791
I1
sV\u5171\u8fdb
p792
I2
sV\u66f2\u52e4\u6ce2
p793
I1
sV\u95ed\u5e55
p794
I1
sV\u9762\u5411\u4e16\u754c
p795
I1
sV\u57f9\u517b
p796
I81
sV\u79d1\u5b66\u6280\u672f
p797
I6
sV\u98ce\u4e91
p798
I2
sV\u5929\u6d25\u5e02
p799
I7
sV\u660e\u5e74
p800
I1
sV\u5730\u4f4d
p801
I3
sV\u603b\u652f\u51fa
p802
I1
sV\u592a\u884c\u5c71
p803
I1
sV\u547d\u8fd0
p804
I1
sV\u62a5\u544a
p805
I5
sV\u4e0a\u6d77\u8d22\u5927
p806
I1
sV\u6cd5\u5f8b\u77e5\u8bc6
p807
I1
sV\u4f20\u6388
p808
I1
sV\u6751\u59d4\u4f1a
p809
I1
sV\u5efa\u8bbe
p810
I109
sV\u5148\u4e00\u6b65
p811
I1
sV\u5bb6\u9f50
p812
I2
sV\u5e03\u70b9
p813
I3
sV\u9ece\u541b
p814
I1
sV\u519c\u5b66\u9662
p815
I1
sV\u6c49\u4e09\u79cd
p816
I1
sV\u8fdc\u666f
p817
I1
sV\u4fa7\u91cd
p818
I1
sV\u8a93\u8a00
p819
I1
sV\u4e2a\u7701
p820
I2
sV\u4eba\u6c11\u5e01
p821
I1
sV\u5927\u8fde\u5e02
p822
I1
sV\u8d8a\u591a
p823
I1
sV\u529b\u6c14
p824
I3
sV\u9662\u8bad
p825
I1
sV\u5bb6\u5ead
p826
I42
sV\u9012\u4ea4
p827
I1
sV\u7fc1\u53f2\u70c8
p828
I1
sV\u5730\u65b9\u653f\u5e9c
p829
I2
sV\u786e\u5411
p830
I1
sV\u9e26\u7247\u6218\u4e89
p831
I2
sV\u4e24\u5e74
p832
I2
sV\u53e3\u53f7
p833
I2
sV\u542c\u5230
p834
I1
sV\u4e13\u9898\u8ba8\u8bba
p835
I1
sV\u4e2a\u4eba\u5229\u76ca
p836
I8
sV\u57ce\u90ca
p837
I1
sV\u4e8e\u950b
p838
I2
sV\u540e\u8fdb
p839
I1
sV\u51fa\u81ea
p840
I1
sV\u592a\u91cd
p841
I1
sV\u503e\u5411
p842
I2
sV\u7b14\u7b14
p843
I1
sV\u4e0b\u5348
p844
I7
sV\u4e00\u8d2f
p845
I3
sV\u5a31\u4e50\u573a\u6240
p846
I1
sV\u7ee7\u627f
p847
I4
sV\u76ce\u7136
p848
I1
sV\u4f53\u80b2
p849
I5
sV\u4e0a\u7ea7
p850
I3
sV\u8003\u5377
p851
I1
sV\u7f3a\u5c11
p852
I1
sV\u4e0d\u6e05
p853
I1
sV\u4e00\u6d41
p854
I3
sV\u9080\u96c6
p855
I1
sV\u4e61\u7ea7
p856
I1
sV\u626b\u9ec4
p857
I1
sV\u611f\u53d7
p858
I4
sV\u72af\u7f6a\u7387
p859
I1
sV\u5931\u671b
p860
I1
sV\u6210\u957f
p861
I18
sV\u5929\u8d77
p862
I2
sV\u751f\u52a8\u6d3b\u6cfc
p863
I7
sV\u91cd\u5370
p864
I1
sV\u5178\u793c
p865
I1
sV\u89e3\u51b3
p866
I21
sV\u65b0\u7248
p867
I1
sV\u7efc\u5408\u5927\u5b66
p868
I1
sV\u656c\u4e1a
p869
I2
sV\u8def\u5b50
p870
I4
sV\u5de5\u4f1a
p871
I1
sV\u4ebf\u591a
p872
I1
sV\u5f97\u8c61
p873
I1
sV\u6807\u51c6
p874
I5
sV\u540c\u6d4e\u5927\u5b66
p875
I3
sV\u5085\u6587\u8431
p876
I2
sV\u7701\u653f\u5e9c
p877
I2
sV\u4e1a\u52a1
p878
I9
sV\u804c\u4e1a\u5b66\u6821
p879
I20
sV\u603b\u8981
p880
I1
sV\u745e\u58eb
p881
I1
sV\u53c8\u662f
p882
I3
sV\u5efa\u8bbe\u8005
p883
I2
sV\u5177\u4f53\u5316
p884
I2
sV\u53ef\u6301\u7eed\u53d1\u5c55
p885
I4
sV\u5148\u5230
p886
I1
sV\u6280\u5de5\u5b66\u6821
p887
I2
sV\u6280\u80fd
p888
I4
sV\u6587\u5b57
p889
I1
sV\u4e0b\u4e00\u4ee3
p890
I9
sV\u591a\u534a
p891
I1
sV\u667a\u6167
p892
I2
sV\u9762\u4e34
p893
I6
sV\u8bfe\u5916\u6d3b\u52a8
p894
I1
sV\u5e74\u91cc
p895
I1
sV\u6d89\u53ca
p896
I2
sV\u821e\u8e48\u5b66\u9662
p897
I2
sV\u53d1\u52a8
p898
I2
sV\u7bc7\u540d
p899
I1
sV\u7b79\u96c6
p900
I2
sV\u6709\u95ee\u5fc5\u7b54
p901
I1
sV\u4e3b\u4f53
p902
I5
sV\u641e\u597d
p903
I6
sV\u5730\u4e3a
p904
I2
sV\u8fd9\u90e8\u5206
p905
I1
sV\u8c03\u67e5
p906
I4
sV\u513f\u5b50
p907
I3
sV\u4ece\u6559
p908
I1
sV\u552f\u5229\u662f\u56fe
p909
I2
sV\u897f\u65b9\u4eba
p910
I1
sV\u7ba1\u7406\u4eba\u624d
p911
I1
sV\u4eba\u5458
p912
I13
sV\u627f\u5305
p913
I1
sV\u795e\u5723
p914
I1
sV\u5c97\u4f4d
p915
I5
sV\u5c06\u6765
p916
I1
sV\u4e03\u5341\u56db
p917
I1
sV\u62a5\u540d
p918
I2
sV\u4f7f\u547d
p919
I1
sV\u4e94\u597d
p920
I1
sV\u7d20\u8d28
p921
I65
sV\u666f\u5c71\u5b66\u6821
p922
I2
sV\u8010\u8bfb
p923
I1
sV\u9f13\u52b1
p924
I14
sV\u56e2\u6821
p925
I1
sV\u5c11\u513f
p926
I8
sV\u5e76\u5165
p927
I1
sV\u6765\u534e
p928
I1
sV\u632a\u7528
p929
I1
sV\u9ad8\u8003\u5f55\u53d6
p930
I1
sV\u7891\u6797\u533a
p931
I4
sV\u4f5c\u98ce
p932
I2
sV\u5174\u65fa
p933
I1
sV\u5e02\u5c5e
p934
I1
sV\u5e74\u5185
p935
I4
sV\u6765\u5230
p936
I1
sV\u57fa\u7840\u8bbe\u65bd
p937
I2
sV\u7ecf\u6d4e
p938
I24
sV\u5e7c\u513f\u5e08\u8303
p939
I1
sV\u5fc3\u4e2d
p940
I1
sV\u6d41\u4e0b
p941
I1
sV\u975e\u6b63\u89c4
p942
I3
sV\u6539\u5584
p943
I8
sV\u5b8f\u4f1f
p944
I1
sV\u59dc\u654f
p945
I1
sV\u6c42\u65b0
p946
I1
sV\u82b1\u591a\u5927
p947
I1
sV\u79e9\u5e8f
p948
I7
sV\u897f\u5316
p949
I1
sV\u63d2\u56fe
p950
I1
sV\u4f53\u80b2\u8fd0\u52a8
p951
I1
sV\u912f\u7231\u7ea2
p952
I3
sV\u878d\u5165
p953
I1
sV\u5f88\u96be\u8bf4
p954
I1
sV\u78e8\u70bc
p955
I1
sV\u7cbe\u7cb9
p956
I1
sV\u65bd\u6559
p957
I1
sV\u6574\u4f53
p958
I7
sV\u6761\u76ee
p959
I1
sV\u5f53\u4e2a
p960
I1
sV\u684c\u51f3
p961
I1
sV\u516b\u4e94
p962
I2
sV\u9ad8\u4e8e
p963
I1
sV\u4e5d\u5341\u4e5d
p964
I1
sV\u65e5\u524d
p965
I5
sV\u9526\u71d5
p966
I1
sV\u8bd5\u9a8c
p967
I4
sV\u4e00\u5bf9\u4e00
p968
I1
sV\u901a\u77e5
p969
I6
sV\u8868\u6f14
p970
I7
sV\u4e0b\u653e
p971
I1
sV\u70c8\u706b
p972
I1
sV\u8d62\u5f97
p973
I1
sV\u534e\u4e2d\u5e08\u5927
p974
I1
sV\u89c1\u4e49\u52c7\u4e3a
p975
I2
sV\u827a\u672f\u5bb6
p976
I2
sV\u5370\u5237\u54c1
p977
I1
sV\u5f3a\u5316
p978
I10
sV\u5b9e\u9a8c\u533a
p979
I2
sV\u9610\u660e
p980
I2
sV\u95ee\u5377\u8c03\u67e5
p981
I1
sV\u627e\u51c6
p982
I1
sV\u5ea7\u8c08
p983
I4
sV\u5236\u6b62
p984
I2
sV\u8d22\u4ea7
p985
I3
sV\u670d\u52a1
p986
I17
sV\u5bf9\u53e3
p987
I1
sV\u8f6c\u5316
p988
I8
sV\u516b\u8def\u519b
p989
I1
sV\u540d\u5bb6
p990
I1
sV\u6240\u5e94
p991
I2
sV\u8fd1\u516d
p992
I1
sV\u7b80\u7ae0
p993
I1
sV\u9ec4\u6d66\u6c5f\u7554
p994
I1
sV\u53bb\u4e16
p995
I1
sV\u4e0d\u5229\u4e8e
p996
I1
sV\u4e2d\u662f
p997
I2
sV\u5ba1\u89c6
p998
I1
sV\u5bb6\u91cc
p999
I1
sV\u627f\u88ad
p1000
I1
sV\u516d\u4e00\u56fd\u9645\u513f\u7ae5\u8282
p1001
I1
sV\u5185\u5916\u8d38
p1002
I1
sV\u62da\u547d
p1003
I1
sV\u6ca6\u4e3a
p1004
I1
sV\u7518\u613f
p1005
I1
sV\u4e07\u5143
p1006
I6
sV\u4e00\u6279
p1007
I6
sV\u6807\u5fd7
p1008
I1
sV\u8fd1\u4ee3\u53f2
p1009
I1
sV\u4e00\u6280
p1010
I2
sV\u5987\u8054
p1011
I6
sV\u8868\u8fbe
p1012
I1
sV\u5c11\u5e74
p1013
I19
sV\u65b9\u9488
p1014
I3
sV\u573a\u6240
p1015
I2
sV\u5fc3\u6001
p1016
I1
sV\u73ed\u4e0a
p1017
I2
sV\u5e94\u662f
p1018
I1
sV\u6350\u8d60
p1019
I4
sV\u5fc3\u601d
p1020
I1
sV\u536b\u751f\u5c40
p1021
I1
sV\u4e00\u4e5d\u4e5d\u4e03
p1022
I1
sV\u51b2\u51fb
p1023
I1
sV\u539a\u793c
p1024
I1
sV\u601d\u60f3\u653f\u6cbb
p1025
I8
sV\u826f\u6027
p1026
I2
sV\u7814\u7a76\u5de5\u4f5c
p1027
I1
sV\u5317\u65b9\u4ea4\u901a\u5927\u5b66
p1028
I2
sV\u8bfe\u7a0b\u8bbe\u7f6e
p1029
I1
sV\u8054\u7f51
p1030
I1
sV\u8bbe\u6709
p1031
I1
sV\u540d\u5b57
p1032
I1
sV\u53d7\u6559\u80b2\u8005
p1033
I2
sV\u4e2d\u957f\u671f
p1034
I1
sV\u6350\u8d44
p1035
I1
sV\u6761\u5757\u5206\u5272
p1036
I3
sV\u9014\u5f84
p1037
I4
sV\u6559\u6750\u5efa\u8bbe
p1038
I1
sV\u767e\u5206\u4e4b
p1039
I19
sV\u56fd\u9645\u4e3b\u4e49
p1040
I2
sV\u5e02\u533a
p1041
I2
sV\u7eaf\u6d01\u6027
p1042
I1
sV\u786e\u6709
p1043
I1
sV\u9664\u4e00\u4f4d
p1044
I1
sV\u5e74\u5e95
p1045
I1
sV\u66f2\u6298
p1046
I1
sV\u8fd9\u7b14
p1047
I1
sV\u540d\u76ee\u7e41\u591a
p1048
I1
sV\u6587\u7406
p1049
I1
sV\u6559\u4ed6
p1050
I1
sV\u8bb0\u5fc6
p1051
I1
sV\u5f71\u8bc4
p1052
I1
sV\u7740\u773c\u4e8e
p1053
I2
sV\u5f53\u4ee3
p1054
I1
sV\u6709\u5229\u4e8e
p1055
I8
sV\u8bfb\u4e66\u4f1a
p1056
I1
sV\u5ba2\u4eba
p1057
I1
sV\u7edf\u4e00
p1058
I3
sV\u516c\u65a4
p1059
I1
sV\u53d1\u5c55\u515a\u5458
p1060
I2
sV\u8f9b\u4ea5\u9769\u547d
p1061
I1
sV\u5bfc\u5411
p1062
I3
sV\u63d0\u4f9b
p1063
I13
sV\u795d\u613f
p1064
I1
sV\u7236\u6bcd
p1065
I4
sV\u62df\u8ba2
p1066
I1
sV\u519c\u5927
p1067
I5
sV\u804c\u52a1
p1068
I1
sV\u94b1\u8d22
p1069
I1
sV\u6bcf\u5468
p1070
I1
sV\u665a\u62a5
p1071
I1
sV\u521d\u4e8c
p1072
I1
sV\u6210\u7acb
p1073
I15
sV\u63a8\u51fa
p1074
I3
sV\u771f\u5b9e
p1075
I1
sV\u51b3\u4e0d\u80fd
p1076
I2
sV\u79d1\u5b66\u6559\u80b2
p1077
I1
sV\u5e08\u751f\u5458\u5de5
p1078
I2
sV\u8881\u5149\u539a
p1079
I1
sV\u738b\u5149\u82f1
p1080
I1
sV\u516d\u6708
p1081
I1
sV\u91cd\u5e86\u5e08\u8303\u5b66\u9662
p1082
I1
sV\u53ca\u5176\u4ed6
p1083
I1
sV\u57ce\u5efa
p1084
I3
sV\u8bd5\u7528
p1085
I1
sV\u6846\u6846
p1086
I1
sV\u4eba\u624d\u57f9\u8bad
p1087
I1
sV\u5168\u53bf
p1088
I8
sV\u4e2d\u6765
p1089
I2
sV\u8054\u7edc
p1090
I1
sV\u5c4b\u5b50
p1091
I1
sV\u6559\u5b66\u8ba1\u5212
p1092
I1
sV\u4e2d\u5fc3
p1093
I12
sV\u7279\u610f
p1094
I1
sV\u4ea4\u53c9
p1095
I1
sV\u5916\u90e8
p1096
I1
sV\u6c11\u8fdb
p1097
I3
sV\u81ea\u6211
p1098
I4
sV\u57fa\u5c42
p1099
I6
sV\u4fe1\u606f\u5316
p1100
I1
sV\u4fee\u517b
p1101
I19
sV\u5e08\u8d44
p1102
I7
sV\u540c\u610f
p1103
I1
sV\u53d8\u8c03
p1104
I1
sV\u5b9e\u4e60
p1105
I2
sV\u65e5\u65b0\u6708\u5f02
p1106
I1
sV\u5171\u8fce
p1107
I2
sV\u6e90\u4e8e
p1108
I1
sV\u9700\u6c42
p1109
I5
sV\u6559\u6388
p1110
I3
sV\u4efb\u5176
p1111
I1
sV\u9002\u5f97\u5176\u53cd
p1112
I1
sV\u656c\u8001
p1113
I1
sV\u65e9\u5c31
p1114
I1
sV\u8fd9\u4e00
p1115
I7
sV\u9a6c\u5217\u4e3b\u4e49
p1116
I3
sV\u4e2d\u6709
p1117
I2
sV\u8bda\u5b9e\u5b88\u4fe1
p1118
I2
sV\u5b81\u590f
p1119
I3
sV\u804c\u4e1a\u6307\u5bfc
p1120
I2
sV\u610f\u613f
p1121
I2
sV\u5168\u5e02
p1122
I23
sV\u6cbb\u6821
p1123
I1
sV\u5de5\u8bfb\u6559\u80b2
p1124
I6
sV\u4e07\u540d
p1125
I1
sV\u65e0\u9650
p1126
I1
sV\u5170\u82b1
p1127
I1
sV\u504f\u4f4e
p1128
I1
sV\u7269\u529b
p1129
I1
sV\u53d1\u5c55
p1130
I152
sV\u5f53\u4f5c
p1131
I1
sV\u65b9\u6cd5
p1132
I13
sV\u4e92\u8058
p1133
I1
sV\u5ef6\u5b89\u5730\u533a
p1134
I1
sV\u90e8\u59d4
p1135
I3
sV\u4e09\u95f4\u623f
p1136
I1
sV\u5173\u95e8
p1137
I1
sV\u5174\u81f4\u52c3\u52c3
p1138
I2
sV\u96c6\u8d44
p1139
I8
sV\u5c0a\u8001\u7231\u5e7c
p1140
I3
sV\u4e0d\u9057\u4f59\u529b
p1141
I1
sV\u6821\u7ea7
p1142
I1
sV\u4e5d\u4e94
p1143
I3
sV\u6e17\u900f
p1144
I4
sV\u519c\u573a
p1145
I1
sV\u6293\u8d77
p1146
I5
sV\u7537\u5b69
p1147
I1
sV\u4e8b\u534a\u529f\u500d
p1148
I1
sV\u5de5\u8bfb
p1149
I30
sV\u672a\u6765
p1150
I5
sV\u529f\u7387
p1151
I1
sV\u8bc4\u6bd4
p1152
I3
sV\u591a\u5e73\u65b9\u7c73
p1153
I1
sV\u6709\u5bb3\u65e0\u5229
p1154
I1
sV\u589e\u6dfb
p1155
I2
sV\u5916\u56fd
p1156
I3
sV\u793e\u4f1a\u652f\u6301
p1157
I1
sV\u5766\u591a
p1158
I1
sV\u84dd\u56fe
p1159
I1
sV\u7ed3\u6784\u8c03\u6574
p1160
I3
sV\u6454\u6253
p1161
I1
sV\u6781\u5dee
p1162
I1
sV\u5173\u952e
p1163
I12
sV\u5e94\u6709
p1164
I2
sV\u52e4\u5de5\u52a9\u5b66
p1165
I1
sV\u5e7f\u64ad\u7535\u53f0
p1166
I1
sV\u8fd9\u4ef6
p1167
I1
sV\u534e\u4e1c\u653f\u6cd5\u5b66\u9662
p1168
I1
sV\u4e13\u8bbe
p1169
I1
sV\u65f6\u88c5\u8868\u6f14
p1170
I1
sV\u65e0\u8bb0\u540d\u6295\u7968
p1171
I1
sV\u8d50\u7a3f
p1172
I1
sV\u4f55\u52a0\u6b63
p1173
I2
sV\u6c11\u529e\u9ad8\u6821
p1174
I5
sV\u5b9e\u4e8b
p1175
I1
sV\u7f8e\u56fd
p1176
I6
sV\u66f4\u5927
p1177
I1
sV\u6731\u7389
p1178
I1
sV\u8fd0\u52a8
p1179
I1
sV\u56fd\u9645\u513f\u7ae5\u8282
p1180
I2
sV\u7f16\u821e
p1181
I1
sV\u6c34\u7a3b
p1182
I1
sV\u8bc4\u8bae
p1183
I1
sV\u5178\u578b
p1184
I2
sV\u5e7c\u513f\u6559\u5e08
p1185
I3
sV\u7cbe\u795e
p1186
I32
sV\u57ce\u5e02
p1187
I5
sV\u4ece\u4eba
p1188
I1
sV\u6279\u51c6
p1189
I2
sV\u505a\u597d
p1190
I8
sV\u5404\u56fd
p1191
I2
sV\u8001\u4f34
p1192
I1
sV\u6d4b\u8bd5
p1193
I3
sV\u6210\u4eba\u9ad8\u6821
p1194
I2
sV\u601d\u8def
p1195
I7
sV\u6df1\u53d7
p1196
I3
sV\u80fd\u624b
p1197
I2
sV\u517c\u5e76
p1198
I1
sV\u793e\u4f1a\u751f\u6d3b
p1199
I14
sV\u8f8d\u5b66
p1200
I1
sV\u51fa\u4e00\u79cd
p1201
I1
sV\u8bbe\u65bd
p1202
I6
sV\u7efc\u8ff0
p1203
I1
sV\u81ea\u5b66\u6210\u624d
p1204
I1
sV\u4e00\u6574\u5957
p1205
I1
sV\u7cae\u98df
p1206
I1
sV\u6279\u5224
p1207
I4
sV\u7acb\u8db3
p1208
I1
sV\u64cd\u4f5c\u6027
p1209
I1
sV\u5faa\u5e8f\u6e10\u8fdb
p1210
I1
sV\u6587\u5316\u8282
p1211
I1
sV\u6e29\u6696
p1212
I1
sV\u5929\u6027
p1213
I1
sV\u7cae\u5e97
p1214
I1
sV\u5305\u62ec
p1215
I16
sV\u53cd\u9762
p1216
I1
sV\u4e8e\u5e73
p1217
I1
sV\u6587\u76f2
p1218
I1
sV\u6d41\u52a8
p1219
I1
sV\u4eba\u6587
p1220
I1
sV\u9762\u6388
p1221
I1
sV\u4e24\u5343
p1222
I1
sV\u7ea2\u9886\u5dfe
p1223
I2
sV\u5f00\u521b\u6027
p1224
I1
sV\u751f\u52a8
p1225
I2
sV\u4ee5\u57f9\u517b
p1226
I1
sV\u53ea\u5f00
p1227
I1
sV\u4f5c\u7528
p1228
I29
sV\u683c\u8c03
p1229
I1
sV\u5404\u754c
p1230
I7
sV\u8d23\u4efb\u5236
p1231
I1
sV\u5168\u73ed
p1232
I1
sV\u51fa\u7248\u53d1\u884c
p1233
I1
sV\u5e02\u91cc
p1234
I1
sV\u5efa\u8bbe\u8d39
p1235
I1
sV\u4e09\u6b65\u66f2
p1236
I1
sV\u63a8\u52a8
p1237
I15
sV\u9ad8\u65b0\u6280\u672f
p1238
I6
sV\u4e24\u533a
p1239
I4
sV\u79d1\u5b66\u5bb6
p1240
I2
sV\u7279\u8272
p1241
I16
sV\u903c\u8feb
p1242
I1
sV\u5165\u5b66\u7387
p1243
I1
sV\u53e4\u5178\u821e
p1244
I1
sV\u843d\u6210
p1245
I4
sV\u4ed6\u5b66
p1246
I1
sV\u6559\u80b2\u65b9\u6cd5
p1247
I2
sV\u7533\u8bf7\u4e66
p1248
I1
sV\u51b6\u91d1
p1249
I4
sV\u52b3\u52a8\u6a21\u8303
p1250
I1
sV\u7d20\u8d28\u6559\u80b2
p1251
I20
sV\u4eff\u6548
p1252
I1
sV\u57f9\u8bad\u673a\u6784
p1253
I1
sV\u6559\u80b2
p1254
I396
sV\u6c47\u7f16
p1255
I1
sV\u4e2d\u56fd\u653f\u5e9c
p1256
I2
sV\u5927\u516c\u65e0\u79c1
p1257
I4
sV\u4f59\u6240
p1258
I1
sV\u6df1\u611f
p1259
I1
sV\u5b63\u5ea6
p1260
I1
sV\u4e49\u52a1\u6559\u80b2
p1261
I9
sV\u4fe1\u5ff5
p1262
I2
sV\u7f3a\u4e4f
p1263
I2
sV\u624b\u6bb5
p1264
I3
sV\u6f14\u51fa
p1265
I4
sV\u5f90\u4eba\u4ef2
p1266
I1
sV\u6240\u5c5e
p1267
I3
sV\u793e\u4f1a\u798f\u5229
p1268
I1
sV\u91cd\u5e86
p1269
I1
sV\u52a8\u4f5c
p1270
I1
sV\u5efa\u7acb
p1271
I39
sV\u5929\u6d25
p1272
I2
sV\u9ad8\u6821
p1273
I27
sV\u5b9e\u8df5
p1274
I21
sV\u5973\u6027\u5316
p1275
I1
sV\u82f1\u6a21
p1276
I1
sV\u5927\u89c4\u6a21
p1277
I1
sV\u806a\u660e
p1278
I1
sV\u8ba1\u5212
p1279
I12
sV\u5efa\u7ad9
p1280
I1
sV\u591a\u5e74
p1281
I2
sV\u8bb8\u5609\u7490
p1282
I1
sV\u6b4c\u821e
p1283
I1
sV\u6bcf\u6b21
p1284
I2
sV\u67d0\u79cd
p1285
I2
sV\u4f53\u7cfb
p1286
I2
sV\u5357\u6d0b\u6a21\u8303\u4e2d\u5b66
p1287
I2
sV\u738b\u6b21
p1288
I1
sV\u529f\u592b\u4e0d\u8d1f\u6709\u5fc3\u4eba
p1289
I1
sV\u6c11\u95f4\u821e
p1290
I1
sV\u624e\u624e\u5b9e\u5b9e
p1291
I1
sV\u914d\u7f6e
p1292
I1
sV\u4e09\u6821
p1293
I1
sV\u524d\u6240\u672a\u6709
p1294
I2
sV\u77e5\u60c5\u8005
p1295
I1
sV\u513f\u7ae5\u798f\u5229\u9662
p1296
I1
sV\u4e0a\u5348
p1297
I3
sV\u5c0f\u6f58
p1298
I2
sV\u5ba1\u6279
p1299
I4
sV\u90a3\u4f9d\u59c6
p1300
I1
sV\u7701\u4f1a
p1301
I1
sV\u4eba\u6570
p1302
I4
sV\u4e0d\u5f3a
p1303
I1
sV\u680b\u6881
p1304
I1
sV\u6559\u5b66\u5185\u5bb9
p1305
I1
sV\u6d17\u8863
p1306
I1
sV\u521b\u9020
p1307
I26
sV\u5955\u5955
p1308
I1
sV\u4e00\u767e
p1309
I1
sV\u5df2\u8fbe
p1310
I4
sV\u611a\u6627
p1311
I1
sV\u4eba\u4e8b\u5c40
p1312
I2
sV\u9884\u4e60
p1313
I1
sV\u5e02\u5174
p1314
I1
sV\u5bb6\u52a1\u6d3b
p1315
I1
sV\u70b9\u4e3a
p1316
I1
sV\u610f\u5411
p1317
I1
sV\u753b\u6709
p1318
I1
sV\u4e94\u7ebf\u8c31
p1319
I5
sV\u7eaa\u8981
p1320
I2
sV\u4e70\u65ad
p1321
I1
sV\u6734\u5b9e
p1322
I1
sV\u5f15\u5bfc
p1323
I16
sV\u793e\u533a
p1324
I2
sV\u6b23\u8d4f\u4f1a
p1325
I1
sV\u9057\u5740
p1326
I1
sV\u6cd5\u5236
p1327
I3
sV\u515a\u653f\u673a\u5173
p1328
I1
sV\u5e08\u8303\u751f
p1329
I1
sV\u6d6a\u8d39
p1330
I1
sV\u5c0f\u4f19\u5b50
p1331
I1
sV\u6548\u76ca
p1332
I17
sV\u5988\u5988
p1333
I4
sV\u65e0\u9521
p1334
I2
sV\u8f89\u714c
p1335
I2
sV\u4e0e\u4f1a\u8005
p1336
I1
sV\u96f6\u70b9
p1337
I1
sV\u5e08\u8303
p1338
I7
sV\u5ba1\u7f8e
p1339
I1
sV\u51b6\u70bc
p1340
I1
sV\u8d44\u91d1
p1341
I8
sV\u5b66\u751f\u7ba1\u7406
p1342
I1
sV\u751f\u4ea7\u8005
p1343
I1
sV\u5218\u5173\u6743
p1344
I1
sV\u6210\u591a
p1345
I1
sV\u5e74\u8fc7\u534a\u767e
p1346
I1
sV\u65c1\u542c
p1347
I1
sV\u5174\u8870
p1348
I2
sV\u7ea6\u675f
p1349
I2
sV\u5305\u63fd
p1350
I1
sV\u89c2\u5ff5
p1351
I12
sV\u5b9e\u4e60\u751f
p1352
I3
sV\u9519\u522b\u5b57
p1353
I1
sV\u7406\u8bba\u7814\u7a76
p1354
I1
sV\u6ed5\u6587\u751f
p1355
I1
sV\u653e\u5f03
p1356
I1
sV\u516c\u91cc
p1357
I1
sV\u6d4e\u5357
p1358
I3
sV\u8ba8\u8bba
p1359
I7
sV\u5165\u5b66
p1360
I9
sV\u667a\u529b\u5f00\u53d1
p1361
I1
sV\u6821\u8bad
p1362
I1
sV\u6307\u671b
p1363
I1
sV\u89c4\u8303
p1364
I15
sV\u8fd1\u51e0\u5e74
p1365
I2
sV\u912f\u5b9d\u7ea2
p1366
I1
sV\u6765\u4e34
p1367
I1
sV\u594b\u8d77
p1368
I2
sV\u4e24\u5236
p1369
I1
sV\u8f85\u52a9
p1370
I1
sV\u8eab\u5fc3\u5065\u5eb7
p1371
I2
sV\u9006\u53cd
p1372
I1
sV\u6211\u7684\u5bb6
p1373
I1
sV\u9000\u5b66
p1374
I2
sV\u6210\u5957
p1375
I1
sV\u8270\u82e6\u6734\u7d20
p1376
I2
sV\u5938\u5938
p1377
I1
sV\u5df2\u4e3a
p1378
I2
sV\u904d\u53ca
p1379
I1
sV\u5927\u89c2
p1380
I1
sV\u7acb\u6cd5
p1381
I1
sV\u7a7a\u519b
p1382
I3
sV\u5c0f\u670b\u53cb
p1383
I1
sV\u601d\u6f6e
p1384
I3
sV\u8131\u79bb
p1385
I2
sV\u957f\u6d2a
p1386
I1
sV\u5f98\u5f8a
p1387
I1
sV\u603b\u6570
p1388
I1
sV\u6b7b\u8bb0\u786c\u80cc
p1389
I2
sV\u62db\u8058
p1390
I1
sV\u4e16\u754c
p1391
I19
sV\u8fd9\u51e0\u4f4d
p1392
I1
sV\u6843\u674e\u6ee1\u5929\u4e0b
p1393
I1
sV\u5de5\u4f5c\u91cf
p1394
I1
sV\u4e24\u4e2a
p1395
I18
sV\u7387\u5148
p1396
I1
sV\u4e2d\u65e5
p1397
I2
sV\u8bf7\u5bb6\u6559
p1398
I1
sV\u6240\u5b66
p1399
I1
sV\u540d\u5217
p1400
I1
sV\u5b66\u671f
p1401
I1
sV\u524d\u5915
p1402
I2
sV\u5343\u5343\u4e07\u4e07
p1403
I1
sV\u4e2d\u65f6
p1404
I1
sV\u6293\u4f4f
p1405
I3
sV\u4e60\u9898
p1406
I2
sV\u632f\u5174
p1407
I4
sV\u9996\u90fd
p1408
I12
sV\u8fbe\u6807
p1409
I2
sV\u4ecd\u4ee5
p1410
I1
sV\u5de5\u8bfb\u751f
p1411
I3
sV\u4fdd\u7559
p1412
I1
sV\u5927\u697c
p1413
I4
sV\u603b\u653f
p1414
I2
sV\u73af\u8282
p1415
I1
sV\u56fe\u4e66\u9986
p1416
I8
sV\u4f9d\u7136
p1417
I2
sV\u521a\u521a
p1418
I1
sV\u4f5c\u54c1
p1419
I2
sV\u53bf\u7ea7
p1420
I3
sV\u6570\u5b66\u7cfb
p1421
I1
sV\u901a\u5411
p1422
I2
sV\u53cb\u597d
p1423
I1
sV\u8eab\u60a3
p1424
I1
sV\u4fb5\u8680
p1425
I1
sV\u613f\u671b
p1426
I3
sV\u8c31\u53f7
p1427
I3
sV\u5e76\u5c06
p1428
I1
sV\u65b0\u5efa
p1429
I1
sV\u5987\u5e7c\u4fdd\u5065
p1430
I2
sV\u4e16\u754c\u89c2
p1431
I5
sV\u6bcf\u6240
p1432
I1
sV\u95ed\u5377
p1433
I1
sV\u7edf\u4e00\u6027
p1434
I1
sV\u4e0b\u5f97
p1435
I1
sV\u827a\u672f\u6b23\u8d4f
p1436
I1
sV\u62b5\u5236
p1437
I2
sV\u5e8f\u5217
p1438
I1
sV\u7535\u89c6\u7247
p1439
I1
sV\u56e2\u4e2d\u592e
p1440
I2
sV\u674e\u6b63\u90a6
p1441
I1
sV\u539f\u56e0
p1442
I2
sV\u4e00\u5802
p1443
I1
sV\u80b2\u5f97
p1444
I1
sV\u5404\u6292\u5df1\u89c1
p1445
I1
sV\u4e25\u8c28
p1446
I2
sV\u517b\u80b2
p1447
I1
sV\u5fc3\u7406\u5b66
p1448
I3
sV\u65b0\u4e2d\u56fd
p1449
I3
sV\u64cd\u573a
p1450
I2
sV\u767e\u540d
p1451
I1
sV\u515a\u59d4\u4e66\u8bb0
p1452
I2
sV\u6c11\u76df\u4e2d\u592e
p1453
I1
sV\u62a5\u520a\u793e
p1454
I1
sV\u5408\u4f5c\u529e\u5b66
p1455
I1
sV\u6559\u80b2\u4f53\u7cfb
p1456
I6
sV\u6559\u80b2\u8d44\u6e90
p1457
I8
sV\u76ee\u5f55
p1458
I1
sV\u6761\u5757\u7ed3\u5408
p1459
I1
sV\u8054\u8c0a\u4f1a
p1460
I2
sV\u5bcc\u5f3a
p1461
I2
sV\u5730\u65b9
p1462
I15
sV\u4e00\u662f
p1463
I3
sV\u9ad8\u4e2d\u751f
p1464
I2
sV\u534f\u4f1a
p1465
I3
sV\u5de5\u7a0b\u5b66\u9662
p1466
I2
sV\u8fd9\u6240
p1467
I3
sV\u4e66\u878d
p1468
I1
sV\u6559\u5b66\u5de5\u4f5c
p1469
I1
sV\u62db\u751f\u5de5\u4f5c
p1470
I1
sV\u5927\u4e2d\u578b
p1471
I4
sV\u7ec3\u4e60\u9898
p1472
I3
sV\u5f3a\u5927
p1473
I2
sV\u653f\u6cbb
p1474
I20
sV\u516d\u6240
p1475
I1
sV\u9000\u5c45
p1476
I2
sV\u8054\u5408\u4f53
p1477
I3
sV\u540e\u4ee3
p1478
I1
sV\u5c31\u8303
p1479
I1
sV\u73ed\u96c6\u4f53
p1480
I1
sV\u4eea\u8868
p1481
I1
sV\u601d\u60f3\u9053\u5fb7
p1482
I66
sV\u79d1\u5b66
p1483
I27
sV\u5236\u5ea6\u5efa\u8bbe
p1484
I2
sV\u6d3e\u9063
p1485
I2
sV\u738b\u7167\u534e
p1486
I1
sV\u4e13\u4e1a
p1487
I28
sV\u5f97\u6765
p1488
I1
sV\u52a1\u5fc5
p1489
I1
sV\u8bba\u8bc1
p1490
I2
sV\u968f\u5fc3\u6240\u6b32
p1491
I1
sV\u65e9\u9910
p1492
I1
sV\u6279\u8bc4
p1493
I1
sV\u4ee5\u653f\u5e9c
p1494
I2
sV\u8be5\u6821
p1495
I1
sV\u5e02\u573a
p1496
I7
sV\u5de5\u4e1a
p1497
I1
sV\u5fe0\u8bda
p1498
I1
sV\u516b\u5341\u5e74\u4ee3
p1499
I1
sV\u4fdd\u5229
p1500
I1
sV\u5408\u683c\u8005
p1501
I1
sV\u9ad8\u4e09
p1502
I3
sV\u674e\u9e4f\u5728
p1503
I1
sV\u7406\u8bba\u8bfe
p1504
I1
sV\u4e27\u5931
p1505
I1
sV\u4f9b\u5e94
p1506
I1
sV\u4e5d\u4e5d
p1507
I1
sV\u9ad8\u4e00
p1508
I1
sV\u52b3\u52a8\u529b
p1509
I3
sV\u5d07\u9ad8
p1510
I1
sV\u6d41\u5411
p1511
I1
sV\u653e\u6620
p1512
I2
sV\u6fc0\u53d1
p1513
I2
sV\u65b0\u9986
p1514
I3
sV\u7d2f\u8ba1
p1515
I2
sV\u9898\u6750
p1516
I1
sV\u516c\u4ea4\u8f66
p1517
I1
sV\u914d\u5907
p1518
I2
sV\u5927\u4e13
p1519
I2
sV\u4e61\u9547
p1520
I3
sV\u9ad8\u4e2d
p1521
I26
sV\u670b\u53cb
p1522
I2
sV\u4eba\u9645\u5173\u7cfb
p1523
I4
sV\u53bf\u59d4
p1524
I1
sV\u4eba\u4e0e\u81ea\u7136
p1525
I2
sV\u5e9f\u5f03\u7269
p1526
I2
sV\u5bd2\u6691\u5047
p1527
I1
sV\u5b66\u8005
p1528
I2
sV\u4e2d\u56fd\u827a\u672f\u7814\u7a76\u9662
p1529
I1
sV\u653b\u514b
p1530
I1
sV\u8bc4\u4ef7
p1531
I3
sV\u6c11\u4e3b
p1532
I1
sV\u4e1c\u65b9\u4eba
p1533
I1
sV\u90bb\u91cc
p1534
I1
sV\u9760\u62e2
p1535
I1
sV\u5012\u6570
p1536
I1
sV\u804c\u8d23
p1537
I7
sV\u9884\u6848
p1538
I1
sV\u9879\u76ee
p1539
I11
sV\u5404\u9879
p1540
I2
sV\u8f6c\u578b
p1541
I1
sV\u7efc\u5408\u6027
p1542
I1
sV\u5148\u950b
p1543
I3
sV\u4e00\u6821
p1544
I1
sV\u534e\u4e1c\u7406\u5de5\u5927\u5b66
p1545
I2
sV\u5de5\u4eba
p1546
I14
sV\u624b\u6307
p1547
I1
sV\u7f13\u89e3
p1548
I2
sV\u4e07\u518c
p1549
I2
sV\u5e73\u5747
p1550
I5
sV\u5bb6\u957f
p1551
I53
sV\u8282\u65e5
p1552
I3
sV\u90e8\u5c5e
p1553
I1
sV\u4e8b\u60c5
p1554
I1
sV\u8fd9\u5341\u5e74
p1555
I1
sV\u6bd5\u4e1a
p1556
I9
sV\u672c\u68cb\u4e66
p1557
I1
sV\u4e8e\u6c38\u6e5b
p1558
I1
sV\u914d\u5957
p1559
I4
sV\u529e\u4e8b
p1560
I4
sV\u5317\u4eac\u5e02\u6c11\u653f\u5c40
p1561
I1
sV\u8feb\u5728\u7709\u776b
p1562
I1
sV\u9769\u547d\u5bb6
p1563
I1
sV\u4e0d\u591a
p1564
I2
sV\u591a\u79cd
p1565
I8
sV\u5e08\u751f\u6bd4
p1566
I1
sV\u8feb\u5207
p1567
I4
sV\u6545\u4e8b
p1568
I5
sV\u4e2a\u7cfb
p1569
I1
sV\u6731\u9759
p1570
I1
sV\u4e00\u6708
p1571
I1
sV\u56fd\u6cbb
p1572
I2
sV\u5916\u8bed
p1573
I2
sV\u65f6\u6570
p1574
I1
sV\u79ef\u6781\u884c\u52a8
p1575
I1
sV\u4e0b\u964d
p1576
I2
sV\u8f7f\u8f66
p1577
I1
sV\u4e61\u9547\u4f01\u4e1a
p1578
I1
sV\u51e0\u70b9
p1579
I1
sV\u6821\u56ed\u89c4\u5212
p1580
I1
sV\u4e94\u56db
p1581
I1
sV\u8b66\u9192
p1582
I2
sV\u6210\u7ee9
p1583
I25
sV\u957f\u6c99
p1584
I1
sV\u53ef\u5728
p1585
I2
sV\u4e0d\u4e45\u524d
p1586
I1
sV\u7ecf\u9a8c\u578b
p1587
I1
sV\u5899\u62a5
p1588
I2
sV\u6025\u9700
p1589
I3
sV\u5371\u623f
p1590
I2
sV\u9ad8\u65b0\u79d1\u6280
p1591
I1
sV\u5c0a\u5e08\u91cd\u6559
p1592
I3
sV\u6559\u5e08\u8282
p1593
I1
sV\u6f14\u8bb2\u4f1a
p1594
I1
sV\u5fe0\u4e8e\u804c\u5b88
p1595
I1
sV\u6ce8\u518c
p1596
I1
sV\u591a\u79d1\u6027
p1597
I1
sV\u53d1\u8868\u610f\u89c1
p1598
I1
sV\u8fdb\u4fee
p1599
I1
sV\u5317\u65b9
p1600
I1
sV\u56fe\u7247
p1601
I1
sV\u56fd\u9645\u56fd\u5185
p1602
I1
sV\u7a33\u5b9a
p1603
I4
sV\u793e\u4f1a\u6027
p1604
I1
sV\u8fbd\u5b81
p1605
I2
sV\u5f90\u6653
p1606
I1
sV\u4e2d\u56fd\u9752\u5c11\u5e74\u53d1\u5c55\u57fa\u91d1\u4f1a
p1607
I1
sV\u4e2d\u5171\u4e2d\u592e\u653f\u6cbb\u5c40
p1608
I6
sV\u53ea\u4ee5
p1609
I1
sV\u4e1c\u660c
p1610
I3
sV\u4e09\u5382
p1611
I1
sV\u5a74\u5e7c\u513f
p1612
I2
sV\u5c11\u5e74\u513f\u7ae5
p1613
I8
sV\u4eca\u5e74\u521d
p1614
I1
sV\u4eba\u683c
p1615
I2
sV\u4e00\u6761
p1616
I1
sV\u4e09\u53bf
p1617
I1
sV\u6838\u5fc3
p1618
I1
sV\u6807\u51c6\u5316
p1619
I1
sV\u878d\u5408
p1620
I2
sV\u4f53\u7b49
p1621
I1
sV\u770b\u6210
p1622
I1
sV\u5931\u8d25
p1623
I4
sV\u804a\u5929
p1624
I1
sV\u4e2d\u56fd\u79d1\u534f
p1625
I4
sV\u7f57\u5c0f\u672a
p1626
I2
sV\u4e00\u8d2f\u5236
p1627
I3
sV\u4e94\u5c81
p1628
I1
sV\u5b66\u4e60\u65b9\u6cd5
p1629
I2
sV\u8bc4\u4f30
p1630
I12
sV\u4f5c\u7269
p1631
I1
sV\u5efa\u5de5
p1632
I1
sV\u63a8\u5411
p1633
I3
sV\u65b0\u9896
p1634
I2
sV\u7ecf\u8d39
p1635
I13
sV\u57fa\u7840\u5de5\u7a0b
p1636
I2
sV\u7cfb\u7edf
p1637
I12
sV\u793e\u4f1a\u5b9e\u8df5
p1638
I6
sV\u6f5c\u529b
p1639
I1
sV\u63a2\u5934\u63a2\u8111
p1640
I1
sV\u767b\u53f0
p1641
I1
sV\u5e26\u6765
p1642
I3
sV\u8fdd\u53cd
p1643
I2
sV\u6559\u6750
p1644
I8
sV\u4e0d\u987e
p1645
I1
sV\u5927\u4f17
p1646
I4
sV\u6559\u4e66\u80b2\u4eba
p1647
I2
sV\u8de8\u6821
p1648
I2
sV\u73b0\u72b6
p1649
I1
sV\u68c0\u67e5
p1650
I5
sV\u4f53\u80b2\u8bfe
p1651
I2
sV\u9999\u6e2f\u5730\u533a
p1652
I1
sV\u8bc4\u9009
p1653
I4
sV\u5927\u4f1a
p1654
I4
sV\u751f\u4ea7\u57fa\u5730
p1655
I1
sV\u526f\u98df\u54c1
p1656
I1
sV\u54c1\u5fb7
p1657
I6
sV\u6539\u9020
p1658
I4
sV\u9002\u5408
p1659
I3
sV\u82ad\u857e
p1660
I1
sV\u6170\u95ee
p1661
I1
sV\u79d1\u7814\u8bfe\u9898
p1662
I1
sV\u77ed\u7f3a
p1663
I1
sV\u5c55\u677f
p1664
I1
sV\u690d\u7269\u56ed
p1665
I1
sV\u5f62\u8c61
p1666
I3
sV\u6797\u5219\u5f90
p1667
I1
sV\u5149\u88d5
p1668
I1
sV\u7eaa\u5f8b
p1669
I7
sV\u8584\u5f31
p1670
I2
sV\u51fa\u7248\u793e
p1671
I5
sV\u5f3a\u56fd
p1672
I1
sV\u4e8b\u4e1a
p1673
I36
sV\u8c08\u5fc3
p1674
I2
sV\u5168\u5fe0
p1675
I4
sV\u6210\u65b9\u5706
p1676
I1
sV\u89c2\u770b
p1677
I3
sV\u751f\u957f
p1678
I2
sV\u4eba\u624d
p1679
I75
sV\u5931\u8db3
p1680
I1
sV\u884c\u4e3a\u89c4\u8303
p1681
I3
sV\u8015\u8018
p1682
I1
sV\u64cd\u7ec3
p1683
I1
sV\u6fc0\u52a8
p1684
I1
sV\u5e02\u59d4\u529e
p1685
I1
sV\u8270\u96be
p1686
I1
sV\u5c11\u5148\u961f
p1687
I5
sV\u5168\u56fd\u4eba\u5927\u5e38\u59d4\u4f1a
p1688
I1
sV\u4e2d\u83b7
p1689
I3
sV\u96c6\u4f53\u6240\u6709\u5236
p1690
I1
sV\u6587\u5316\u8bfe
p1691
I1
sV\u7ba1\u6559
p1692
I1
sV\u6bd4\u7387
p1693
I1
sV\u63a8\u9500
p1694
I2
sV\u5f3a\u76d7
p1695
I1
sV\u6559\u80b2\u79d1\u7814
p1696
I7
sV\u4e94\u5341
p1697
I1
sV\u7a81\u7834\u6027
p1698
I1
sV\u57fa\u5c42\u7ec4\u7ec7
p1699
I2
sV\u62d3\u5bbd
p1700
I1
sV\u65e8\u5728
p1701
I1
sV\u8054\u5408\u56fd\u513f\u7ae5\u57fa\u91d1\u4f1a
p1702
I4
sV\u5e38\u52a1
p1703
I5
sV\u6211\u56fd
p1704
I80
sV\u9009\u62d4
p1705
I3
sV\u6587\u660e\u793c\u8c8c
p1706
I2
sV\u5bb6\u5ead\u6559\u5e08
p1707
I3
sV\u53d6\u5411
p1708
I2
sV\u6388\u4e88
p1709
I1
sV\u5171\u6709
p1710
I3
sV\u8eab\u6559
p1711
I2
sV\u4ea4\u6d41
p1712
I4
sV\u827a\u672f\u9662\u56e2
p1713
I1
sV\u4e94\u5e74
p1714
I1
sV\u67ef\u6865
p1715
I1
sV\u4e00\u5982\u65e2\u5f80
p1716
I2
sV\u91d1\u957f\u57ce
p1717
I1
sV\u7edd\u5927\u591a\u6570
p1718
I1
sV\u8bc6\u8bfb
p1719
I4
sV\u575a\u5b9a\u4e0d\u79fb
p1720
I1
sV\u900f\u9732
p1721
I2
sV\u9009\u62e9
p1722
I3
sV\u620f\u5267
p1723
I3
sV\u667a\u80fd
p1724
I8
sV\u6821\u5916
p1725
I4
sV\u4e00\u6761\u9f99
p1726
I1
sV\u4eca\u65e5
p1727
I2
sV\u653f\u5e9c\u673a\u5173
p1728
I1
sV\u97f3\u7b26
p1729
I1
sV\u8d23\u4efb\u5fc3
p1730
I4
sV\u6253\u597d
p1731
I2
sV\u793e\u533a\u6587\u5316
p1732
I1
sV\u5171\u5ea6
p1733
I1
sV\u8981\u540c
p1734
I3
sV\u8868\u6f14\u827a\u672f
p1735
I1
sV\u89d2\u5ea6
p1736
I1
sV\u4e2d\u56fd\u6c11\u4e3b\u4fc3\u8fdb\u4f1a
p1737
I1
sV\u6559\u5b66\u8d44\u6599
p1738
I1
sV\u9676\u51b6
p1739
I1
sV\u8da3\u5473
p1740
I1
sV\u670d\u52a1\u793e\u4f1a
p1741
I1
sV\u5171\u4eab
p1742
I1
sV\u4e4b\u82b1
p1743
I1
sV\u505a\u8d77
p1744
I8
sV\u767e\u90e8
p1745
I2
sV\u8bfe\u4e1a
p1746
I1
sV\u8001\u6709\u6240\u4e3a
p1747
I1
sV\u83b1\u5dde\u5e02
p1748
I4
sV\u8270\u82e6\u594b\u6597
p1749
I17
sV\u4e03\u6821
p1750
I1
sV\u7f8e\u5143
p1751
I1
sV\u56f0\u96be
p1752
I11
sV\u4ea4\u901a\u5927\u5b66
p1753
I8
sV\u7cfb\u7edf\u6027
p1754
I1
sV\u67e5\u9605
p1755
I1
sV\u5eb7\u4e16\u6069
p1756
I1
sV\u5f55\u50cf\u5e26
p1757
I2
sV\u516c\u5b66
p1758
I1
sV\u542c\u8bfe
p1759
I1
sV\u4e13\u7528
p1760
I1
sV\u72ec\u7279
p1761
I1
sV\u5efa\u5e10
p1762
I1
sV\u5927\u6c34
p1763
I1
sV\u884c\u653f\u90e8\u95e8
p1764
I11
sV\u663e\u73b0
p1765
I1
sV\u7ecf\u8425
p1766
I1
sV\u4ed6\u5f8b
p1767
I2
sV\u529e\u6cd5
p1768
I12
sV\u6559\u80b2\u7814\u7a76
p1769
I1
sV\u6e29\u99a8
p1770
I1
sV\u708e\u52a0\u708e
p1771
I1
sV\u6d59\u6c5f
p1772
I1
sV\u6559\u5b66\u6539\u9769
p1773
I4
sV\u7535\u89c6
p1774
I3
sV\u89c4\u5f8b
p1775
I4
sV\u5177\u5907
p1776
I3
sV\u8bd5\u529e
p1777
I1
sV\u4e8c\u5e02
p1778
I1
sV\u6e38\u620f
p1779
I1
sV\u5371\u5bb3
p1780
I1
sV\u5f02\u519b\u7a81\u8d77
p1781
I1
sV\u4f8b\u5b50
p1782
I1
sV\u5b66\u5de5\u5904
p1783
I1
sV\u5c0f\u5b66\u6821
p1784
I1
sV\u56ed\u6797\u8bbe\u8ba1
p1785
I1
sV\u53bf\u6709
p1786
I1
sV\u4e30\u5bcc\u591a\u5f69
p1787
I2
sV\u8c31\u5199
p1788
I1
sV\u5e02\u6559\u80b2\u5c40
p1789
I2
sV\u5b66\u827a
p1790
I1
sV\u6350\u6b3e
p1791
I2
sV\u81ea\u529e
p1792
I1
sV\u53f8\u836f
p1793
I1
sV\u8ff7\u604b
p1794
I1
sV\u5f00\u53d1
p1795
I4
sV\u7b2c\u4e00\u6d41
p1796
I1
sV\u6234\u7740
p1797
I1
sV\u8de8\u5165
p1798
I1
sV\u7ed3\u4f59
p1799
I1
sV\u51e0\u5341
p1800
I2
sV\u7528\u4e09\u5e74
p1801
I2
sV\u62db\u6536
p1802
I3
sV\u4eba\u624d\u57f9\u517b
p1803
I4
sV\u56fd\u5bb6\u7ea7
p1804
I2
sV\u6700\u8d77\u7801
p1805
I2
sV\u4f5c\u51fa
p1806
I4
sV\u8fd1\u4ee3
p1807
I1
sV\u5ea7\u8c08\u4f1a
p1808
I12
sV\u5f90\u5411\u524d
p1809
I1
sV\u5916\u5730
p1810
I1
sV\u91cd\u590d
p1811
I2
sV\u624e\u5b9e
p1812
I2
sV\u5f62\u4f53
p1813
I1
sV\u8d2b\u56f0
p1814
I3
sV\u5916\u573a
p1815
I1
sV\u5e02\u957f
p1816
I1
sV\u5c71\u4e1c
p1817
I4
sV\u5174\u8da3
p1818
I4
sV\u80af\u5b9a
p1819
I4
sV\u5dee\u8f6c\u53f0
p1820
I1
sV\u7eff\u6811
p1821
I1
sV\u539f\u5219
p1822
I11
sV\u9752\u5e74\u8282
p1823
I2
sV\u4fe1\u606f
p1824
I5
sV\u57fa\u7840
p1825
I22
sV\u624b\u4e2d
p1826
I1
sV\u6253\u7834
p1827
I2
sV\u76ee\u6807\u7ba1\u7406
p1828
I2
sV\u5b66\u751f\u6d3b\u52a8
p1829
I1
sV\u81f4\u5bcc
p1830
I1
sV\u5c0f\u7ea2\u5e3d
p1831
I1
sV\u6dc4\u535a
p1832
I6
sV\u4e00\u4efd
p1833
I1
sV\u738b\u4efb
p1834
I1
sV\u81ea\u8425
p1835
I1
sV\u51e0\u5e74\u6765
p1836
I7
sV\u5341\u4f4d
p1837
I2
sV\u6709\u6b65\u9aa4
p1838
I1
sV\u65e2\u4e3a
p1839
I1
sV\u9000\u8fd8
p1840
I1
sV\u8bfe\u4f59
p1841
I2
sV\u5b66\u5458\u961f
p1842
I1
sV\u79d1\u7814
p1843
I4
sV\u9ea6\u514b\u98ce
p1844
I1
sV\u5de5\u4f5c
p1845
I140
sV\u5de5\u8d44
p1846
I3
sV\u7406\u8bba
p1847
I11
sV\u88ab\u8bc4
p1848
I2
sV\u534f\u8c03
p1849
I10
sV\u4e00\u652f
p1850
I1
sV\u672c\u804c\u5de5\u4f5c
p1851
I1
sV\u6b66\u5ddd\u53bf
p1852
I2
sV\u8bfb\u8005
p1853
I1
sV\u8f85\u5bfc\u73ed
p1854
I1
sV\u67aa\u6740
p1855
I1
sV\u4e0d\u9ad8
p1856
I1
sV\u70ed\u60c5
p1857
I3
sV\u5b66\u5b50
p1858
I1
sV\u5ba1\u67e5
p1859
I1
sV\u7ec8\u751f
p1860
I1
sV\u519c\u6c11
p1861
I5
sV\u5b89\u5fbd\u7701
p1862
I1
sV\u65b0\u5a5a
p1863
I1
sV\u57fa\u7840\u77e5\u8bc6
p1864
I1
sV\u591a\u4e00\u70b9
p1865
I3
sV\u4eba\u80fd
p1866
I1
sV\u7763\u653f
p1867
I1
sV\u5de5\u8d38
p1868
I1
sV\u8f6c\u5411
p1869
I6
sV\u65e5\u7535
p1870
I38
sV\u9646\u7eed
p1871
I2
sV\u65f6\u673a
p1872
I1
sV\u90b5\u9038\u592b
p1873
I2
sV\u5e72\u4ec0\u4e48
p1874
I2
sV\u62a5\u6548
p1875
I1
sV\u5145\u5b9e
p1876
I4
sV\u6559\u5b66\u8bfe\u7a0b
p1877
I1
sV\u5185\u8499\u53e4\u81ea\u6cbb\u533a
p1878
I1
sV\u5f00\u4f1a
p1879
I1
sV\u65b0\u534e\u4e66\u5e97
p1880
I1
sV\u57fa\u672c\u77e5\u8bc6
p1881
I1
sV\u5bcc\u6709
p1882
I1
sV\u4e3a\u4eba\u5e08\u8868
p1883
I1
sV\u626b\u76f2
p1884
I2
sV\u6717\u8bf5
p1885
I1
sV\u6768\u534e
p1886
I1
sV\u6d77\u5185\u5916
p1887
I1
sV\u4e0a\u6d77\u4ea4\u901a\u5927\u5b66
p1888
I3
sV\u5bb6\u5ead\u6559\u80b2
p1889
I20
sV\u6559\u5e08\u57f9\u8bad
p1890
I1
sV\u63d0\u5021
p1891
I4
sV\u827a\u672f\u7cfb
p1892
I1
sV\u76f8\u5f53\u4e8e
p1893
I1
sV\u6df1\u5904
p1894
I1
sV\u5171\u5efa
p1895
I7
sV\u822a\u7a7a
p1896
I1
sV\u601d\u60f3\u6027
p1897
I1
sV\u6768\u79c9\u9f99
p1898
I1
sV\u8d70\u8bbf
p1899
I1
sV\u89e3\u653e\u519b\u603b\u653f\u6cbb\u90e8
p1900
I1
sV\u524a\u51cf
p1901
I1
sV\u8003\u5bdf
p1902
I8
sV\u5e26\u73ed
p1903
I1
sV\u6709\u52a9\u4e8e
p1904
I3
sV\u5f00\u529e
p1905
I4
sV\u56e2\u59d4
p1906
I1
sV\u77e5\u8bc6\u5206\u5b50
p1907
I11
sV\u5ba2\u89c2
p1908
I2
sV\u94b1\u4f1f\u957f
p1909
I1
sV\u6062\u590d
p1910
I1
sV\u975e\u6d32
p1911
I1
sV\u77e5\u8bc6
p1912
I39
sV\u7ea2\u592a\u9633
p1913
I1
sV\u6559\u80b2\u8005
p1914
I2
sV\u4e0d\u5168
p1915
I1
sV\u4e09\u516b
p1916
I1
sV\u5408\u4f5c\u9879\u76ee
p1917
I4
sV\u751f\u5728
p1918
I1
sV\u827a\u672f\u6559\u80b2
p1919
I1
sV\u6c88\u9633\u5e02
p1920
I2
sV\u6587\u5316
p1921
I37
sV\u7ecf\u6d4e\u5efa\u8bbe
p1922
I3
sV\u519c\u4e1a\u5927\u5b66
p1923
I1
sV\u90e8\u7f72
p1924
I1
sV\u6eda\u7ffb
p1925
I1
sV\u73ed\u4e3b\u4efb
p1926
I1
sV\u4f9d\u6258
p1927
I2
sV\u660e\u65e5
p1928
I2
sV\u7237\u7237
p1929
I1
sV\u8db3\u8ff9
p1930
I1
sV\u6447\u7bee
p1931
I2
sV\u8865\u8d34
p1932
I1
sV\u9ad8\u5c1a
p1933
I1
sV\u5148\u53d7
p1934
I2
sV\u738b\u91d1\u534e
p1935
I1
sV\u8bd5\u70b9
p1936
I3
sV\u793a\u8303\u6027
p1937
I1
sV\u7a97\u53e3
p1938
I1
sV\u65b9\u5f0f
p1939
I9
sV\u4e00\u65e5
p1940
I1
sV\u4eba\u6c11\u65e5\u62a5
p1941
I1
sV\u7406\u89e3
p1942
I6
sV\u5927\u8d5b
p1943
I1
sV\u83b7\u6089
p1944
I2
sV\u6821\u98ce
p1945
I3
sV\u6559\u6539
p1946
I1
sV\u7535\u68af
p1947
I1
sV\u5b8f\u56fe
p1948
I1
sV\u5fc5\u8bfb
p1949
I1
sV\u7b26\u5408
p1950
I4
sV\u501f\u4e66
p1951
I1
sV\u63a5\u73ed\u4eba
p1952
I3
sV\u804c\u4e1a
p1953
I45
sV\u7269\u7406
p1954
I1
sV\u8fc7\u5f97
p1955
I1
sV\u5f81\u6c42
p1956
I1
sV\u4e94\u4eba
p1957
I1
sV\u5317\u4eac\u5e02\u7ea2\u5341\u5b57\u4f1a
p1958
I1
sV\u4e2d\u592e\u6587\u4ef6
p1959
I1
sV\u5929\u4e0b\u5174\u4ea1
p1960
I2
sV\u6570\u767e\u4e07
p1961
I1
sV\u53d1\u653e
p1962
I1
sV\u62da\u640f
p1963
I1
sV\u6b4c\u66f2
p1964
I1
sV\u7406\u8bba\u6559\u80b2
p1965
I3
sV\u6761\u4ef6
p1966
I36
sV\u8bc4\u4f30\u6307\u6807
p1967
I1
sV\u505c\u4e0b
p1968
I1
sV\u96be\u5ea6
p1969
I2
sV\u53d6\u957f\u8865\u77ed
p1970
I1
sV\u7ecf\u9a8c
p1971
I23
sV\u7cfb\u5217
p1972
I8
sV\u4e0a\u524d
p1973
I1
sV\u4eba\u95f4
p1974
I1
sV\u519c\u79d1
p1975
I1
sV\u6302\u94a9
p1976
I3
sV\u6c11\u76df
p1977
I1
sV\u56fd\u5185
p1978
I6
sV\u50a8\u5907
p1979
I1
sV\u98ce\u8c8c
p1980
I1
sV\u7f16\u5bfc
p1981
I1
sV\u5404\u9879\u6d3b\u52a8
p1982
I1
sV\u8c03\u67e5\u7814\u7a76
p1983
I3
sV\u773c\u6cea
p1984
I1
sV\u5185\u4e61\u53bf
p1985
I1
sV\u70ed\u5fc3
p1986
I2
sV\u5386\u53f2\u89c2
p1987
I1
sV\u540e\u52e4
p1988
I1
sV\u5404\u884c\u5404\u4e1a
p1989
I4
sV\u674e\u9e4f\u8bf4
p1990
I2
sV\u7a77\u56fd
p1991
I1
sV\u5531\u540d
p1992
I2
sV\u7b7e\u7ea6
p1993
I1
sV\u77e5\u540d
p1994
I3
sV\u9996\u6b21
p1995
I2
sV\u529f\u80fd\u9f50\u5168
p1996
I1
sV\u4e3b\u9898
p1997
I3
sV\u706b\u53ec
p1998
I1
sV\u5b9e\u5728
p1999
I1
sV\u534e\u4e2d\u5e08\u8303\u5927\u5b66
p2000
I1
sV\u7535\u5316
p2001
I1
sV\u5173\u6ce8
p2002
I3
sV\u5bf9\u8bdd
p2003
I3
sV\u8270\u82e6\u521b\u4e1a
p2004
I2
sV\u5de5\u4eba\u9636\u7ea7
p2005
I1
sV\u79cd\u5c5e
p2006
I1
sV\u8feb\u4f7f
p2007
I1
sV\u614e\u91cd
p2008
I1
sV\u4e0a\u89e3
p2009
I2
sV\u795e\u602a
p2010
I2
sV\u9ad8\u5206
p2011
I2
sV\u5916\u56fd\u8bed
p2012
I2
sV\u4e94\u4e2a
p2013
I1
sV\u5206\u6e05
p2014
I1
sV\u5730\u5904
p2015
I2
sV\u727a\u7272
p2016
I1
sV\u56db\u4e94
p2017
I1
sV\u517b\u6210
p2018
I10
sV\u9ad8\u6807\u51c6
p2019
I2
sV\u5c1a\u5b66
p2020
I1
sV\u5e0c\u671b\u5de5\u7a0b
p2021
I2
sV\u4e2d\u8003
p2022
I6
sV\u4ea7\u5b66\u7814
p2023
I2
sV\u5317\u4eac\u821e\u8e48\u5b66\u9662
p2024
I1
sV\u5343\u4eba
p2025
I1
sV\u521d\u7ea7
p2026
I1
sV\u4e25\u683c\u6309\u7167
p2027
I1
sV\u5206\u4e24
p2028
I1
sV\u6821\u95e8
p2029
I3
sV\u5fb7\u80b2\u5de5\u4f5c
p2030
I8
sV\u5218\u4e91\u5c71
p2031
I1
sV\u5317\u4eac\u5e02
p2032
I12
sV\u7701\u957f
p2033
I2
sV\u6bcd\u5b50
p2034
I1
sV\u653f\u51fa\u591a\u95e8
p2035
I1
sV\u6559\u7a0b
p2036
I1
sV\u8c08\u4e0d\u4e0a
p2037
I2
sV\u7559\u8a00
p2038
I1
sV\u53f2\u5b9e
p2039
I1
sV\u6ce8\u91cd
p2040
I3
sV\u5bf9\u6b64
p2041
I3
sV\u68c0\u9a8c
p2042
I1
sV\u6c89\u7538\u7538
p2043
I1
sV\u5236\u9ad8\u70b9
p2044
I1
sV\u6613\u4e8e
p2045
I1
sV\u8bbe\u7f6e
p2046
I2
sV\u611f\u89e6
p2047
I2
sV\u5b66\u672f\u62a5\u544a
p2048
I1
sV\u4ee5\u5fb7
p2049
I1
sV\u7559\u539f\u6821
p2050
I1
sV\u5b66\u4e60
p2051
I67
sV\u4e2d\u7ea7
p2052
I1
sV\u770b\u5f85
p2053
I1
sV\u63a5\u6536\u7ad9
p2054
I4
sV\u8d76\u4e0a
p2055
I1
sV\u56de\u97f3
p2056
I1
sV\u6c42\u52a9
p2057
I2
sV\u535a\u7269\u9986
p2058
I1
sV\u72af\u96be
p2059
I1
sV\u4e09\u4e2a
p2060
I6
sV\u53d1\u5c55\u89c4\u5212
p2061
I1
sV\u7edf\u8ba1
p2062
I3
sV\u7ec4\u6210\u90e8\u5206
p2063
I9
sV\u56e2\u7ed3
p2064
I1
sV\u6cd5\u89c4
p2065
I3
sV\u589e\u5927
p2066
I1
sV\u5b66\u7c4d
p2067
I1
sV\u5f55\u53d6\u7387
p2068
I1
sV\u52b3\u52a8\u529b\u8d44\u6e90
p2069
I3
sV\u5e2d\u4f4d
p2070
I1
sV\u591a\u79cd\u591a\u6837
p2071
I1
sV\u56f4\u7ed5
p2072
I1
sV\u51b3\u7b56
p2073
I2
sV\u5df4\u91d1
p2074
I1
sV\u9ad8\u901f\u516c\u8def
p2075
I1
sV\u5927\u53a6
p2076
I4
sV\u5907\u8bfe
p2077
I1
sV\u5360\u533a
p2078
I1
sV\u5c55\u5ba4
p2079
I1
sV\u6d88\u6781
p2080
I5
sV\u8bb2\u6388
p2081
I2
sV\u6295\u9760
p2082
I1
sV\u56fe\u4e66
p2083
I18
sV\u515a\u56e2\u5458
p2084
I1
sV\u8a00\u4f20
p2085
I2
sV\u8fd8\u540c
p2086
I1
sV\u671d\u9633
p2087
I1
sV\u4e3b\u59d4
p2088
I1
sV\u4e49\u4e0d\u5bb9\u8f9e
p2089
I3
sV\u7fa4\u4f17\u6587\u5316
p2090
I1
sV\u642d\u8d77
p2091
I1
sV\u540c\u7c7b
p2092
I1
sV\u8bef\u533a
p2093
I3
sV\u5f00\u6c34
p2094
I1
sV\u9884\u5907
p2095
I3
sV\u5206\u8fa8
p2096
I1
sV\u5e74\u6765
p2097
I10
sV\u5927\u738b
p2098
I1
sV\u5e08\u5927
p2099
I1
sV\u8fdd\u6cd5\u4e71\u7eaa
p2100
I1
sV\u9053\u8def
p2101
I1
sV\u6bb5\u529b
p2102
I1
sV\u91cd\u70b9\u4e2d\u5b66
p2103
I1
sV\u8d22\u653f
p2104
I2
sV\u8d34\u8fd1
p2105
I1
sV\u6628\u5929
p2106
I4
sV\u5f71\u7247
p2107
I3
sV\u540c\u9f84\u4eba
p2108
I1
sV\u9f50\u5fc3\u534f\u529b
p2109
I1
sV\u4e00\u65c1
p2110
I1
sV\u79d1\u666e
p2111
I1
sV\u96be\u5fd8
p2112
I1
sV\u62b5\u8fbe
p2113
I1
sV\u5de5\u4f5c\u673a\u6784
p2114
I1
sV\u6559\u5ba4
p2115
I2
sV\u81ea\u4e60\u5ba4
p2116
I1
sV\u5f55\u50cf
p2117
I2
sV\u5373\u53ef
p2118
I1
sV\u524d\u63d0
p2119
I3
sV\u5f71\u5267
p2120
I1
sV\u9009\u914d
p2121
I1
sV\u8bae\u4e8b\u65e5\u7a0b
p2122
I2
sV\u534e\u5317
p2123
I1
sV\u56e0\u7d20
p2124
I4
sV\u89c9\u609f
p2125
I3
sV\u9ad8\u6548\u76ca
p2126
I1
sV\u5f00\u53d1\u533a
p2127
I1
sV\u5218\u89c1
p2128
I1
sV\u4e00\u6240
p2129
I2
sV\u9a8c\u6536
p2130
I1
sV\u4e09\u5341
p2131
I3
sV\u62a4\u58eb
p2132
I1
sV\u4e5d\u5341
p2133
I5
sV\u5148\u884c
p2134
I3
sV\u7763\u5bfc
p2135
I8
sV\u897f\u5b89\u5e02
p2136
I1
sV\u970d\u61cb\u5f81
p2137
I1
sV\u52a8\u5458
p2138
I1
sV\u5987\u5973
p2139
I1
sV\u8868\u5f62\u7801
p2140
I1
sV\u540c\u5fd7
p2141
I52
sV\u6709\u5fd7\u4e8e
p2142
I1
sV\u805a\u7126
p2143
I1
sV\u65e0\u6240\u9002\u4ece
p2144
I2
sV\u56db\u767e
p2145
I1
sV\u6559\u5b66
p2146
I42
sV\u9093\u5146\u5b89
p2147
I1
sV\u534f\u529b
p2148
I1
sV\u529e\u73ed
p2149
I1
sV\u5949\u732e
p2150
I2
sV\u4ed4\u7ec6
p2151
I1
sV\u516b\u5c4a\u5168\u56fd\u4eba\u5927
p2152
I1
sV\u8868\u5f70
p2153
I3
sV\u4e00\u6240\u597d
p2154
I1
sV\u8fde\u7eed
p2155
I3
sV\u5174\u529e
p2156
I8
sV\u63aa\u65bd
p2157
I15
sV\u65e5\u8baf
p2158
I4
sV\u75d5\u8ff9
p2159
I1
sV\u4e0a\u8857
p2160
I1
sV\u73af\u5883
p2161
I15
sV\u4e07\u7d2b\u5343\u7ea2
p2162
I1
sV\u4e24\u6821
p2163
I1
sV\u8ddf\u4e0a
p2164
I1
sV\u975e\u667a\u529b\u56e0\u7d20
p2165
I1
sV\u8d37\u6b3e
p2166
I4
sV\u7e41\u8363\u660c\u76db
p2167
I1
sV\u987e\u95ee\u56e2
p2168
I1
sV\u5185\u90e8
p2169
I2
sV\u6211\u884c\u6211\u7d20
p2170
I1
sV\u529f\u8bfe
p2171
I3
sV\u4e00\u4e1a\u4e3a\u4e3b
p2172
I1
sV\u7279\u79cd
p2173
I1
sV\u6625\u79cb
p2174
I1
sV\u654c\u610f
p2175
I1
sV\u89c6\u4e3a
p2176
I2
sV\u624d\u534e
p2177
I2
sV\u9ed8\u9ed8
p2178
I2
sV\u5de5\u5382
p2179
I1
sV\u8fb9\u7f18
p2180
I1
sV\u5b66\u6821\u5efa\u8bbe
p2181
I1
sV\u6bd4\u4f8b
p2182
I4
sV\u81ea\u7acb
p2183
I2
sV\u7c97\u653e\u578b
p2184
I1
sV\u4f20\u7edf\u6587\u5316
p2185
I1
sV\u7efc\u5408
p2186
I3
sV\u6536\u8d39\u6807\u51c6
p2187
I1
sV\u7535\u955c
p2188
I1
sV\u666e\u53ca
p2189
I4
sV\u62a2\u5360
p2190
I1
sV\u4e89\u4f5c
p2191
I1
sV\u6559\u98ce
p2192
I2
sV\u804c\u4e1a\u9053\u5fb7
p2193
I3
sV\u8c03\u5242
p2194
I1
sV\u5206\u7c7b\u6cd5
p2195
I1
sV\u6f14\u5230
p2196
I1
sV\u5757\u5757
p2197
I1
sV\u4e4b\u5730
p2198
I2
sV\u529e\u7406
p2199
I1
sV\u9010\u4e2a
p2200
I1
sV\u53d8\u5f97
p2201
I1
sV\u542f\u53d1
p2202
I2
sV\u6587\u4ef6
p2203
I2
sV\u65b9\u53ef
p2204
I1
sV\u5408\u683c
p2205
I8
sV\u79d1\u6559\u5174\u56fd
p2206
I5
sV\u7389\u7c73
p2207
I1
sV\u5b66\u5e9c
p2208
I2
sV\u5de5\u85aa\u9636\u5c42
p2209
I1
sV\u808c\u8089
p2210
I1
sV\u6e20\u9053
p2211
I4
sV\u7ec4\u5efa
p2212
I2
sV\u6559\u80b2\u65b9\u9488
p2213
I4
sV\u4eba\u6c11\u5927\u4f1a\u5802
p2214
I1
sV\u52a0\u5dde
p2215
I1
sV\u4e2d\u5c06
p2216
I1
sV\u4e03\u540d
p2217
I1
sV\u4e2d\u5ba3\u90e8
p2218
I6
sV\u51e0\u4e2a\u95ee\u9898
p2219
I1
sV\u52b3\u6539
p2220
I1
sV\u671b\u53f0
p2221
I4
sV\u4eea\u5668
p2222
I1
sV\u66fe\u5e86\u7ea2
p2223
I1
sV\u7f57\u4f1f
p2224
I1
sV\u8d1f\u62c5
p2225
I6
sV\u633a\u8d77
p2226
I1
sV\u9762\u5bf9
p2227
I1
sV\u4eb2\u53cb
p2228
I5
sV\u5e74\u524d
p2229
I4
sV\u4e0a\u8bfe
p2230
I1
sV\u65e9\u671f
p2231
I1
sV\u79d1\u6559
p2232
I1
sV\u5f55\u53d6
p2233
I9
sV\u8c03\u67e5\u8868
p2234
I1
sV\u5b9e\u7528
p2235
I4
sV\u594b\u53d1\u52aa\u529b
p2236
I1
sV\u6768\u4e49
p2237
I1
sV\u5e26\u9886
p2238
I1
sV\u6446\u5728
p2239
I2
sV\u5f20\u671b
p2240
I1
sV\u4e00\u9879
p2241
I8
sV\u5efa\u6210
p2242
I4
sV\u8fdd\u6cd5
p2243
I4
sV\u6821\u515a\u59d4
p2244
I1
sV\u590d\u4e60
p2245
I1
sV\u89d2\u8272
p2246
I3
sV\u6559\u80b2\u5b66\u9662
p2247
I1
sV\u591a\u4efd\u53d1
p2248
I1
sV\u5185\u5fc3
p2249
I1
sV\u5341\u4e00\u5c4a\u4e09\u4e2d\u5168\u4f1a
p2250
I1
sV\u9ad8\u901f
p2251
I1
sV\u513f\u7ae5\u5fc3\u7406\u5b66
p2252
I1
sV\u5343\u65b9\u767e\u8ba1
p2253
I1
sV\u5f00\u8f9f
p2254
I1
sV\u5b66\u751f\u57f9\u517b
p2255
I1
sV\u7236\u5b50
p2256
I2
sV\u5c71\u897f\u7701\u4eba\u6c11\u653f\u5e9c
p2257
I1
sV\u5ed6\u5148\u65fa
p2258
I2
sV\u57f9\u517b\u9ad8
p2259
I1
sV\u7814\u7a76\u673a\u6784
p2260
I1
sV\u5148\u5929\u4e0b\u4e4b\u5fe7\u800c\u5fe7
p2261
I2
sV\u62a5\u8003
p2262
I3
sV\u7f16\u6392
p2263
I1
sV\u5171\u7ba1
p2264
I1
sV\u6d77\u5916
p2265
I2
sV\u6559\u804c\u5de5
p2266
I1
sV\u8f83\u957f
p2267
I2
sV\u4e3b\u7f16
p2268
I2
sV\u5218\u5fb7\u6709
p2269
I1
sV\u515a\u603b\u652f
p2270
I1
sV\u593a\u5f97
p2271
I1
sV\u9884\u9632
p2272
I1
sV\u9274\u522b
p2273
I1
sV\u4e00\u90e8\u5206
p2274
I3
sV\u5b66\u5e74
p2275
I1
sV\u672c\u804c
p2276
I1
sV\u5168\u5957
p2277
I1
sV\u6b64\u8bfe
p2278
I1
sV\u884c\u653f\u7ba1\u7406
p2279
I1
sV\u5173\u4e4e
p2280
I1
sV\u8272\u5f69
p2281
I1
sV\u6708\u5b63
p2282
I1
sV\u6559\u7814
p2283
I2
sV\u7855\u58eb\u751f
p2284
I1
sV\u8c03\u52a8
p2285
I4
sV\u529e\u5b66\u7279\u8272
p2286
I1
sV\u5b66\u6742\u8d39
p2287
I2
sV\u51e0\u4f4d
p2288
I2
sV\u516c\u5fb7
p2289
I58
sV\u51b6\u91d1\u90e8
p2290
I1
sV\u5e94\u5c4a
p2291
I4
sV\u81ea\u6cbb\u533a
p2292
I3
sV\u5361\u901a
p2293
I1
sV\u7ecf\u6d4e\u5de5\u4f5c
p2294
I1
sV\u5c11\u5e74\u5bab
p2295
I1
sV\u52a9\u4eba\u4e3a\u4e50
p2296
I1
sV\u77e5\u540d\u5ea6
p2297
I1
sV\u5efa\u7b51\u7c7b
p2298
I1
sV\u53bf\u5e02
p2299
I1
sV\u7167\u987e
p2300
I1
sV\u8f6c\u884c
p2301
I1
sV\u5ba3\u4f20
p2302
I16
sV\u5236\u8ba2
p2303
I3
sV\u8d21\u732e
p2304
I14
sV\u5929\u5929
p2305
I1
sV\u5411\u5de5
p2306
I1
sV\u738b\u5d07\u4f26
p2307
I1
sV\u5b66\u4e60\u73ed
p2308
I2
sV\u8fc4\u4eca
p2309
I1
sV\u5de5\u5177
p2310
I1
sV\u5f62\u52bf
p2311
I3
sV\u6559\u59d4
p2312
I3
sV\u4e00\u591c
p2313
I1
sV\u529e\u516c\u5ba4
p2314
I1
sV\u5b8b\u5e73
p2315
I1
sV\u6bd4\u8d5b
p2316
I10
sV\u5b66\u5f97
p2317
I1
sV\u518d\u7248\u4e66
p2318
I1
sV\u5f00\u73a9\u7b11
p2319
I1
sV\u5c71\u533a
p2320
I2
sV\u5927\u5199
p2321
I1
sV\u706b\u70ac
p2322
I1
sV\u95ee\u597d
p2323
I1
sV\u6559\u5b66\u697c
p2324
I2
sV\u6b27\u7f8e
p2325
I1
sV\u5ba1\u5b9a
p2326
I1
sV\u58ee\u89c2
p2327
I1
sV\u53d1\u660e
p2328
I2
sV\u7ade\u76f8
p2329
I1
sV\u5e74\u903e\u53e4\u7a00
p2330
I1
sV\u5802\u800c\u7687\u4e4b
p2331
I1
sV\u653e\u677e
p2332
I2
sV\u73ed\u5b50\u5efa\u8bbe
p2333
I1
sV\u75fc\u75be
p2334
I1
sV\u674e\u9526
p2335
I1
sV\u83b7\u5f97\u8005
p2336
I1
sV\u4e3b\u7ba1
p2337
I1
sV\u4e00\u5957
p2338
I4
sV\u6574\u5408
p2339
I1
sV\u710a\u63a5
p2340
I1
sV\u526f\u4e3b\u4efb
p2341
I4
sV\u5728\u6821
p2342
I5
sV\u4e2d\u592e\u97f3\u4e50\u5b66\u9662
p2343
I1
sV\u62cd\u7247
p2344
I1
sV\u8d76\u8d85
p2345
I1
sV\u5357\u6a21
p2346
I2
sV\u52a0\u5370
p2347
I1
sV\u6f58\u5b63
p2348
I1
sV\u9635\u5730
p2349
I4
sV\u5e08\u8303\u6559\u80b2
p2350
I5
sV\u5bfb\u6c42
p2351
I3
sV\u6210\u4e0d\u4e86
p2352
I1
sV\u73b0\u8c61
p2353
I7
sV\u4e60\u4ef2\u52cb
p2354
I1
sV\u8ba8\u538c
p2355
I1
sV\u5168\u6c11\u65cf
p2356
I2
sV\u538b\u529b
p2357
I5
sV\u7ecf\u6d4e\u53d1\u5c55
p2358
I7
sV\u8463\u4e8b\u4f1a
p2359
I1
sV\u53d1\u8fbe\u56fd\u5bb6
p2360
I2
sV\u4e00\u597d
p2361
I1
sV\u8c03\u53ca
p2362
I2
sV\u96c6\u4f53
p2363
I23
sV\u8c31\u6cd5
p2364
I1
sV\u5c55\u793a
p2365
I2
sV\u51e0\u4e2a
p2366
I3
sV\u89c1\u5230
p2367
I1
sV\u540e\u8fdb\u751f
p2368
I1
sV\u4eb2\u5207
p2369
I3
sV\u52a3\u52bf
p2370
I1
sV\u6587\u90e8\u5927\u81e3
p2371
I2
sV\u4e0a\u9ad8
p2372
I1
sV\u5218\u8bd7
p2373
I1
sV\u5c40\u9762
p2374
I7
sV\u529e\u51fa
p2375
I2
sV\u61a7\u61ac
p2376
I1
sV\u51e0\u4e07
p2377
I1
sV\u8d77\u7801
p2378
I5
sV\u827a\u672f\u6027
p2379
I1
sV\u8865\u5145
p2380
I1
sV\u591a\u6765
p2381
I1
sV\u79d1\u5b66\u5b9e\u9a8c
p2382
I1
sV\u7ecf\u9a8c\u4e30\u5bcc
p2383
I1
sV\u5229\u76ca
p2384
I14
sV\u8d2f\u5f7b
p2385
I24
sV\u6c38\u751f
p2386
I2
sV\u753b\u5e45
p2387
I2
sV\u544a\u8beb
p2388
I1
sV\u4e5d\u516d
p2389
I1
sV\u7f51\u7edc\u7cfb\u7edf
p2390
I1
sV\u8305\u4ee5\u5347
p2391
I1
sV\u5e26\u5934
p2392
I1
sV\u56de\u53bb
p2393
I2
sV\u4e60\u60ef
p2394
I8
sV\u4e00\u79cd
p2395
I11
sV\u5d07\u6587
p2396
I1
sV\u5206\u6d41
p2397
I5
sV\u767e\u4e2a
p2398
I2
sV\u591a\u671f
p2399
I1
sV\u5415\u5176\u660c
p2400
I1
sV\u4eba\u7c7b
p2401
I8
sV\u8001\u751f
p2402
I1
sV\u96c6\u4f53\u4e3b\u4e49
p2403
I19
sV\u516c\u7ea6
p2404
I3
sV\u9ad8\u5e74\u7ea7
p2405
I1
sV\u5bfc\u6f14
p2406
I2
sV\u4e89\u4eba
p2407
I1
sV\u5f31\u667a
p2408
I1
sV\u653f\u7b56\u6027
p2409
I1
sV\u539f\u7406
p2410
I2
sV\u6559\u80b2\u5c40
p2411
I4
sV\u501f\u9274
p2412
I1
sV\u63a5\u66ff
p2413
I1
sV\u4e07\u4eba
p2414
I6
sV\u6c5f\u6cfd\u6c11
p2415
I19
sV\u674e\u5b8f\u4f1f
p2416
I2
sV\u6240\u6536
p2417
I1
sV\u4e9f\u5f85\u89e3\u51b3
p2418
I1
sV\u601d\u60f3\u6559\u80b2
p2419
I7
sV\u5b66\u5386\u6587\u51ed
p2420
I1
sV\u6559\u80b2\u7406\u8bba
p2421
I2
sV\u8f93\u9001
p2422
I3
sV\u5c0f\u5b66\u751f
p2423
I3
sV\u7cfb\u91cc
p2424
I1
sV\u5e08\u8303\u5b66\u6821
p2425
I2
sV\u8363\u8a89\u8bc1\u4e66
p2426
I1
sV\u5165\u56ed\u7387
p2427
I1
sV\u7f72\u957f
p2428
I1
sV\u591a\u679a
p2429
I1
sV\u5de5\u4f5c\u89c4\u5212
p2430
I1
sV\u8fd9\u5341
p2431
I1
sV\u6559\u7ec3
p2432
I1
sV\u9996\u4f4d
p2433
I2
sV\u5fb7\u624d\u517c\u5907
p2434
I1
sV\u6559\u7ed9
p2435
I1
sV\u5173\u5fc3
p2436
I20
sV\u6210\u5c31
p2437
I2
sV\u8857\u9053
p2438
I7
sV\u7f13\u6162
p2439
I1
sV\u9a6c\u514b\u601d\u5217\u5b81\u4e3b\u4e49
p2440
I2
sV\u573a\u5730
p2441
I1
sV\u6559\u80b2\u5bb6
p2442
I4
sV\u8881\u8d35\u4ec1
p2443
I2
sV\u955c\u5934
p2444
I1
sV\u672c\u79d1\u751f
p2445
I3
sV\u529b\u6240\u80fd\u53ca
p2446
I1
sV\u6258\u7ba1
p2447
I3
sV\u529b\u5f3a
p2448
I1
sV\u670d\u4ece
p2449
I4
sV\u8f6c\u8f68
p2450
I2
sV\u7b2c\u4e00\u7ebf
p2451
I7
sV\u500d\u53d7
p2452
I1
sV\u515a\u653f
p2453
I1
sV\u83b7\u76ca\u532a\u6d45
p2454
I1
sV\u9605\u8bfb
p2455
I3
sV\u773c\u5df4\u5df4
p2456
I1
sV\u9000\u4f11
p2457
I3
sV\u5e08\u8303\u9662\u6821
p2458
I3
sV\u591a\u6837\u5316
p2459
I3
sV\u4e66\u5305
p2460
I2
sV\u9009\u9898
p2461
I1
sV\u592b\u5987
p2462
I1
sV\u8d22\u52a1
p2463
I1
sV\u82e6\u6d77
p2464
I1
sV\u4f18\u60e0\u4ef7
p2465
I1
sV\u7cbe\u795e\u6587\u660e
p2466
I28
sV\u5357\u6d0b
p2467
I1
sV\u521b\u529e
p2468
I5
sV\u8001\u5e72\u90e8
p2469
I1
sV\u9020\u5c31
p2470
I3
sV\u5927\u718a\u732b
p2471
I1
sV\u9762\u5df2
p2472
I1
sV\u515a\u59d4
p2473
I14
sV\u5b5d\u611f\u5e02
p2474
I1
sV\u5f53\u5bb6\u505a\u4e3b
p2475
I2
sV\u6743\u9650
p2476
I1
sV\u6731\u667a\u5802
p2477
I1
sV\u638f\u94b1
p2478
I1
sV\u63a8\u5fc3\u7f6e\u8179
p2479
I1
sV\u5148\u8fdb\u4e8b\u8ff9
p2480
I1
sV\u53c2\u52a0
p2481
I20
sV\u4e4b\u9645
p2482
I1
sV\u6f14\u5458
p2483
I15
sV\u4f34\u968f
p2484
I2
sV\u5e73\u65f6
p2485
I2
sV\u8f68\u9053
p2486
I2
sV\u6b21\u4e4b
p2487
I1
sV\u6750\u6599
p2488
I1
sV\u7f51\u7edc
p2489
I5
sV\u6c11\u529e
p2490
I19
sV\u6f14\u5531
p2491
I1
sV\u4e8b\u4e1a\u5fc3
p2492
I1
sV\u65b0\u52a0\u5761
p2493
I1
sV\u535a\u58eb\u751f
p2494
I1
sV\u8bfe\u540e
p2495
I2
sV\u9e7f\u53d6
p2496
I1
sV\u592b\u59bb
p2497
I1
sV\u6276\u6b8b\u52a9\u6b8b
p2498
I1
sV\u8d22\u529b
p2499
I1
sV\u8865\u4e60\u73ed
p2500
I1
sV\u7528\u5f97\u4e0a
p2501
I1
sV\u4f53\u59d4
p2502
I1
sV\u96d5\u5851
p2503
I1
sV\u8868\u73b0
p2504
I1
sV\u8bd7\u6b4c
p2505
I1
sV\u4fe8\u7136
p2506
I1
sV\u6df7\u4e71
p2507
I4
sV\u51fa\u53e3
p2508
I3
sV\u6258\u513f\u6240
p2509
I3
sV\u7b80\u6613
p2510
I2
sV\u53ea\u4e3a
p2511
I2
sV\u5f55\u7528
p2512
I1
sV\u7814\u8ba8
p2513
I2
sV\u51fa\u53f0
p2514
I1
sV\u8f6c\u53f0
p2515
I1
sV\u94b1\u6653\u9e23
p2516
I1
sV\u9a6c\u5217
p2517
I1
sV\u5168\u6c11\u6240\u6709\u5236
p2518
I1
sV\u989c\u8272
p2519
I1
sV\u4e00\u7ea7
p2520
I2
sV\u4e4b\u5185
p2521
I1
sV\u5904\u957f
p2522
I1
sV\u673a\u6784
p2523
I9
sV\u4e5d\u767e
p2524
I1
sV\u6b4c\u624b
p2525
I1
sV\u7533\u62a5
p2526
I1
sV\u81ea\u5f8b
p2527
I11
sV\u51fa\u53d1
p2528
I2
sV\u5c55\u89c8
p2529
I3
sV\u6559\u5e08
p2530
I74
sV\u7559\u4e0b
p2531
I2
sV\u5927\u5168
p2532
I5
sV\u5206\u4e4b\u4e00
p2533
I1
sV\u5357\u6eaa\u9547
p2534
I1
sV\u6f14\u8bb2
p2535
I2
sV\u4f8b\u8bc1
p2536
I1
sV\u62c5\u5fc3
p2537
I1
sV\u536b\u661f\u7535\u89c6
p2538
I6
sV\u540d\u526f\u5176\u5b9e
p2539
I1
sV\u732e\u7ed9
p2540
I2
sV\u8881\u4e49\u6c9b
p2541
I1
sV\u7ec8\u4e8e
p2542
I2
sV\u8058\u8bc4
p2543
I1
sV\u8877\u5fc3
p2544
I1
sV\u5021\u5bfc
p2545
I4
sV\u6cdb\u6ee5\u6210\u707e
p2546
I1
sV\u542f\u8fea
p2547
I1
sV\u5c79\u7acb
p2548
I1
sV\u57fa\u91d1\u4f1a
p2549
I2
sV\u5e78\u798f
p2550
I1
sV\u542f\u7528
p2551
I1
sV\u5408\u683c\u7387
p2552
I1
sV\u4e0a\u6d77
p2553
I26
sV\u8fd9\u5957
p2554
I1
sV\u5236\u4f5c
p2555
I1
sV\u77e2\u5fd7
p2556
I1
sV\u4e3e\u91cd
p2557
I1
sV\u5916\u8d38
p2558
I8
sV\u51cf\u8f7b
p2559
I1
sV\u4e0a\u6d77\u5e02
p2560
I6
sV\u6d59\u6c5f\u519c\u4e1a\u5927\u5b66
p2561
I2
sV\u98ce\u6c14
p2562
I2
sV\u5355\u5143
p2563
I1
sV\u4f7f\u56db\u80b2
p2564
I1
sV\u4e03\u5341
p2565
I5
sV\u4e2d\u7b49
p2566
I20
sV\u4e09\u6bd4
p2567
I1
sV\u7269\u4ef7
p2568
I1
sV\u54c8\u5c14\u6ee8
p2569
I1
sV\u6ca1\u94b1
p2570
I2
sV\u72b6\u51b5
p2571
I14
sV\u5c11\u5148\u961f\u5458
p2572
I7
sV\u6258\u5e7c\u56ed\u6240
p2573
I1
sV\u6587\u4f53
p2574
I1
sV\u52a0\u91cd
p2575
I1
sV\u4fdd\u5065
p2576
I2
sV\u6559\u80b2\u5de5\u4f5c\u8005
p2577
I7
sV\u4e2d\u5b66
p2578
I16
sV\u97f3\u4e50\u6559\u5b66
p2579
I1
sV\u4f18\u826f
p2580
I4
sV\u56de\u5230
p2581
I1
sV\u6821\u820d
p2582
I6
sV\u5bf9\u4e86
p2583
I1
sV\u9aa8\u5e72
p2584
I7
sV\u9ad8\u6280\u672f
p2585
I1
sV\u5173\u76d1\u95ed
p2586
I1
sV\u4e4b\u9014
p2587
I1
sV\u4e0d\u60dc
p2588
I3
sV\u5927\u578b
p2589
I4
sV\u539f\u6821
p2590
I4
sV\u4e13\u573a
p2591
I1
sV\u515a\u98ce
p2592
I1
sV\u673a\u5173\u5e72\u90e8
p2593
I1
sV\u5927\u60d1\u4e0d\u89e3
p2594
I1
sV\u5fc5\u5148
p2595
I1
sV\u5408\u4f5c
p2596
I10
sV\u5e7c\u513f
p2597
I6
sV\u6068\u4e0d\u5f97
p2598
I1
sV\u8d23\u4efb
p2599
I31
sV\u4e0d\u5408\u683c\u8005
p2600
I1
sV\u81ea\u7136\u754c
p2601
I2
sV\u4e8e\u5e86\u81e3
p2602
I1
sV\u6559\u5f97
p2603
I2
sV\u6bb7\u5207
p2604
I1
sV\u5b66\u79d1
p2605
I3
sV\u5434\u56fd
p2606
I2
sV\u4eba\u5927\u5e38\u59d4\u4f1a
p2607
I1
sV\u5bfc\u81f4
p2608
I2
sV\u91d1\u5a5a
p2609
I1
sV\u98ce\u4fd7\u4e60\u60ef
p2610
I1
sV\u7d27\u5bc6
p2611
I2
sV\u8bbe\u7acb
p2612
I4
sV\u505c\u6b62
p2613
I1
sV\u6cbb\u7406
p2614
I4
sV\u7ef4\u62a4
p2615
I5
sV\u4f1f\u5f1f
p2616
I1
sV\u9752\u5c11\u5e74
p2617
I42
sV\u968f\u5904
p2618
I1
sV\u6977\u6a21
p2619
I2
sV\u4e00\u5f8b
p2620
I1
sV\u62db\u5f97\u8fdb
p2621
I1
sV\u62fc\u547d
p2622
I1
sV\u91d1\u5be8\u53bf
p2623
I1
sV\u6f58\u6d69\u7ff0
p2624
I5
sV\u7ade\u4e89
p2625
I7
sV\u4fdd\u8bc1
p2626
I13
sV\u4e09\u5341\u56db
p2627
I1
sV\u51b3\u5fc3
p2628
I1
sV\u821e\u53f0\u5267
p2629
I2
sV\u8fc7\u7a0b
p2630
I1
sV\u6570\u91cf
p2631
I6
sV\u4f9d\u8d56\u611f
p2632
I1
sV\u4e13\u5bb6\u5b66\u8005
p2633
I2
sV\u6c42\u77e5
p2634
I1
sV\u751f\u6d3b
p2635
I38
sV\u671f\u95f4
p2636
I5
sV\u5165\u624b
p2637
I5
sV\u4e03\u4eba
p2638
I1
sV\u7ae5\u9053\u660e
p2639
I1
sV\u8da3\u5473\u6027
p2640
I1
sV\u5143\u5e05
p2641
I1
sV\u6210\u679c
p2642
I6
sV\u79d1\u6280
p2643
I5
sV\u529b\u5ea6
p2644
I2
sV\u5927\u7701
p2645
I1
sV\u4ee3\u7406\u5236
p2646
I1
sV\u8427\u660e
p2647
I2
sV\u589e\u8fdb
p2648
I1
sV\u5f88\u5927
p2649
I12
sV\u8d44\u6e90\u5171\u4eab
p2650
I1
sV\u53ea\u80fd
p2651
I3
sV\u516b\u5341
p2652
I1
sV\u827a\u672f
p2653
I18
sV\u5916\u56fd\u4eba
p2654
I1
sV\u4e2d\u5171\u4e2d\u592e
p2655
I3
sV\u51c6\u5219
p2656
I3
sV\u7edf\u7b79\u517c\u987e
p2657
I1
sV\u6559\u5e08\u961f\u4f0d
p2658
I5
sV\u7acb\u526f
p2659
I1
sV\u9a6c\u514b\u601d\u4e3b\u4e49
p2660
I7
sV\u9886\u57df
p2661
I3
sV\u987a\u53e3\u6e9c
p2662
I1
sV\u5ef6\u6cb3
p2663
I1
sV\u5e74\u7ea7
p2664
I5
sV\u5927\u4e2d\u4e13
p2665
I1
sV\u53cd\u5bf9
p2666
I8
sV\u5230\u4f4d
p2667
I3
sV\u5f52\u6cfd\u8083
p2668
I1
sV\u72b6\u5143
p2669
I1
sV\u52aa\u529b
p2670
I19
sV\u804c\u540e
p2671
I1
sV\u5e94\u7b54
p2672
I2
sV\u6d3b\u52a8\u5ba4
p2673
I1
sV\u7fa1\u6155
p2674
I1
sV\u767d\u6c42\u6069
p2675
I2
sV\u79d1\u7814\u5355\u4f4d
p2676
I1
sV\u4e3a\u6570\u4f17\u591a
p2677
I1
sV\u8001\u533a
p2678
I4
sV\u793e\u533a\u6559\u80b2
p2679
I1
sV\u5148\u8fdb
p2680
I14
sV\u793e\u4f1a\u53d1\u5c55
p2681
I13
sV\u804c\u524d
p2682
I1
sV\u9605\u89c8
p2683
I1
sV\u516b\u6240
p2684
I1
sV\u6c47\u6210
p2685
I1
sV\u653b\u8bfb
p2686
I1
sV\u751f\u6e90
p2687
I1
sV\u65b9\u9488\u653f\u7b56
p2688
I2
sV\u4e2d\u6587\u7cfb
p2689
I1
sV\u53d1\u6325
p2690
I17
sV\u56fd\u5bb6\u81ea\u7136\u79d1\u5b66\u5956
p2691
I1
sV\u5fc5\u4fee\u8bfe
p2692
I3
sV\u96be\u9898
p2693
I1
sV\u6279\u4e0b
p2694
I1
sV\u4e03\u4f4d
p2695
I1
sV\u59d4\u6258
p2696
I1
sV\u6539\u9769\u5f00\u653e
p2697
I9
sV\u5c0f\u767e\u79d1
p2698
I1
sV\u77db\u76fe
p2699
I3
sV\u6559\u80b2\u9986
p2700
I1
sV\u4e2d\u7b49\u6559\u80b2
p2701
I3
sV\u81ea\u5b66\u8003\u8bd5
p2702
I1
sV\u83b7\u5956
p2703
I1
sV\u8bed\u8a00
p2704
I1
sV\u6211\u4ec5
p2705
I1
sV\u5965\u79d8
p2706
I1
sV\u5468\u6069\u6765
p2707
I1
sV\u751f\u4ea7
p2708
I17
sV\u516b\u70b9
p2709
I2
sV\u7b49\u7ea7
p2710
I1
sV\u6240\u80fd
p2711
I1
sV\u540c\u5b66
p2712
I12
sV\u6b3e\u9879
p2713
I1
sV\u7ade\u8d5b
p2714
I3
sV\u897f\u5b89
p2715
I2
sV\u8212\u9002
p2716
I2
sV\u955c\u5b50
p2717
I2
sV\u6295\u5f71
p2718
I1
sV\u4e3b\u7ebf
p2719
I2
sV\u674e\u9521\u94ed
p2720
I3
sV\u542c\u53d6
p2721
I1
sV\u5c0f\u72d7
p2722
I1
sV\u9a6c\u80cc
p2723
I1
sV\u79d1\u5b66\u7ba1\u7406
p2724
I1
sV\u6b4c\u9882
p2725
I1
sV\u6d3b\u6cfc
p2726
I1
sV\u7262\u56fa
p2727
I2
sV\u5341\u5e74
p2728
I2
sV\u6620\u5c04
p2729
I1
sV\u6709\u8d56\u4e8e
p2730
I1
sV\u603b\u989d
p2731
I1
sV\u540c\u7b49
p2732
I1
sV\u5347\u5b66
p2733
I15
sV\u547c\u5401
p2734
I3
sV\u6559\u80b2\u79d1
p2735
I1
sV\u627f\u62c5
p2736
I8
sV\u76f8\u6096
p2737
I1
sV\u5668\u6750
p2738
I1
sV\u5341\u6708
p2739
I1
sV\u4e3b\u5e72
p2740
I1
sV\u6587\u5b66\u827a\u672f
p2741
I1
sV\u6885\u4ece
p2742
I1
sV\u519c\u6751
p2743
I15
sV\u63d0\u51fa
p2744
I32
sV\u4e8c\u662f
p2745
I3
sV\u5b9e\u9a8c\u4e2d\u5fc3
p2746
I1
sV\u5f69\u8272
p2747
I6
sV\u4e16\u884c
p2748
I8
sV\u8bf1\u5bfc
p2749
I2
sV\u4fb5\u541e
p2750
I1
sV\u5317\u4eac\u5e02\u5987\u8054
p2751
I2
sV\u5c81\u5165\u5b66
p2752
I1
sV\u5199\u6210
p2753
I1
sV\u4f59\u5e74\u6765
p2754
I1
sV\u6210\u5957\u8bbe\u5907
p2755
I1
sV\u4e00\u5473
p2756
I1
sV\u897f\u5317
p2757
I1
sV\u5b9d\u5b9d
p2758
I1
sV\u5e7f\u9614
p2759
I1
sV\u5916\u8f6c
p2760
I1
sV\u59d4\u5458\u4f1a
p2761
I6
sV\u6c47\u62a5
p2762
I1
sV\u5982\u4e00\u65e5
p2763
I1
sV\u5b66\u7a0b
p2764
I1
sV\u5f00\u8bbe
p2765
I7
sV\u76f8\u8054
p2766
I1
sV\u8bbe\u5907
p2767
I2
sV\u5168\u5fc3\u5168\u610f
p2768
I2
sV\u52a0\u5927
p2769
I4
sV\u4e2d\u56fd\u5173\u5fc3\u4e0b\u4e00\u4ee3\u5de5\u4f5c\u59d4\u5458\u4f1a
p2770
I4
sV\u4f53\u4f1a
p2771
I3
sV\u5947\u8c08\u602a\u8bba
p2772
I1
sV\u5408\u6cd5
p2773
I2
sV\u8bb8\u8bfa
p2774
I1
sV\u7269\u8d28
p2775
I6
sV\u504f\u50fb
p2776
I1
sV\u5b9e\u884c
p2777
I15
sV\u4e3a\u671f
p2778
I1
sV\u5317\u4eac\u5e08\u8303\u5927\u5b66
p2779
I1
sV\u8868\u6f14\u8d5b
p2780
I1
sV\u8f96\u533a
p2781
I1
sV\u4e3b\u5e2d
p2782
I3
sV\u603b\u5de5\u4f1a
p2783
I1
sV\u6587\u5316\u90e8
p2784
I4
sV\u4e00\u672c
p2785
I1
sV\u5c0f\u578b
p2786
I1
sV\u52e4\u594b
p2787
I4
sV\u65b9\u660e
p2788
I1
sV\u897f\u5357
p2789
I6
sV\u5f88\u82e6
p2790
I1
sV\u517c\u4f9b
p2791
I1
sV\u5185\u5bb9
p2792
I29
sV\u6218\u7ebf
p2793
I1
sV\u589e\u52a0
p2794
I8
sV\u4e0a\u6d77\u5e02\u59d4
p2795
I1
sV\u6b65\u4f10
p2796
I1
sV\u4eba\u6c11\u6559\u80b2\u51fa\u7248\u793e
p2797
I1
sV\u8bef\u8ba4\u4e3a
p2798
I1
sV\u5047\u671f
p2799
I2
sV\u81f3\u5c11
p2800
I2
sV\u6b4c\u5531
p2801
I1
sV\u8001\u4e00\u8f88
p2802
I1
sV\u8bc1\u660e
p2803
I2
sV\u9274\u8d4f
p2804
I1
sV\u89c2\u5bdf\u529b
p2805
I1
sV\u5b9e\u9645\u4e0a
p2806
I4
sV\u514b\u670d
p2807
I2
sV\u8054\u5408\u56fd\u513f\u57fa\u4f1a
p2808
I1
sV\u8bb0\u8005
p2809
I39
sV\u6295\u5165
p2810
I8
sV\u5e94\u8058
p2811
I1
sV\u57f9\u80b2
p2812
I1
sV\u5fc3\u5f97
p2813
I1
sV\u8fd8\u5e94
p2814
I2
sV\u9009\u5bf9
p2815
I1
sV\u63a8\u8fdb
p2816
I2
sV\u793e\u4f1a
p2817
I172
sV\u534f\u540c
p2818
I1
sV\u5c0f\u5b66\u6559\u5e08
p2819
I1
sV\u520a\u64ad
p2820
I2
sV\u6267\u6559
p2821
I1
sV\u5404\u6821
p2822
I4
sV\u9891\u7e41
p2823
I1
sV\u8096\u4f73
p2824
I1
sV\u72ec\u751f\u5b50\u5973
p2825
I3
sV\u7814\u7a76\u4e2d\u5fc3
p2826
I1
sV\u4eba\u5458\u57f9\u8bad
p2827
I1
sV\u6c5f\u82cf\u7701
p2828
I1
sV\u62b5\u89e6
p2829
I1
sV\u5efa\u6750
p2830
I1
sV\u4f18\u79c0
p2831
I15
sV\u6619\u82b1\u4e00\u73b0
p2832
I1
sV\u5171\u540c\u70b9
p2833
I1
sV\u8fbd\u5b81\u7701
p2834
I6
sV\u591a\u65b9\u9762
p2835
I5
sV\u8f6c\u8c03
p2836
I1
sV\u9aa8\u9abc
p2837
I1
sV\u4eba\u58eb
p2838
I4
sV\u505a\u4eba
p2839
I1
sV\u6210\u4eba\u4e2d\u4e13
p2840
I1
sV\u4e1a\u4f59
p2841
I1
sV\u547c\u5524
p2842
I6
sV\u8fd8\u7ed9
p2843
I2
sV\u671d\u9633\u533a
p2844
I11
sV\u5728\u6821\u751f
p2845
I6
sV\u6d3b\u52a8
p2846
I58
sV\u8bba\u8ff0
p2847
I6
sV\u53d1\u626c
p2848
I11
sV\u5e7c\u513f\u6559\u80b2
p2849
I1
sV\u6446\u5230
p2850
I2
sV\u52a8\u529b
p2851
I5
sV\u9f13\u821e
p2852
I1
sV\u8f7d\u4f53
p2853
I2
sV\u4e2d\u592e
p2854
I4
sV\u515a\u7ae0
p2855
I3
sV\u56fd\u5bb6\u6559\u80b2\u59d4\u5458\u4f1a
p2856
I1
sV\u53ef\u4e00\u4e0a
p2857
I1
sV\u4e3b\u52a8\u6027
p2858
I1
sV\u5355\u5149\u9f10
p2859
I2
sV\u5c0a\u957f
p2860
I1
sV\u5de5\u4f5c\u6210\u7ee9
p2861
I1
sV\u6210\u6548
p2862
I6
sV\u5bf9\u5916\u4ea4\u6d41
p2863
I1
sV\u5229\u7528\u7387
p2864
I1
sV\u4e88\u4ee5
p2865
I3
sV\u6d3b\u52a8\u6708
p2866
I1
sV\u843d\u5b9e
p2867
I10
sV\u7406\u5316
p2868
I1
sV\u4e00\u5343
p2869
I1
sV\u53d6\u6d88
p2870
I1
sV\u516c\u7acb
p2871
I1
sV\u8f90\u5c04\u6e90
p2872
I1
sV\u6559\u5b66\u4efb\u52a1
p2873
I1
sV\u4eba\u751f\u89c2
p2874
I9
sV\u5e02\u6c11
p2875
I4
sV\u8d1f\u6709
p2876
I1
sV\u5171\u5e86
p2877
I1
sV\u5ba3\u8bb2
p2878
I1
sV\u4e0a\u4e07
p2879
I1
sV\u5bb6\u957f\u6559\u80b2
p2880
I1
sV\u5f00\u6398
p2881
I1
sV\u67cf\u6811\u6797
p2882
I1
sV\u6c88\u9633\u836f\u5b66\u9662
p2883
I1
sV\u94a2\u94c1
p2884
I2
sV\u4e3e\u529e
p2885
I20
sV\u526f\u603b\u7406
p2886
I3
sV\u7279\u5f81
p2887
I1
sV\u6307\u5bfc
p2888
I6
sV\u91d1\u989d
p2889
I2
sV\u5e08\u5fb7
p2890
I1
sV\u6b63\u89c4
p2891
I2
sV\u4e00\u534a
p2892
I2
sV\u6210\u6587
p2893
I1
sV\u751f\u4ea7\u529b
p2894
I3
sV\u9769\u65b0
p2895
I1
sV\u610f\u5fd7
p2896
I2
sV\u4e2d\u5c0f\u5b66\u6821
p2897
I1
sV\u7231\u62a4
p2898
I7
sV\u914d\u6709
p2899
I1
sV\u8054\u5408
p2900
I8
sV\u5efa\u7b51\u5de5\u7a0b
p2901
I1
sV\u5bf9\u8c61
p2902
I1
sV\u542b\u7cca\u5176\u8bcd
p2903
I1
sV\u652f\u6301
p2904
I17
sV\u9ec4\u749c
p2905
I1
sV\u8fd0\u52a8\u5458
p2906
I1
sV\u65e0\u79c1\u5949\u732e
p2907
I1
sV\u8fdb\u4e00\u6b65
p2908
I24
sV\u821e\u8e48
p2909
I7
sV\u548c\u597d
p2910
I1
sV\u5f71\u54cd
p2911
I21
sV\u5e73\u8861
p2912
I1
sV\u804c\u4e1a\u57f9\u8bad
p2913
I19
sV\u4f2f\u514b\u5229\u5927\u5b66
p2914
I1
sV\u5f81\u8ba2
p2915
I1
sV\u6323\u624e
p2916
I1
sV\u6311\u6218
p2917
I2
sV\u4e3e\u529e\u8005
p2918
I2
sV\u5f52\u529f
p2919
I1
sV\u4e0b\u529f\u592b
p2920
I1
sV\u81ea\u7531\u5316
p2921
I5
sV\u56fd\u9645
p2922
I3
sV\u96f7\u6d01\u743c
p2923
I1
sV\u5171\u9700
p2924
I1
sV\u5efa\u7b51\u9762\u79ef
p2925
I2
sV\u4e00\u4e5d\u4e5d\u516d
p2926
I1
sV\u7535\u89c6\u53f0
p2927
I5
sV\u6839\u6e90
p2928
I1
sV\u4e3a\u4eba\u6c11\u670d\u52a1
p2929
I3
sV\u884c\u4e1a
p2930
I16
sV\u4e66\u7c4d
p2931
I1
sV\u53d7\u8fc7
p2932
I5
sV\u56ed\u5185
p2933
I1
sV\u901a\u8baf\u536b\u661f
p2934
I1
sV\u52a9\u5b66\u91d1
p2935
I1
sV\u53bb\u5e74
p2936
I11
sV\u6743\u5a01
p2937
I1
sV\u732e\u4e0a
p2938
I1
sV\u5f8b\u5df1
p2939
I3
sV\u56fd\u9645\u4ea4\u6d41
p2940
I2
sV\u81ea\u5b66
p2941
I1
sV\u7eb2\u8981
p2942
I7
sV\u504f\u5e38
p2943
I1
sV\u54a8\u8be2
p2944
I2
sV\u591a\u6e20\u9053
p2945
I1
sV\u73b0\u6709
p2946
I6
sV\u534e\u4e1c\u5e08\u5927
p2947
I1
sV\u73ed\u7ea7
p2948
I2
sV\u674e\u9e4f
p2949
I3
sV\u7535\u5f71
p2950
I8
sV\u5f00\u652f
p2951
I1
sV\u7ef4\u4fee
p2952
I2
sV\u5230\u4e9a
p2953
I1
sV\u767e\u79d1\u77e5\u8bc6
p2954
I1
sV\u626b\u5730
p2955
I1
sV\u524d\u6765
p2956
I1
sV\u5df4\u57fa\u65af\u5766
p2957
I1
sV\u76f4\u8f96\u5e02
p2958
I2
sV\u5e0c\u671b
p2959
I19
sV\u7eb3\u5165
p2960
I7
sV\u6279\u4eba
p2961
I1
sV\u4e1c\u5317
p2962
I3
sV\u8d70\u5411
p2963
I2
sV\u7ba1\u7406\u4f53\u5236
p2964
I5
sV\u5a03\u5a03
p2965
I1
sV\u56de\u5f52
p2966
I4
sV\u5efa\u6821
p2967
I2
sV\u5f53\u5e74
p2968
I6
sV\u6709\u610f\u8bc6
p2969
I1
sV\u5386\u53f2\u7cfb
p2970
I2
sV\u7b5b\u9009
p2971
I1
sV\u7532\u5348
p2972
I1
sV\u793e\u4f1a\u6559\u80b2
p2973
I1
sV\u8c03\u7814
p2974
I2
sV\u6536\u5230
p2975
I3
sV\u62e8\u7ed9
p2976
I1
sV\u5de5\u7a0b
p2977
I8
sV\u89e3\u4e86
p2978
I1
sV\u79e6\u5c71\u6838\u7535\u7ad9
p2979
I1
sV\u8d2b\u56f0\u53bf
p2980
I4
sV\u4e13\u7a0b
p2981
I1
sV\u5b89\u5c45\u5de5\u7a0b
p2982
I1
sV\u6559\u80b2\u673a\u6784
p2983
I1
sV\u81ea\u547d\u4e0d\u51e1
p2984
I1
sV\u76f8\u4e92
p2985
I9
sV\u8bfe\u5802
p2986
I2
sV\u7814\u7a76\u8bfe\u9898
p2987
I2
sV\u5eb7\u590d
p2988
I2
sV\u676d\u5dde
p2989
I1
sV\u7ea0\u6b63
p2990
I3
sV\u9769\u547d
p2991
I10
sV\u6df1\u5316
p2992
I7
sV\u5b9a\u5411\u62db\u751f
p2993
I2
sV\u751f\u6015
p2994
I1
sV\u8bbf\u95ee
p2995
I3
sV\u533a\u957f
p2996
I1
sV\u4ee5\u6559\u80b2
p2997
I3
sV\u4eab\u53d7
p2998
I1
sV\u6ee1\u610f
p2999
I1
sV\u6cb9\u5370
p3000
I1
sV\u514d\u8d39
p3001
I1
sV\u5f25\u8865
p3002
I1
sV\u65b9\u6848
p3003
I2
sV\u56fd\u5916
p3004
I5
sV\u963f\u59e8
p3005
I3
sV\u9ad8\u4ea7\u683d\u57f9
p3006
I1
sV\u81ea\u613f
p3007
I3
sV\u8f85\u5bfc
p3008
I6
sV\u8fd9\u4e3a
p3009
I1
sV\u8001\u5e74
p3010
I1
sV\u4e2d\u56fd
p3011
I40
sV\u5236\u5b9a
p3012
I8
sV\u56e2\u5e02\u59d4
p3013
I2
sV\u5e74\u4ee3
p3014
I1
sV\u9752\u58ee\u5e74
p3015
I1
sV\u5f15\u8def\u4eba
p3016
I1
sV\u4e89\u593a
p3017
I1
sV\u9ad8\u79d1\u6280
p3018
I1
sV\u8001\u5e08
p3019
I13
sV\u8111\u529b\u52b3\u52a8
p3020
I1
sV\u821e\u8e48\u7cfb
p3021
I1
sV\u8150\u673d
p3022
I4
sV\u5165\u56e2
p3023
I3
sV\u96c4\u539a
p3024
I1
sV\u5fae\u673a
p3025
I2
sV\u8fdb\u7a0b
p3026
I3
sV\u6cb3\u6b87
p3027
I4
sV\u4e73\u767d\u8272
p3028
I1
sV\u661f\u671f\u56db
p3029
I1
sV\u5b9a\u4e3a
p3030
I1
sV\u97f3\u4e50\u6b23\u8d4f
p3031
I1
sV\u7cbe\u795e\u751f\u6d3b
p3032
I2
sV\u5b66\u5458
p3033
I27
sV\u4eba\u5747
p3034
I1
sV\u81ea\u53d1
p3035
I3
sV\u54c8\u54c8\u955c
p3036
I1
sV\u901a\u5f80
p3037
I1
sV\u533a\u57df
p3038
I1
sV\u62a5\u544a\u4f1a
p3039
I1
sV\u9677\u4e8e
p3040
I1
sV\u516d\u56fd
p3041
I1
sV\u5e74\u4ea7
p3042
I1
sV\u4e0d\u8d1f
p3043
I1
sV\u51fa\u5f97
p3044
I1
sV\u6240\u4e3e
p3045
I1
sV\u5fc3\u7075
p3046
I1
sV\u660e\u767d
p3047
I1
sV\u5206\u6790
p3048
I5
sV\u5f97\u5206
p3049
I1
sV\u590d\u65e6
p3050
I1
sV\u5df2\u6545
p3051
I1
sV\u591a\u5f62\u5f0f
p3052
I1
sV\u6c68\u7f57\u5e02
p3053
I1
sV\u57fa\u7840\u6559\u80b2
p3054
I26
sV\u56fd\u5bb6\u4e0e\u9769\u547d
p3055
I1
sV\u6587\u4f53\u6d3b\u52a8
p3056
I1
sV\u5341\u5e74\u4e5d\u65f1
p3057
I1
sV\u9093\u5c0f\u5e73\u7406\u8bba
p3058
I4
sV\u6cd5\u5236\u6559\u80b2
p3059
I2
sV\u6c42\u5b66
p3060
I2
sV\u4e61\u60c5
p3061
I1
sV\u72af\u7f6a
p3062
I2
sV\u7535\u5b50\u8ba1\u7b97\u673a
p3063
I1
sV\u516c\u5f00\u8bfe
p3064
I1
sV\u7ecf\u5386
p3065
I1
sV\u4e01\u5173\u6839
p3066
I1
sV\u738b\u4f01\u8d24
p3067
I1
sV\u80fd\u529b
p3068
I18
sV\u7167\u7247
p3069
I2
sV\u5728\u624b
p3070
I2
sV\u6210\u624d\u7387
p3071
I1
sV\u611f\u60c5
p3072
I2
sV\u6587\u827a\u6f14\u51fa
p3073
I1
sV\u53d1\u8d77\u4eba
p3074
I1
sV\u9996\u6279
p3075
I1
sV\u82b1\u56ed
p3076
I1
sV\u529e\u5b66
p3077
I60
sV\u95ee\u5377
p3078
I1
sV\u51fa\u5e2d
p3079
I2
sV\u7814\u7a76\u4f1a
p3080
I4
sV\u7edf\u5f97
p3081
I1
sV\u8bb2\u8bdd
p3082
I2
sV\u7ed9\u4e88
p3083
I5
sV\u5c31\u5b66
p3084
I1
sV\u82e6\u607c
p3085
I1
sV\u6280\u7ecf
p3086
I1
sV\u6731\u8302
p3087
I1
sV\u65b0\u9c9c
p3088
I1
sV\u5149\u8363\u82b1
p3089
I1
sV\u65e0\u80fd
p3090
I1
sV\u4f1a\u8bae
p3091
I12
sV\u5317\u4eac\u666f\u5c71\u5b66\u6821
p3092
I5
sV\u5c42\u6b21
p3093
I9
sV\u7eaa\u5ff5\u767d\u6c42\u6069
p3094
I1
sV\u8d23\u4efb\u611f
p3095
I15
sV\u540d\u8a89
p3096
I1
sV\u8bfe\u5916
p3097
I2
sV\u8150\u8680
p3098
I1
sV\u56db\u7ea7
p3099
I1
sV\u7406\u5de5
p3100
I1
sV\u6bcd\u4f53
p3101
I1
sV\u589e\u8bbe
p3102
I2
sV\u7a46\u55e3\u826f
p3103
I1
sV\u5bb6\u52a1
p3104
I1
sV\u53d7\u4eba
p3105
I1
sV\u7b2c\u4e09\u5c4a
p3106
I1
sV\u79ef\u6781\u6027
p3107
I5
sV\u7cd5\u70b9
p3108
I1
sV\u57ce\u4e61
p3109
I8
sV\u4ea4\u6362
p3110
I2
sV\u4e0d\u62d8\u4e00\u683c
p3111
I2
sV\u7a33\u4f4f
p3112
I1
sV\u4e2d\u534e\u6c11\u65cf
p3113
I7
sV\u6df1\u5207
p3114
I1
sV\u8d77\u5230
p3115
I3
sV\u7701\u5185
p3116
I1
sV\u4e9f\u5f85
p3117
I1
sV\u536b\u751f
p3118
I5
sV\u804c\u4e1a\u6559\u80b2
p3119
I140
sV\u5730\u9762
p3120
I3
sV\u6559\u536b
p3121
I1
sV\u8ba1\u7b97\u673a
p3122
I3
sV\u4fa7\u8eab
p3123
I1
sV\u6df1\u523b
p3124
I2
sV\u4e00\u5e45
p3125
I1
sV\u4e00\u73af
p3126
I1
sV\u5ff5\u53e8
p3127
I1
sV\u5b66\u751f
p3128
I184
sV\u7279\u5199
p3129
I2
sV\u8270\u82e6
p3130
I5
sV\u670d\u52a1\u673a\u6784
p3131
I1
sV\u6cf0\u536b
p3132
I1
sV\u821e\u8e48\u6f14\u5458
p3133
I2
sV\u5171\u9752\u56e2\u5458
p3134
I1
sV\u548c\u7766
p3135
I1
sV\u9752\u5e74\u7535\u5f71\u5236\u7247\u5382
p3136
I1
sV\u6811\u4eba
p3137
I1
sV\u7ee7\u7eed\u6559\u80b2
p3138
I1
sV\u8986\u76d6
p3139
I2
sV\u8bb2\u5ea7
p3140
I6
sV\u65e0\u4ea7\u9636\u7ea7
p3141
I4
sV\u6388\u5956
p3142
I1
sV\u4e13\u5bb6
p3143
I18
sV\u6821\u9886\u5bfc
p3144
I1
sV\u5927\u5b66
p3145
I28
sV\u5206\u6743
p3146
I2
sV\u515a\u5458
p3147
I5
sV\u8d5e\u8d4f
p3148
I1
sV\u57fa\u672c\u529f
p3149
I1
sV\u9662\u957f
p3150
I3
sV\u6293\u7d27
p3151
I2
sV\u5e76\u4e3e
p3152
I1
sV\u53ef\u4ee5\u901a\u8fc7
p3153
I2
sV\u5faa\u73af\u5f80\u590d
p3154
I2
sV\u9886\u5bfc
p3155
I24
sV\u9650\u671f
p3156
I1
sV\u8fd9\u5ea7
p3157
I2
sV\u5236\u836f
p3158
I1
sV\u66f4\u662f
p3159
I4
sV\u662f\u7531
p3160
I1
sV\u7f16\u5236
p3161
I2
sV\u6709\u76ee\u5171\u7779
p3162
I1
sV\u5149\u8363
p3163
I3
sV\u5929\u6d25\u5927\u5b66
p3164
I3
sV\u7b2c\u5341\u4e8c
p3165
I1
sV\u7279\u522b
p3166
I27
sV\u56fd\u5bb6
p3167
I73
sV\u5b66\u7c4d\u7ba1\u7406
p3168
I2
sV\u5de5\u4f5c\u91cd\u70b9
p3169
I2
sV\u5c0f\u5b66
p3170
I21
sV\u81ea\u7136
p3171
I1
sV\u56fa\u6267
p3172
I1
sV\u91cd\u6e29
p3173
I1
sV\u53d1\u5c55\u524d\u9014
p3174
I1
sV\u878d\u6d3d
p3175
I1
sV\u767b\u8bb0
p3176
I1
sV\u652f\u4ed8
p3177
I1
sV\u5168\u6821
p3178
I16
sV\u5bb9\u7eb3
p3179
I1
sV\u503c\u5f97
p3180
I2
sV\u7535\u5316\u6559\u5b66
p3181
I1
sV\u8f83\u5dee
p3182
I1
sV\u4e2d\u82f1\u6587
p3183
I1
sV\u806a\u660e\u624d\u667a
p3184
I1
sV\u60f3\u5230
p3185
I1
sV\u5de5\u7a0b\u6280\u672f
p3186
I1
sV\u591a\u4efd
p3187
I1
sV\u6559\u80b2\u6559\u5b66
p3188
I1
sV\u540e\u7ee7\u6709\u4eba
p3189
I1
sV\u81f4\u4ee5
p3190
I2
sV\u6d77\u519b
p3191
I5
sV\u54c1\u683c
p3192
I1
sV\u5fc3\u79bb
p3193
I1
sV\u8003\u4e0a
p3194
I1
sV\u9662\u56e2
p3195
I1
sV\u4e2d\u592e\u620f\u5267\u5b66\u9662
p3196
I2
sV\u97f3\u4f53
p3197
I1
sV\u4e0b\u4e2a
p3198
I1
sV\u6e38\u827a\u573a
p3199
I1
sV\u5fb7\u667a\u4f53
p3200
I5
sV\u6279\u6279
p3201
I1
sV\u95ee\u5019
p3202
I1
sV\u4e3b\u610f
p3203
I1
sV\u5305\u529e
p3204
I1
sV\u5206\u5de5\u8d1f\u8d23\u5236
p3205
I1
sV\u559c\u6b22
p3206
I1
sV\u519b\u5b66
p3207
I1
sV\u5efa\u56ed
p3208
I2
sV\u7f16\u5199
p3209
I3
sV\u4e3b\u52a8
p3210
I6
sV\u89c4\u5212
p3211
I15
sV\u7701\u59d4\u4e66\u8bb0
p3212
I1
sV\u53c8\u7ea2\u53c8\u4e13
p3213
I1
sV\u7834\u788e
p3214
I1
sV\u53f8\u552e\u4eba\u5458
p3215
I1
sV\u6280\u5de7
p3216
I3
sV\u59cb\u7ec8
p3217
I1
sV\u70ed\u95e8
p3218
I1
sV\u6700\u4f73
p3219
I1
sV\u8bfe\u7a0b
p3220
I18
sV\u5386\u6765
p3221
I1
sV\u591a\u4eba
p3222
I2
sV\u626d\u8f6c
p3223
I1
sV\u4e00\u73ed\u597d
p3224
I1
sV\u56e2\u5458
p3225
I3
sV\u8f66\u5230
p3226
I1
sV\u5199\u4e0b
p3227
I1
sV\u5408\u5e76
p3228
I5
sV\u4e00\u7089
p3229
I1
sV\u5fc3\u5207
p3230
I1
sV\u65e0\u9521\u5e02
p3231
I8
sV\u4e09\u5206
p3232
I1
sV\u53d1\u8fbe
p3233
I3
sV\u4f5c\u6587
p3234
I1
sV\u9898\u5199
p3235
I1
sV\u9ad8\u7b49
p3236
I22
sV\u4e00\u6b65\u5230\u4f4d
p3237
I1
sV\u6691\u671f
p3238
I1
sV\u5f00\u521b
p3239
I4
sV\u7740\u4f5c
p3240
I2
sV\u8fd9\u9879
p3241
I5
sV\u8003\u6838
p3242
I3
sV\u5360\u9886
p3243
I2
sV\u5f81\u6587
p3244
I1
sV\u672c\u6821
p3245
I1
sV\u5730\u533a
p3246
I21
sV\u4e0d\u4f4f
p3247
I1
sV\u4e0d\u4f4e
p3248
I1
sV\u54a8\u8be2\u670d\u52a1
p3249
I2
sV\u5403\u82e6
p3250
I2
sV\u5e94\u5411
p3251
I1
sV\u4e07\u6240
p3252
I1
sV\u6839\u672c\u6027
p3253
I5
sV\u4eba\u751f
p3254
I2
sV\u6b22\u4e50
p3255
I2
sV\u5404\u65b9
p3256
I3
sV\u7535\u5de5
p3257
I2
sV\u5f3a\u52a0
p3258
I1
sV\u4e00\u70b9
p3259
I2
sV\u9ad8\u7b49\u5b66\u6821
p3260
I3
sV\u65e2\u5b9a
p3261
I1
sV\u5408\u80a5
p3262
I1
sV\u5404\u65cf
p3263
I2
sV\u8d44\u4ea7\u9636\u7ea7
p3264
I5
sV\u516b\u5c4a
p3265
I1
sV\u4e95\u5c97\u5c71
p3266
I1
sV\u591a\u4e07
p3267
I6
sV\u591a\u529f\u80fd
p3268
I1
sV\u8001\u5c11
p3269
I1
sV\u666e\u901a\u9ad8\u4e2d
p3270
I3
sV\u5b66\u9662
p3271
I14
sV\u4e0d\u8bf4
p3272
I1
sV\u79d1\u6559\u5174\u5e02
p3273
I3
sV\u6587\u660e
p3274
I30
sV\u62db\u8fdc\u53bf
p3275
I1
sV\u529b\u91cf
p3276
I18
sV\u91cd\u4efb
p3277
I1
sV\u6c14\u6c1b
p3278
I4
sV\u7acb\u5e73
p3279
I1
sV\u9635\u7ebf
p3280
I1
sV\u4e13\u9898
p3281
I4
sV\u6559\u80b2\u754c
p3282
I5
sV\u5218\u519b
p3283
I1
sV\u4e00\u90e8
p3284
I1
sV\u9a6c\u5361
p3285
I1
sV\u533a\u653f\u5e9c
p3286
I2
sV\u9884\u5907\u751f
p3287
I5
sV\u5149\u8363\u611f
p3288
I1
sV\u758f\u901a
p3289
I3
sV\u8ffd\u6c42
p3290
I7
sV\u6f2b\u753b
p3291
I1
sV\u4f26\u7406
p3292
I1
sV\u6cbb\u5b89
p3293
I1
sV\u91cd\u70b9\u5927\u5b66
p3294
I1
sV\u8d85\u524d
p3295
I1
sV\u8fd9\u5c4a
p3296
I1
sV\u767d\u7acb\u5ff1
p3297
I1
sV\u5fd7\u6210
p3298
I1
sV\u4f1a\u89c1
p3299
I5
sV\u9053\u5fb7\u6027
p3300
I1
sV\u8f66\u53a2
p3301
I1
sV\u9769\u547d\u6218\u4e89
p3302
I2
sV\u6536\u8d39
p3303
I6
sV\u4e8c\u9f99\u8def
p3304
I2
sV\u7528\u4e66
p3305
I1
sV\u6c42\u5b9e
p3306
I1
sV\u767e\u597d
p3307
I1
sV\u4e0a\u6d77\u8d22\u7ecf\u5927\u5b66
p3308
I1
sV\u6210\u4eba\u6559\u80b2
p3309
I4
sV\u529e\u597d
p3310
I5
sV\u793e\u4f1a\u7a33\u5b9a
p3311
I2
sV\u519b\u533b
p3312
I1
sV\u603b\u7684\u8bb2
p3313
I1
sV\u8bd5\u70b9\u6821
p3314
I1
sV\u597d\u5904
p3315
I2
sV\u54f2\u5b66
p3316
I1
sV\u4eea\u5f0f
p3317
I3
sV\u5931\u5b66
p3318
I2
sV\u51fd\u6388
p3319
I1
sV\u804c\u9ad8
p3320
I3
sV\u56fd\u9645\u5316
p3321
I2
sV\u73b0\u9636\u6bb5
p3322
I1
sV\u5b66\u6821\u9886\u5bfc
p3323
I1
sV\u5c55\u51fa
p3324
I3
sV\u9ad8\u7ea7\u6280\u672f
p3325
I2
sV\u5730\u7406
p3326
I1
sV\u97f3\u4e50
p3327
I3
sV\u4fe1\u4e2d
p3328
I1
sV\u4eba\u6b21
p3329
I4
sV\u9752\u6625
p3330
I1
sV\u591a\u4ebf
p3331
I1
sV\u5b89\u5fbd
p3332
I1
sV\u852c\u83dc
p3333
I1
sV\u835f\u8403
p3334
I1
sV\u4e1c\u65b9\u7ea2
p3335
I1
sV\u533b\u5b66
p3336
I3
sV\u5341\u51e0
p3337
I4
sV\u589e\u5f3a
p3338
I10
sV\u7701\u7ea7
p3339
I4
sV\u666e\u6559
p3340
I3
sV\u94a2\u94c1\u7814\u7a76\u603b\u9662
p3341
I1
sV\u4ebf\u5143
p3342
I1
sV\u5766\u8bda
p3343
I1
sV\u4e45\u800c\u4e45\u4e4b
p3344
I1
sV\u4e0d\u4e88
p3345
I1
sV\u515a\u56e2
p3346
I2
sV\u524d\u82cf\u8054
p3347
I1
sV\u53d8\u76f8
p3348
I1
sV\u5f52\u5e02
p3349
I1
sV\u529e\u5927
p3350
I1
sV\u591a\u4f4d
p3351
I3
sV\u6291\u5236
p3352
I1
sV\u6559\u80b2\u7f51
p3353
I6
sV\u6f6e\u6d41
p3354
I2
sV\u4e00\u518c
p3355
I1
sV\u5934\u8111
p3356
I2
sV\u4fe1\u4ef0
p3357
I1
sV\u5976\u5976
p3358
I1
sV\u53ea\u8eab
p3359
I1
sV\u5b66\u9662\u9886\u5bfc
p3360
I1
sV\u5468\u5e74\u7eaa\u5ff5
p3361
I3
sV\u5438\u6536
p3362
I3
sV\u4e92\u52a9
p3363
I1
sV\u65e5\u81f3
p3364
I1
sV\u4e8b\u500d\u529f\u534a
p3365
I1
sV\u5de5\u79cd
p3366
I1
sV\u6d88\u8d39
p3367
I1
sV\u5f53\u597d
p3368
I1
sV\u5e08\u8d44\u529b\u91cf
p3369
I1
sV\u597d\u8bc4
p3370
I4
sV\u65b0\u4eba
p3371
I4
sV\u653f\u7b56
p3372
I6
sV\u4e13\u79d1
p3373
I1
sV\u516c\u56ed
p3374
I2
sV\u6c11\u529e\u6559\u80b2
p3375
I1
sV\u9ad8\u5927
p3376
I1
sV\u77e5\u5fc3
p3377
I1
sV\u540e\u5907
p3378
I1
sV\u6df1\u9020
p3379
I4
sV\u504f\u8fdc
p3380
I1
sV\u9ad8\u7b49\u6559\u80b2
p3381
I37
sV\u77e5\u8bc6\u6027
p3382
I1
sV\u5339\u592b\u6709\u8d23
p3383
I2
sV\u6559\u5174
p3384
I1
sV\u51cf\u5c11
p3385
I1
sV\u6559\u80b2\u53d1\u5c55
p3386
I5
sV\u7528\u4eba
p3387
I1
sV\u4e3b\u6218\u573a
p3388
I1
sV\u7701\u5e02
p3389
I1
sV\u516c\u800c\u5fd8\u79c1
p3390
I2
sV\u961f\u5458
p3391
I1
sV\u6559\u5b66\u7814\u7a76
p3392
I1
sV\u9700\u7ecf
p3393
I1
sV\u70ed\u70c8
p3394
I1
sV\u65b0\u4e00\u4ee3
p3395
I2
sV\u6536\u8d39\u9879\u76ee
p3396
I1
sV\u6709\u5fd7\u8005\u4e8b\u7adf\u6210
p3397
I1
sV\u96c6\u7ea6\u578b
p3398
I1
sV\u65e0\u52a9\u4e8e
p3399
I1
sV\u53bf\u653f\u5e9c
p3400
I1
sV\u804c\u4e1a\u9ad8\u4e2d
p3401
I6
sV\u4e16\u754c\u94f6\u884c
p3402
I8
sV\u4e0b\u8fbe
p3403
I1
sV\u4e00\u5ea7
p3404
I1
sV\u5206\u6570
p3405
I6
sV\u7cfb\u79d1
p3406
I1
sV\u54c1\u5b66\u517c\u4f18
p3407
I3
sV\u56e2\u4f53\u64cd
p3408
I1
sV\u9ad8\u5c42\u6b21
p3409
I2
sV\u521b\u529e\u8005
p3410
I1
sV\u5341\u516d
p3411
I1
sV\u90d1\u6d1e\u5929
p3412
I1
sV\u8d8b\u540c
p3413
I1
sV\u5927\u961f
p3414
I1
sV\u6253\u5b57\u673a
p3415
I1
sV\u7528\u4e8e
p3416
I3
sV\u8f7d\u6b4c\u8f7d\u821e
p3417
I1
sV\u5b9a\u8bba
p3418
I1
sV\u8fde\u67ef
p3419
I1
sV\u5386\u53f2\u6e0a\u6e90
p3420
I1
sV\u751f\u8363
p3421
I1
sV\u4e0a\u6d77\u4ea4\u5927
p3422
I2
sV\u738b\u5a1c
p3423
I2
sV\u804c\u5de5
p3424
I4
sV\u57f9\u8bad
p3425
I19
sV\u6c9f\u901a
p3426
I4
sV\u59d4\u5458\u957f
p3427
I3
sV\u6709\u8fd1
p3428
I1
sV\u4f20\u7edf
p3429
I24
sV\u5584\u5f85
p3430
I1
sV\u524d\u8eab
p3431
I1
sV\u6761\u6761
p3432
I1
sV\u9093\u5c0f\u5e73
p3433
I30
sV\u8d1f\u8d23\u4eba
p3434
I8
sV\u7530\u5f84
p3435
I1
sV\u81f4\u529b\u4e8e
p3436
I1
sV\u7535\u89c6\u5236\u4f5c
p3437
I1
sV\u7ecf\u6d4e\u4f53\u5236
p3438
I6
sV\u53d1\u5c55\u6218\u7565
p3439
I1
sV\u6559\u80b2\u6539\u9769
p3440
I12
sV\u9650\u62db
p3441
I1
sV\u9ad8\u5ea6
p3442
I9
sV\u9ad8\u7ea7
p3443
I5
sV\u89c1\u5730
p3444
I1
sV\u673a\u4f1a
p3445
I1
sV\u516c\u5171
p3446
I18
sV\u793c\u8c8c
p3447
I2
sV\u7b14\u8005
p3448
I3
sV\u56fd\u800c\u5fd8\u5bb6
p3449
I2
sV\u4e00\u5ea6
p3450
I1
sV\u6821\u56ed\u73af\u5883
p3451
I1
sV\u5f04\u6e05
p3452
I1
sV\u793e\u4f1a\u6548\u76ca
p3453
I1
sV\u68c0\u9605
p3454
I1
sV\u4e1c\u571f
p3455
I1
sV\u5546\u4e1a
p3456
I1
sV\u56de\u7b54
p3457
I1
sV\u8fce\u63a5
p3458
I2
sV\u4eba\u53e3
p3459
I6
sV\u5e2e\u6559
p3460
I2
sV\u505a\u6cd5
p3461
I2
sV\u5341\u56db
p3462
I6
sV\u6cd5\u5f8b\u6cd5\u89c4
p3463
I2
sV\u5168\u4e66
p3464
I1
sV\u6c68\u7f57
p3465
I8
sV\u91cd\u70b9\u5b66\u79d1
p3466
I3
sV\u5370\u5236
p3467
I1
sV\u5317\u4eac\u5e02\u653f\u5e9c
p3468
I3
sV\u7ed8\u5236
p3469
I1
sV\u7a7a\u6687
p3470
I1
sV\u4e00\u7ebf
p3471
I5
sV\u661f\u671f\u516d
p3472
I1
sV\u5347\u5165
p3473
I3
sV\u5f0a\u7aef
p3474
I4
sV\u5bb6\u957f\u5b66\u6821
p3475
I6
sV\u6de1\u5316
p3476
I3
sV\u63a5\u53d7
p3477
I11
sV\u843d\u540e
p3478
I1
sV\u4e2d\u56fd\u8d22\u653f\u90e8
p3479
I1
sV\u7956\u56fd
p3480
I11
sV\u5434\u5fe0
p3481
I1
sV\u5317\u4eac\u7535\u5f71\u5b66\u9662
p3482
I1
sV\u5bf9\u672c
p3483
I3
sV\u6743\u76ca
p3484
I1
sV\u6210\u4eba
p3485
I6
sV\u7eaa\u5ff5
p3486
I1
sV\u7070\u5fc3\u4e27\u6c14
p3487
I1
sV\u9ad8\u989d
p3488
I1
sV\u79f0\u8d5e
p3489
I4
sV\u5fc3\u7406
p3490
I3
sV\u66f2\u96c6
p3491
I1
sV\u533a\u53bf
p3492
I1
sV\u9ad8\u6e29\u5408\u91d1
p3493
I1
sV\u9075\u5b88
p3494
I10
sV\u6e56\u5317
p3495
I3
sV\u4e1c\u57ce
p3496
I1
sV\u53cd\u6e17\u900f
p3497
I1
sV\u5bb6\u653f
p3498
I1
sV\u8fc8\u51fa
p3499
I1
sV\u9f99\u6885
p3500
I1
sV\u56fd\u52a1\u9662
p3501
I12
sV\u5316\u5b66
p3502
I1
sV\u7ba1\u7406
p3503
I22
sV\u4e0b\u68cb
p3504
I4
sV\u5927\u9762\u79ef
p3505
I3
sV\u9884\u5206
p3506
I1
sV\u504f\u7a84
p3507
I1
sV\u6307\u6325
p3508
I1
sV\u56de\u5bb6
p3509
I2
sV\u83b7\u53d6
p3510
I1
sV\u6bd5\u4e1a\u751f
p3511
I43
sV\u8d28\u91cf
p3512
I24
sV\u597d\u5b69\u5b50
p3513
I7
sV\u4ef7\u503c
p3514
I1
sV\u4e0e\u6c11
p3515
I1
sV\u4e2d\u5b66\u751f
p3516
I3
sV\u4f59\u540d
p3517
I1
sV\u4f1a\u4e0a
p3518
I2
sV\u8d8a\u62db
p3519
I1
sV\u4f4d\u7f6e
p3520
I1
sV\u81ea\u611f
p3521
I1
sV\u8fd1\u65e5
p3522
I3
sV\u6559\u80b2\u5b66
p3523
I4
sV\u8db3\u7403\u8d5b
p3524
I1
sV\u6e56\u5357
p3525
I5
sV\u884c\u653f
p3526
I1
sV\u56fd\u5bb6\u4e13\u5229
p3527
I1
sV\u4f26\u7406\u9053\u5fb7
p3528
I1
sV\u7740\u773c
p3529
I3
sV\u4e8e\u4eca
p3530
I1
sV\u7cbe\u5fc3
p3531
I1
sV\u662f\u5728
p3532
I6
sV\u5e08\u8d44\u961f\u4f0d
p3533
I4
sV\u9ad8\u7ea7\u4eba\u624d
p3534
I1
sV\u5438\u5f15\u529b
p3535
I1
sV\u4fdd\u62a4
p3536
I7
sV\u4e16\u754c\u5404\u56fd
p3537
I1
sV\u5730\u53bb
p3538
I3
sV\u5bb6\u6559
p3539
I1
sV\u521d\u89c1\u6210\u6548
p3540
I1
sV\u65f6\u671f
p3541
I5
sV\u51fa\u56fd\u7559\u5b66
p3542
I1
sV\u8d37\u6b3e\u9879
p3543
I1
sV\u5e08\u751f
p3544
I7
sV\u8bde\u751f
p3545
I1
sV\u5fc5\u5907
p3546
I1
sV\u4f5c\u6218
p3547
I1
sV\u91cd\u5e08
p3548
I1
sV\u4f4f\u623f
p3549
I2
sV\u9884\u9632\u72af\u7f6a
p3550
I2
sV\u8fc1\u6012
p3551
I1
sV\u65e0\u80fd\u4e3a\u529b
p3552
I1
sV\u548c\u53bf
p3553
I1
sV\u4e8b\u8ff9
p3554
I1
sV\u5efa\u8d77
p3555
I2
sV\u82e5\u5e72
p3556
I4
sV\u6392\u6f14
p3557
I1
sV\u76ee\u6807
p3558
I17
sV\u6863\u6848
p3559
I1
sV\u5927\u5b66\u751f
p3560
I20
sV\u8d22\u5bcc
p3561
I5
sV\u5b66\u519c
p3562
I1
sV\u80b2\u4eba
p3563
I5
sV\u6218\u7565
p3564
I5
sV\u5bb6\u957f\u5f0f
p3565
I1
sV\u6536\u62fe
p3566
I1
sV\u4e49\u52a1
p3567
I7
sV\u6d3b\u52a8\u4e2d\u5fc3
p3568
I1
sV\u5de5\u4e1a\u5316
p3569
I1
sV\u97e9\u677c\u6ee8
p3570
I1
sV\u65e5\u672c
p3571
I6
sV\u516d\u5341
p3572
I3
sV\u5171\u4ea7\u515a
p3573
I1
sV\u6587\u5316\u6559\u80b2
p3574
I4
sV\u6797\u9e4f
p3575
I2
sV\u6bdb\u6cfd\u4e1c\u601d\u60f3
p3576
I3
sV\u519c\u6751\u7ecf\u6d4e
p3577
I1
sV\u6551\u51fa
p3578
I1
sV\u5217\u5165
p3579
I5
sV\u5468\u5e74
p3580
I2
sV\u953b\u70bc
p3581
I3
sV\u8bb2\u8fc7
p3582
I1
sV\u4e00\u5757
p3583
I1
sV\u7279\u957f
p3584
I1
sV\u8bfb\u7269
p3585
I5
sV\u8eab\u4f53\u529b\u884c
p3586
I2
sV\u8d8b\u52bf
p3587
I9
sV\u9884\u79d1
p3588
I1
sV\u6267\u884c
p3589
I9
sV\u519c\u7530
p3590
I1
sV\u4efb\u6559
p3591
I1
sV\u4ecb\u7ecd
p3592
I6
sV\u5e7f\u64ad\u64cd
p3593
I1
sV\u67d0\u4e00
p3594
I2
sV\u4e24\u56fd
p3595
I5
sV\u7247\u9762
p3596
I2
sV\u51a0\u519b
p3597
I1
sV\u751f\u65e5
p3598
I1
sV\u5353\u7740
p3599
I3
sV\u91d1\u724c
p3600
I2
sV\u8bf7\u6559
p3601
I1
sV\u8d70\u6751\u4e32\u5be8
p3602
I1
sV\u4e66\u8bb0\u5904
p3603
I1
sV\u97e9\u56fd
p3604
I1
sV\u5236\u5ea6
p3605
I27
sV\u5e38\u89c4\u5316
p3606
I1
sV\u7ec4\u7ec7
p3607
I45
sV\u5165\u4f1a
p3608
I1
sV\u5f53\u4eca
p3609
I5
sV\u975e\u827a\u672f
p3610
I1
sV\u6b22\u5ea6
p3611
I1
sV\u5149\u6709
p3612
I1
sV\u7406\u76f4\u6c14\u58ee
p3613
I1
sV\u65f6\u95f4
p3614
I14
sV\u4e09\u5143
p3615
I2
sV\u5730\u540c
p3616
I1
sV\u72ec\u6728\u6865
p3617
I1
sV\u6548\u679c
p3618
I5
sV\u7edf\u7b79
p3619
I8
sV\u8d70\u51fa
p3620
I2
sV\u4e0d\u884c
p3621
I1
sV\u63d0\u9ad8
p3622
I96
sV\u6559\u79d1\u4e66
p3623
I4
sV\u6307\u51fa
p3624
I21
sV\u6025\u529f\u8fd1\u5229
p3625
I1
sV\u7269\u8d28\u6587\u660e
p3626
I1
sV\u54cd\u5e94
p3627
I4
sV\u6539\u8fdb
p3628
I2
sV\u70ed\u7231
p3629
I3
sV\u9762\u5411
p3630
I13
sV\u4e13\u5fc3
p3631
I1
sV\u8d1f\u8d23
p3632
I9
sV\u6b66\u57f9\u771f
p3633
I2
sV\u7a33\u6b65
p3634
I1
sV\u5e7f\u544a
p3635
I2
sV\u79f0\u8c13
p3636
I1
sV\u6d3b\u52a8\u65e5
p3637
I1
sV\u4eba\u7269
p3638
I2
sV\u6076\u6027
p3639
I1
sV\u5c45\u59d4\u4f1a
p3640
I2
sV\u5c39\u9e3f\u795d
p3641
I2
sV\u529e\u5f97
p3642
I3
sV\u8fd9\u5341\u4f4d
p3643
I1
sV\u8ba1\u6570
p3644
I1
sV\u5b9e\u9a8c
p3645
I4
sV\u73ed\u5b50
p3646
I1
sV\u5927\u4e2d\u57ce\u5e02
p3647
I1
sV\u9686\u91cd
p3648
I1
sV\u751f\u6d3b\u73af\u5883
p3649
I2
sV\u5fb7\u80b2\u6559\u80b2
p3650
I8
sV\u91cd\u89c6
p3651
I43
sV\u62a2\u52ab
p3652
I1
sV\u6708\u4efd
p3653
I2
sV\u5974\u96b6
p3654
I1
sV\u5de5\u9f84
p3655
I2
sV\u9ad8\u96c5
p3656
I1
sV\u6269\u5c55
p3657
I1
sV\u64a4\u9500
p3658
I1
sV\u6559\u80b2\u7247
p3659
I1
sV\u5e7d\u96c5
p3660
I1
sV\u6709\u4e2a
p3661
I1
sV\u5348\u9910
p3662
I1
sV\u529f\u4e0d\u53ef\u6ca1
p3663
I1
sV\u9057\u61be
p3664
I1
sV\u5e02\u573a\u7ecf\u6d4e
p3665
I1
sV\u4e2d\u53bb
p3666
I2
sV\u6309\u8ba1\u5212
p3667
I1
sV\u53ec\u96c6
p3668
I1
sV\u5c0f\u7ec4
p3669
I4
sV\u6bcf\u4e00\u6240
p3670
I1
sV\u6307\u5bfc\u601d\u60f3
p3671
I4
sV\u5927\u6709\u4f5c\u4e3a
p3672
I1
sV\u8425\u9020
p3673
I3
sV\u4e00\u540c
p3674
I1
sV\u5e73\u65b9\u7c73
p3675
I2
sV\u5229\u7528
p3676
I10
sV\u516c\u6709\u5236
p3677
I2
sV\u786e\u7acb
p3678
I4
sV\u52b3\u52a8\u8005
p3679
I14
sV\u505a\u4e9b
p3680
I2
sV\u6551\u52a9
p3681
I1
sV\u7d20\u517b
p3682
I6
sV\u4f53\u6821
p3683
I9
sV\u7231\u56fd\u4e3b\u4e49
p3684
I28
sV\u6d77\u897f\u8499\u53e4\u65cf\u85cf\u65cf\u81ea\u6cbb\u5dde
p3685
I1
sV\u6a21\u8303
p3686
I2
sV\u65f6\u523b
p3687
I1
sV\u53e3\u6c14
p3688
I1
sV\u540e\u5929\u4e0b\u4e4b\u4e50\u800c\u4e50
p3689
I2
sV\u4e0e\u4f1a
p3690
I4
sV\u5954\u8d74
p3691
I1
sV\u6dfb\u7f6e
p3692
I2
sV\u603b\u4e66\u8bb0
p3693
I3
sV\u8fd9\u65b9\u9762
p3694
I2
sV\u5305\u56f4
p3695
I1
sV\u957f\u5f81
p3696
I1
sV\u8d60\u4e66
p3697
I3
sV\u5ba3\u626c
p3698
I2
sV\u5c81\u6708
p3699
I2
sV\u51fa\u5927
p3700
I1
sV\u90e8\u4ef6
p3701
I1
sV\u5e7c\u513f\u56ed
p3702
I16
sV\u4e2d\u9014
p3703
I1
sV\u9ad8\u4e2d\u6559\u80b2
p3704
I1
sV\u600e\u80fd
p3705
I1
sV\u4eba\u51fa
p3706
I1
sV\u5347\u534e
p3707
I2
sV\u8fc7\u91cd
p3708
I2
sV\u5185\u5316
p3709
I2
sV\u4e0a\u6d77\u5c11\u513f\u51fa\u7248\u793e
p3710
I1
sV\u653f\u5e9c
p3711
I28
sV\u664b\u5347
p3712
I1
sV\u4e24\u6709
p3713
I1
sV\u79bb\u961f
p3714
I1
sV\u4ec5\u7528
p3715
I1
sV\u5927\u6709\u53ef\u4e3a
p3716
I1
sV\u514d\u8bd5
p3717
I2
sV\u8d44\u6599\u4e2d\u5fc3
p3718
I1
sV\u8463\u4f1f
p3719
I2
sV\u704c\u8f93
p3720
I1
sV\u5c0a\u91cd
p3721
I7
sV\u4e2d\u5916
p3722
I2
sV\u83dc\u5e02\u573a
p3723
I1
sV\u5c55\u54c1
p3724
I1
sV\u4e00\u65f6\u671f
p3725
I1
sV\u5b66\u5230
p3726
I1
sV\u79cb\u5b63
p3727
I1
sV\u518d\u73b0
p3728
I1
sV\u7b79\u63aa
p3729
I4
sV\u9ed1\u677f
p3730
I2
sV\u5b66\u5236
p3731
I3
sV\u98ce\u666f
p3732
I1
sV\u5355\u4e00
p3733
I1
sV\u5927\u522b\u5c71\u533a
p3734
I1
sV\u9053\u5fb7
p3735
I19
sV\u591a\u5e74\u5386\u53f2
p3736
I1
sV\u80f6\u4e1c\u534a\u5c9b
p3737
I1
sV\u9881\u53d1
p3738
I2
sV\u6559\u5458
p3739
I3
sV\u7231\u5fc3
p3740
I1
sV\u5e7c\u7ae5
p3741
I1
sV\u4e4b\u5bb6
p3742
I2
sV\u5168\u519b
p3743
I1
sV\u7ae5\u5e74
p3744
I2
sV\u8fdd\u80cc
p3745
I1
sV\u515a\u7ec4\u7ec7
p3746
I7
sV\u53d8\u5316
p3747
I2
sV\u7ec3\u7b14
p3748
I1
sV\u6267\u6cd5
p3749
I4
sV\u57f9\u690d
p3750
I1
sV\u80a9\u8d1f
p3751
I1
sV\u56e2\u4e2d\u592e\u4e66\u8bb0\u5904
p3752
I1
sV\u5f62\u5f0f
p3753
I10
sV\u6587\u827a
p3754
I2
sV\u9053\u5fb7\u6559\u80b2
p3755
I5
sV\u966a\u540c
p3756
I2
sV\u7b80\u8c31
p3757
I2
sV\u5929\u548c
p3758
I1
sV\u505a\u4e3a
p3759
I1
sV\u56e0\u53d7
p3760
I1
sV\u5fb7\u5dde
p3761
I4
sV\u9493\u9c7c\u53f0\u56fd\u5bbe\u9986
p3762
I1
sV\u516c\u53f8
p3763
I2
sV\u9080\u8bf7
p3764
I3
sV\u7cfb\u7edf\u5de5\u7a0b
p3765
I2
sV\u7406\u60f3
p3766
I5
sV\u4f1a\u8c08
p3767
I3
sV\u5165\u6821
p3768
I1
sV\u865a\u5047
p3769
I1
sV\u62db\u751f
p3770
I17
sV\u7269\u8d28\u751f\u6d3b
p3771
I1
sV\u664f\u7ae0
p3772
I1
sV\u7eb7\u7eb7
p3773
I2
sV\u663e\u7740
p3774
I6
sV\u5218\u6d69
p3775
I1
sV\u540c\u53f0
p3776
I2
sV\u6ca1\u80fd
p3777
I1
sV\u51fa\u7248
p3778
I8
sV\u9884\u8ba1
p3779
I2
sV\u84ec\u52c3\u751f\u673a
p3780
I1
sV\u674e\u94c1\u6620
p3781
I6
sV\u9769\u547d\u6b4c\u66f2
p3782
I1
sV\u98d8\u626c
p3783
I1
sV\u4fdd\u80b2
p3784
I1
sV\u4f5c\u54c1\u5c55
p3785
I2
sV\u5fb7\u5dde\u5e02
p3786
I1
sV\u9762\u8c8c
p3787
I1
sV\u591a\u5143\u5316
p3788
I1
sV\u4e1b\u4e66
p3789
I4
sV\u7ec8\u8eab\u6559\u80b2
p3790
I2
sV\u5927\u5c40
p3791
I3
sV\u517c\u878d
p3792
I1
sV\u5b66\u524d
p3793
I1
sV\u76d7\u7a83\u72af
p3794
I1
sV\u6307\u5357
p3795
I2
sV\u4f34\u821e
p3796
I1
sV\u5b66\u6821\u6559\u80b2
p3797
I4
sV\u7855\u58eb\u5b66\u4f4d
p3798
I1
sV\u504f\u5927
p3799
I1
sV\u72ec\u7acb
p3800
I3
sV\u5c0f\u9e7f
p3801
I1
sV\u51fa\u8def
p3802
I1
sV\u6210\u8d25
p3803
I2
sV\u627f\u8ba4
p3804
I1
sV\u4e00\u751f
p3805
I1
sV\u70b9\u4e94
p3806
I1
sV\u9762\u7684
p3807
I4
sV\u76f8\u6bd4
p3808
I4
sV\u6559\u5b66\u8bbe\u5907
p3809
I1
sV\u54c1\u8d28
p3810
I3
sV\u6210\u679c\u8f6c\u5316
p3811
I1
sV\u5206\u914d
p3812
I10
sV\u9644\u56fe
p3813
I1
sV\u53d1\u8a00
p3814
I1
sV\u897f\u5b89\u4ea4\u901a\u5927\u5b66
p3815
I1
sV\u6570\u5b66
p3816
I7
sV\u8d2d\u4e70
p3817
I1
sV\u5b66\u5386
p3818
I9
sV\u591a\u5e45
p3819
I2
sV\u901f\u5ea6
p3820
I1
sV\u8d39\u7528
p3821
I2
sV\u9886\u5bfc\u5e72\u90e8
p3822
I1
sV\u6ca1\u5b8c\u6ca1\u4e86
p3823
I1
sV\u4e00\u65e0
p3824
I1
sV\u7eaf\u6d01
p3825
I1
sV\u4e49\u52a1\u6559\u80b2\u6cd5
p3826
I2
sV\u8d44\u6599
p3827
I3
sV\u5c0f\u4e8b
p3828
I1
sV\u7ecf\u6d4e\u7ba1\u7406
p3829
I1
sV\u7559\u5b66\u751f
p3830
I11
sV\u5916\u7ecf\u8d38
p3831
I1
sV\u7814\u5236
p3832
I2
sV\u5de5\u4f5c\u60c5\u51b5
p3833
I1
sV\u56de\u987e
p3834
I2
sV\u8bc1\u4e66
p3835
I8
sV\u5546\u8d38
p3836
I1
sV\u826f\u77e5
p3837
I2
sV\u5730\u76fc
p3838
I1
sV\u79f0\u4e3a
p3839
I1
sV\u5bbf\u820d
p3840
I5
sV\u96c4\u9e70
p3841
I1
sV\u4e0d\u524d
p3842
I1
sV\u5c0a\u656c
p3843
I1
sV\u6821\u56ed\u6587\u5316
p3844
I4
sV\u4e8c\u5341\u516d
p3845
I1
sV\u7545\u8c08
p3846
I1
sV\u591a\u5c42\u6b21
p3847
I2
sV\u5929\u7ecf\u5730\u4e49
p3848
I1
sV\u751c\u83dc
p3849
I1
sV\u6821\u5916\u8f85\u5bfc\u5458
p3850
I1
sV\u6587\u5316\u9986
p3851
I1
sV\u4e94\u4e2d\u5168\u4f1a
p3852
I3
sV\u5bf9\u516d\u6240
p3853
I1
sV\u4e03\u5341\u4e8c
p3854
I1
sV\u5e94\u7528\u6027
p3855
I1
sV\u5b59\u5b50
p3856
I2
sV\u6bdb\u6cfd\u4e1c
p3857
I6
sV\u5b66\u672f\u4ea4\u6d41
p3858
I1
sV\u4e07\u4f59\u4eba
p3859
I2
sV\u8003\u8bd5
p3860
I11
sV\u9648\u4f2f\u5439
p3861
I2
sV\u65bd\u5c55
p3862
I2
sV\u5207\u5b9e\u53ef\u884c
p3863
I1
sV\u63a5\u6536
p3864
I6
sV\u65b0\u534e\u793e
p3865
I39
sV\u5404\u4e00\u518c
p3866
I4
sV\u804b\u54d1
p3867
I1
sV\u4e2d\u592e\u6559\u80b2\u79d1\u5b66\u7814\u7a76\u6240
p3868
I1
sV\u6258\u5e7c
p3869
I1
sV\u9ad8\u9752\u53bf
p3870
I1
sV\u5e76\u4e8e
p3871
I1
sV\u4ea4\u901a\u4e8b\u6545
p3872
I1
sV\u5468\u5c81
p3873
I4
sV\u51c6\u786e
p3874
I2
sV\u52b3\u529b
p3875
I1
sV\u5e2e\u53a8
p3876
I1
sV\u68cb\u4e66
p3877
I1
sV\u9ad8\u7b49\u9662\u6821
p3878
I5
sV\u56db\u6b21
p3879
I1
sV\u5973\u5b50
p3880
I1
sV\u519c\u4e1a
p3881
I17
sV\u503e\u6ce8
p3882
I1
sV\u5f00\u62d3
p3883
I1
sV\u505a\u996d
p3884
I1
sV\u4e2a\u4e2a
p3885
I1
sV\u516c\u529e
p3886
I1
sV\u51fd\u6388\u6559\u80b2
p3887
I1
sV\u8463\u4e8b
p3888
I5
sV\u5b81\u590f\u56de\u65cf\u81ea\u6cbb\u533a\u515a\u59d4
p3889
I1
sV\u4e09\u5341\u4e94
p3890
I1
sV\u8d2b\u7620
p3891
I1
sV\u4fe1\u8a89
p3892
I1
sV\u9020\u578b
p3893
I1
sV\u4e00\u95e8
p3894
I4
sV\u603b\u8ba1
p3895
I2
sV\u4e3a\u540d
p3896
I1
sV\u52b3\u52a8
p3897
I18
sV\u6000\u5ff5
p3898
I1
sV\u53c2\u4e0e
p3899
I3
sV\u52b3\u52a8\u6559\u80b2
p3900
I2
sV\u773c\u5149
p3901
I1
s.