(dp1
V\u6c89\u9759
p2
I1
sV\u65e7\u65f6
p3
I1
sV\u5c45\u4e8e
p4
I2
sV\u6d77\u5ce1\u4e24\u5cb8
p5
I2
sV\u6f33\u5dde
p6
I1
sV\u897f\u65b9
p7
I23
sV\u6ca6\u9677
p8
I1
sV\u989c\u56de
p9
I1
sV\u5bcc\u88d5
p10
I1
sV\u9f13\u52b1\u5956
p11
I1
sV\u51dd\u805a
p12
I2
sV\u6b27\u98ce\u7f8e\u96e8
p13
I1
sV\u575a\u5b9e
p14
I1
sV\u7a00\u4e16
p15
I1
sV\u575a\u5b9a
p16
I1
sV\u5de5\u827a
p17
I8
sV\u6587\u5316\u793c\u54c1
p18
I1
sV\u4e00\u5bb6\u4eba
p19
I1
sV\u4e09\u7ec4
p20
I1
sV\u8ba9\u5ea7
p21
I1
sV\u516d\u4e00
p22
I1
sV\u8d27\u5e97
p23
I1
sV\u697c\u5170
p24
I1
sV\u7f8e\u5f0f
p25
I1
sV\u591a\u54e5
p26
I1
sV\u8c08\u5230
p27
I1
sV\u7089\u706b\u7eaf\u9752
p28
I1
sV\u6c11\u4fd7\u5b66\u5bb6
p29
I1
sV\u53d1\u751f
p30
I1
sV\u51fa\u7248\u54c1
p31
I1
sV\u5305\u88c5
p32
I1
sV\u8bdd\u5267
p33
I2
sV\u4e2d\u5eb8
p34
I1
sV\u4ead\u53f0
p35
I1
sV\u63cf\u5199
p36
I2
sV\u8425\u4e1a
p37
I1
sV\u4f1a\u793e
p38
I2
sV\u6811\u7acb
p39
I1
sV\u5148\u79e6
p40
I2
sV\u5317\u4eac\u4eba\u827a
p41
I3
sV\u770b\u4f5c
p42
I3
sV\u5386\u53f2\u98ce\u8c8c
p43
I1
sV\u6606\u4ed1
p44
I2
sV\u62e5\u6324
p45
I1
sV\u7f8e\u56fd
p46
I24
sV\u8fc1\u6c11\u5bf9
p47
I1
sV\u4e8c\u7b49\u5956
p48
I1
sV\u5171\u8944
p49
I2
sV\u4e2d\u4e13
p50
I1
sV\u4f5b\u6559\u754c
p51
I2
sV\u7ecf\u6d4e\u6587\u5316
p52
I1
sV\u6700\u5168\u9762
p53
I1
sV\u6587\u7269\u4fdd\u62a4
p54
I1
sV\u96be\u4ee5
p55
I1
sV\u5173\u7cfb
p56
I14
sV\u65c5\u6e38\u8005
p57
I1
sV\u6559\u4e66\u5320
p58
I1
sV\u4eca\u4eba
p59
I2
sV\u670d\u88c5\u8282
p60
I1
sV\u63a8\u52a8\u529b
p61
I1
sV\u4e30\u5bcc\u591a\u91c7
p62
I1
sV\u4e16\u7eaa
p63
I4
sV\u4ee5\u4f7f
p64
I1
sV\u77bb\u671b
p65
I1
sV\u89c4\u683c
p66
I1
sV\u8336\u9053
p67
I3
sV\u7ed8\u56fe
p68
I1
sV\u8d4f\u753b
p69
I1
sV\u4ee5\u6587\u5b66
p70
I1
sV\u8c26\u548c
p71
I1
sV\u5343\u5e74
p72
I6
sV\u63e3\u6469
p73
I1
sV\u9001\u8bc4
p74
I1
sV\u7b2c\u4e00
p75
I4
sV\u4f20\u64ad\u5a92\u4f53
p76
I1
sV\u665a\u6e05
p77
I2
sV\u89c9\u9192
p78
I2
sV\u725b\u5ddd
p79
I1
sV\u7b2c\u4e09
p80
I2
sV\u5b98\u5458
p81
I2
sV\u4e3a\u4eba
p82
I3
sV\u8010\u4eba\u5bfb\u5473
p83
I1
sV\u9999\u6c14
p84
I1
sV\u914d\u753b
p85
I2
sV\u7f8e\u5fb7
p86
I1
sV\u7261\u4e39\u4ead
p87
I1
sV\u4e4b\u9053
p88
I2
sV\u901a\u4fd7
p89
I2
sV\u62a5\u520a
p90
I3
sV\u5434\u8336
p91
I2
sV\u6210\u529f
p92
I4
sV\u4e25\u8083
p93
I4
sV\u9a88\u6587
p94
I1
sV\u524d\u5217
p95
I2
sV\u521d\u5b66
p96
I1
sV\u4e0a\u5929
p97
I1
sV\u89c4\u8303\u5316
p98
I3
sV\u5b66\u672f\u7814\u7a76
p99
I2
sV\u4e95\u5c97\u5c71
p100
I1
sV\u4f11\u621a\u76f8\u5173
p101
I1
sV\u6444\u5f71
p102
I3
sV\u89c1\u8bc1
p103
I1
sV\u56e2\u4ee5
p104
I1
sV\u8d77\u6b65
p105
I1
sV\u82b1\u4f1a
p106
I1
sV\u8e0f\u8bbf
p107
I1
sV\u4e00\u70b9\u70b9
p108
I1
sV\u5e73\u7b49
p109
I5
sV\u7ecf\u9a8c
p110
I1
sV\u5165\u573a
p111
I1
sV\u7cfb\u5217
p112
I1
sV\u7b2c\u4e5d
p113
I1
sV\u4f20\u7edf\u8282\u65e5
p114
I4
sV\u5fc5\u5177
p115
I1
sV\u5bf9\u7b49
p116
I1
sV\u7ffb\u8bd1
p117
I1
sV\u5939\u585e\u513f
p118
I1
sV\u8c08\u7b11\u98ce\u751f
p119
I1
sV\u7948\u613f
p120
I1
sV\u9ad8\u626c
p121
I1
sV\u5f97\u610f\u4e4b\u4f5c
p122
I1
sV\u65b0\u95fb
p123
I1
sV\u53f2\u8bba
p124
I2
sV\u6570\u4ee5\u5343\u8ba1
p125
I1
sV\u6539\u7ec4
p126
I1
sV\u6302\u51fa
p127
I1
sV\u4ea7\u54c1
p128
I10
sV\u5185\u6db5
p129
I8
sV\u4e4b\u6cf0\u534a
p130
I1
sV\u4e0d\u8db3\u4e3a\u602a
p131
I1
sV\u4e66\u6cd5\u4f5c\u54c1
p132
I1
sV\u58f0\u4e2d
p133
I1
sV\u7cd6\u7a00
p134
I1
sV\u6479\u672c
p135
I1
sV\u6625\u5929
p136
I2
sV\u6587\u660e\u5c55
p137
I1
sV\u517c\u987e
p138
I1
sV\u4f5b\u6559
p139
I22
sV\u5c0f\u94ed
p140
I1
sV\u901a\u4fe1
p141
I2
sV\u6bcf\u5377
p142
I1
sV\u6df1\u5733\u5e02\u653f\u5e9c
p143
I1
sV\u4ee3\u8868
p144
I4
sV\u5154\u6beb
p145
I1
sV\u9057\u61be
p146
I3
sV\u5c39\u6842\u82b3
p147
I1
sV\u5fc3\u98a4
p148
I1
sV\u8de8\u5ea6
p149
I1
sV\u524d\u53bb
p150
I1
sV\u6587\u5b66\u6279\u8bc4
p151
I1
sV\u56fd\u5185
p152
I2
sV\u4eba\u683c
p153
I3
sV\u5c90\u9091
p154
I1
sV\u745e\u5a1f
p155
I1
sV\u5b8f\u89c2
p156
I1
sV\u5236\u6210
p157
I2
sV\u4e3b\u89c2
p158
I1
sV\u4e5d\u6708
p159
I2
sV\u4e0d\u4e3a\u4e94\u6597\u7c73\u6298\u8170
p160
I1
sV\u6625\u8282\u665a\u4f1a
p161
I2
sV\u5e2d\u6cfd\u5b97
p162
I2
sV\u8bd1\u7ecf\u53ca
p163
I1
sV\u5f20\u7422
p164
I1
sV\u53f3\u8bfb
p165
I1
sV\u9f13\u5439
p166
I1
sV\u8c03\u67e5\u7814\u7a76
p167
I1
sV\u5c97\u4f4d
p168
I1
sV\u6c11\u65cf\u6587\u5316
p169
I6
sV\u529f\u80fd
p170
I2
sV\u6d41\u884c\u97f3\u4e50
p171
I1
sV\u4e92\u8865
p172
I3
sV\u8bfb\u4e66
p173
I1
sV\u8336\u5177
p174
I1
sV\u6709\u793c
p175
I2
sV\u7f1c\u5bc6
p176
I1
sV\u5bf9\u7acb
p177
I4
sV\u91cd\u5546
p178
I3
sV\u6821\u9645
p179
I2
sV\u8fd9\u662f
p180
I16
sV\u9ad8\u8d28\u91cf
p181
I1
sV\u6f8e\u6e43
p182
I1
sV\u573a\u6240
p183
I1
sV\u524a\u5f31
p184
I1
sV\u65b0\u5e74\u4f0a\u59cb
p185
I1
sV\u6dfb\u8fdb
p186
I1
sV\u8bbf\u8c08
p187
I1
sV\u7965\u4e91
p188
I1
sV\u4ee5\u6587
p189
I1
sV\u4e0a\u5c09
p190
I1
sV\u6b27\u6d32
p191
I4
sV\u79f0\u505a
p192
I1
sV\u5b66\u8d39
p193
I1
sV\u516b\u6708
p194
I2
sV\u594b\u53d1\u5411\u4e0a
p195
I1
sV\u5b66\u6d3e
p196
I2
sV\u9ad8\u7ea7\u5de5\u7a0b\u5e08
p197
I1
sV\u8840\u6d53\u4e8e\u6c34
p198
I2
sV\u665a\u4f1a
p199
I3
sV\u6570\u7406\u5316
p200
I1
sV\u672a\u6765
p201
I2
sV\u81f3\u5173\u91cd\u8981
p202
I1
sV\u5143\u9996
p203
I1
sV\u603b\u4f53
p204
I1
sV\u5355\u4f4d
p205
I6
sV\u6068\u4e0d\u5f97
p206
I1
sV\u5f62\u6001
p207
I1
sV\u4eba\u4e0a
p208
I1
sV\u4e3a\u4f8b
p209
I2
sV\u4e50\u575b
p210
I1
sV\u53cc\u91cd
p211
I1
sV\u53f0\u6e7e
p212
I46
sV\u7b2c\u4e00\u6b21
p213
I2
sV\u97f3\u4e50\u5385
p214
I1
sV\u6d41\u5931
p215
I1
sV\u63ed\u9732
p216
I1
sV\u5c0a\u4e25
p217
I1
sV\u957f\u8005
p218
I1
sV\u7cdf\u7c95
p219
I3
sV\u5438\u5f15
p220
I2
sV\u66fc\u8c37
p221
I1
sV\u9610\u8ff0
p222
I1
sV\u6731\u5b97
p223
I1
sV\u827a\u672f\u7247
p224
I2
sV\u82b1\u9f13\u620f
p225
I1
sV\u56e2\u4e2d\u592e
p226
I1
sV\u4e2d\u56fd\u5c11\u5e74\u5148\u950b\u961f
p227
I2
sV\u5e73\u5e38
p228
I1
sV\u97f3\u54cd
p229
I1
sV\u7b80\u5355
p230
I2
sV\u53f0\u4e0a
p231
I1
sV\u53f0\u4e0b
p232
I1
sV\u4eba\u7c7b\u5b66
p233
I2
sV\u56fd\u9645\u7535\u5f71\u8282
p234
I1
sV\u73e0\u6c5f\u4e09\u89d2\u6d32
p235
I1
sV\u5584\u826f
p236
I1
sV\u68c0\u70b9
p237
I1
sV\u6587\u5316\u7814\u7a76
p238
I5
sV\u5609\u6728
p239
I10
sV\u683c\u5c40
p240
I7
sV\u9000\u51fa
p241
I1
sV\u7b11\u8c08
p242
I1
sV\u56db\u662f
p243
I1
sV\u6570\u5343\u4e07
p244
I1
sV\u6c42\u8d2d
p245
I1
sV\u767d\u4e91\u5c71
p246
I1
sV\u76ee\u5149
p247
I1
sV\u674e\u6e90\u6f6e
p248
I1
sV\u793a\u6807\u6027
p249
I1
sV\u7814\u7a76\u5458
p250
I5
sV\u4e2d\u6c42
p251
I2
sV\u4e4b\u672b
p252
I2
sV\u5b66\u4eba
p253
I4
sV\u5f3a\u5927
p254
I1
sV\u5468\u5e74\u7eaa\u5ff5
p255
I1
sV\u514b\u96f7\u8482\u5b89
p256
I1
sV\u5bff\u5c71\u77f3
p257
I1
sV\u6e38\u4eba
p258
I1
sV\u4e24\u5cb8\u5173\u7cfb
p259
I3
sV\u52a0\u6df1
p260
I1
sV\u5f55\u50cf\u7247
p261
I1
sV\u5c0f\u54c1
p262
I1
sV\u4e2d\u56fd\u4eba
p263
I8
sV\u827e\u59c6\u65af
p264
I1
sV\u5c06\u4e8e
p265
I4
sV\u5b8c\u5584
p266
I1
sV\u6324\u524d
p267
I1
sV\u5982\u6709
p268
I1
sV\u5178\u7c4d
p269
I2
sV\u4e00\u682a
p270
I1
sV\u4e1c\u897f
p271
I9
sV\u6574\u6574
p272
I2
sV\u79d1\u5b66\u5bb6
p273
I1
sV\u94dc\u7248\u7eb8
p274
I1
sV\u5370\u8c61
p275
I2
sV\u4f18\u957f
p276
I1
sV\u4e0d\u5bb9\u5ffd\u89c6
p277
I1
sV\u9a7b\u7f8e
p278
I1
sV\u65e0\u6240\u89e3
p279
I1
sV\u77e5\u540d
p280
I1
sV\u4e9a\u8fd0\u4f1a
p281
I1
sV\u6587\u5e93
p282
I10
sV\u9996\u6b21
p283
I1
sV\u5927\u8857\u5c0f\u5df7
p284
I1
sV\u552f\u5fc3
p285
I1
sV\u7d20\u8d28
p286
I7
sV\u53d8\u8fc1
p287
I3
sV\u7535\u5f71\u7247
p288
I1
sV\u8bed\u6cd5
p289
I1
sV\u516c\u4f17
p290
I4
sV\u4e09\u7b49\u5956
p291
I1
sV\u5148\u8f88
p292
I1
sV\u6597\u4e89\u53f2
p293
I1
sV\u6c5f\u5947\u6d9b
p294
I1
sV\u8d70\u4e0a
p295
I4
sV\u8d70\u4e0b
p296
I1
sV\u8bb3\u8a00
p297
I1
sV\u900f\u9732
p298
I1
sV\u62ef\u6551
p299
I1
sV\u673a\u5173
p300
I1
sV\u786c\u6027
p301
I1
sV\u5730\u8bf4
p302
I7
sV\u6697\u55bb
p303
I1
sV\u8fce\u5949\u60c5
p304
I1
sV\u6c49\u8bed
p305
I2
sV\u6ce8\u7ecf
p306
I1
sV\u6e05\u65b0
p307
I1
sV\u793e\u4f1a\u7ba1\u7406
p308
I1
sV\u8d35\u5dde
p309
I1
sV\u8d5e\u7f8e
p310
I2
sV\u56ed\u5703
p311
I2
sV\u6500\u8d8a
p312
I1
sV\u521b\u4e1a
p313
I1
sV\u4e92\u8bbf
p314
I4
sV\u4e00\u4e3b\u64b0
p315
I1
sV\u6bcf\u6b21
p316
I1
sV\u4eba\u6240\u5171\u77e5
p317
I1
sV\u94a2\u7434\u5bb6
p318
I1
sV\u8bbf\u95ee\u56e2
p319
I5
sV\u4e1b\u520a
p320
I2
sV\u7814\u5236
p321
I1
sV\u7fa4\u4f17
p322
I2
sV\u8fd1\u5343\u79cd
p323
I1
sV\u5982\u884c\u59ff
p324
I1
sV\u5e72\u6270
p325
I1
sV\u8c22\u8c22
p326
I2
sV\u9999\u6e2f
p327
I11
sV\u5b50\u7f55
p328
I1
sV\u7814\u7a76\u4e2d\u5fc3
p329
I1
sV\u663c\u591c
p330
I1
sV\u98d8\u5e26
p331
I1
sV\u666e\u901a\u8bdd
p332
I1
sV\u540c\u8f89
p333
I1
sV\u56fd\u6307
p334
I1
sV\u957f\u9014\u7535\u8bdd
p335
I1
sV\u4e4b\u6797
p336
I3
sV\u56ed\u5730
p337
I1
sV\u5bf9\u8bdd
p338
I4
sV\u6742\u82b1\u751f\u6811
p339
I1
sV\u8f6c\u79fb
p340
I1
sV\u5185\u5bb9\u4e30\u5bcc
p341
I1
sV\u5bf9\u5916
p342
I7
sV\u89c6\u800c\u4e0d\u89c1
p343
I1
sV\u6881\u542f\u8d85
p344
I3
sV\u5f97\u89c1
p345
I1
sV\u5e0c\u671b\u5de5\u7a0b
p346
I1
sV\u5207\u5b9e
p347
I1
sV\u526f\u90e8\u7ea7
p348
I2
sV\u66fc\u837c\u7f57
p349
I5
sV\u4e0d\u5728
p350
I1
sV\u5b66\u672f\u4f1a\u8bae
p351
I2
sV\u5b66\u4e60
p352
I14
sV\u96c6\u5e02
p353
I1
sV\u4f1a\u901a
p354
I2
sV\u5171\u8bc6
p355
I4
sV\u4e24\u5bb6
p356
I2
sV\u7c73\u7ebf
p357
I1
sV\u4e0d\u602a
p358
I1
sV\u51fa\u65b0
p359
I2
sV\u6625\u82b3
p360
I1
sV\u793c\u7269
p361
I1
sV\u5a31\u4e50\u4e1a
p362
I1
sV\u4f5c\u6587\u9898
p363
I1
sV\u5fc3\u58f0
p364
I1
sV\u4e24\u5b8b
p365
I1
sV\u90a3\u79cd
p366
I2
sV\u5f20\u4ef2\u7b49
p367
I1
sV\u7406\u667a
p368
I1
sV\u9634\u5f71
p369
I1
sV\u8fd9\u65b9
p370
I1
sV\u9009\u4e2d
p371
I1
sV\u81ea\u89c9
p372
I5
sV\u964c\u751f
p373
I1
sV\u4e1c\u897f\u65b9
p374
I2
sV\u62a5\u9053
p375
I3
sV\u76db\u5ba3\u6000
p376
I1
sV\u9752\u5e74
p377
I8
sV\u62a4\u8def
p378
I1
sV\u606f\u606f\u76f8\u901a
p379
I1
sV\u8bad\u7ec3
p380
I2
sV\u8bd1\u4e3a
p381
I2
sV\u7530\u9ec4\u77f3
p382
I2
sV\u9500\u5f80
p383
I1
sV\u75f0\u76c2
p384
I1
sV\u65bd\u60e0
p385
I1
sV\u9b45\u529b
p386
I3
sV\u6073\u6c42
p387
I1
sV\u5d14\u9526
p388
I1
sV\u5c61\u89c1\u4e0d\u9c9c
p389
I1
sV\u5c0f\u59d1\u5a18
p390
I1
sV\u4e1c\u4e9a
p391
I9
sV\u6dfb\u7816\u52a0\u74e6
p392
I1
sV\u865a\u6000\u82e5\u8c37
p393
I2
sV\u8d4f\u9e1f
p394
I1
sV\u821e\u53f0
p395
I6
sV\u4e2d\u56fd\u793e\u4f1a\u79d1\u5b66\u51fa\u7248\u793e
p396
I1
sV\u503e\u5012
p397
I1
sV\u54f2\u5b66
p398
I3
sV\u5b50\u7edd
p399
I1
sV\u7535\u89c6\u673a
p400
I1
sV\u7b3c\u5185
p401
I1
sV\u5bfc\u5411
p402
I1
sV\u56fd\u6280
p403
I1
sV\u7b3c\u7f69
p404
I1
sV\u4e00\u53bb\u4e0d\u590d\u8fd4\u4e86
p405
I2
sV\u6c11\u65cf
p406
I75
sV\u9752\u5e74\u4eba
p407
I2
sV\u7c97\u6d45
p408
I1
sV\u6c11\u65cf\u53f2
p409
I1
sV\u6728\u5076
p410
I1
sV\u4e0b\u5730
p411
I1
sV\u97f3\u4e50\u754c
p412
I2
sV\u5173\u5fc3
p413
I2
sV\u845b\u900a
p414
I1
sV\u5207\u78cb
p415
I1
sV\u4e0d\u96be
p416
I1
sV\u5e74\u7684\u5386\u53f2
p417
I3
sV\u5357\u4eac\u5927\u5b66\u4e2d\u6587\u7cfb
p418
I1
sV\u7b56\u7565
p419
I1
sV\u8bb8\u8bb8\u591a\u591a
p420
I1
sV\u6c11\u65cf\u6027
p421
I2
sV\u90b9\u53cb\u5f00
p422
I1
sV\u4e0d\u5fc5\u8981
p423
I1
sV\u4f9b\u517b
p424
I3
sV\u65f6\u4ee3\u6027
p425
I1
sV\u540c\u4e49
p426
I1
sV\u7e41\u534e
p427
I1
sV\u524d\u91d1
p428
I1
sV\u5c55\u89c8
p429
I17
sV\u7a7f\u8fc7
p430
I2
sV\u6b21\u795e
p431
I1
sV\u52a8\u4eba
p432
I1
sV\u6c11\u65cf\u97f3\u4e50
p433
I1
sV\u6b66\u5219\u5929
p434
I3
sV\u632f\u594b
p435
I1
sV\u60c5\u7ed3
p436
I1
sV\u4e00\u4ee3\u4ee3
p437
I1
sV\u8d74\u6cd5
p438
I2
sV\u767e\u5e74
p439
I3
sV\u5e7d\u9ed8
p440
I1
sV\u5ef6\u5b89
p441
I1
sV\u95f5\u60e0\u82ac
p442
I1
sV\u65f6\u8bf4
p443
I1
sV\u8d70\u8fc7
p444
I1
sV\u719f\u6089
p445
I2
sV\u6155\u5c3c\u9ed1
p446
I1
sV\u8d70\u4fcf
p447
I1
sV\u5f20\u56fd
p448
I2
sV\u6d53\u539a
p449
I2
sV\u6709\u507f
p450
I2
sV\u4e2d\u592e\u4e50\u56e2
p451
I1
sV\u610f\u8bc6
p452
I5
sV\u5e74\u95f4
p453
I1
sV\u5148\u9a71
p454
I1
sV\u6210\u719f
p455
I1
sV\u7ed8\u753b
p456
I5
sV\u594b\u6597
p457
I1
sV\u8bbf\u534e
p458
I1
sV\u8212\u9002
p459
I1
sV\u672c\u4e16\u7eaa
p460
I2
sV\u8272\u5f69
p461
I1
sV\u5c0f\u8bf4\u5bb6
p462
I1
sV\u89c4\u6a21\u5927
p463
I1
sV\u540c\u4ee5
p464
I1
sV\u6742\u6280
p465
I6
sV\u5218\u5b8f
p466
I1
sV\u5305\u5bb9\u6027
p467
I1
sV\u4e54\u4e39
p468
I1
sV\u5411\u8d39
p469
I1
sV\u820d\u5229
p470
I4
sV\u7a0b\u7ae5
p471
I2
sV\u521b\u4f5c
p472
I16
sV\u4e00\u4ee3\u4eba
p473
I1
sV\u6734\u5b9e\u65e0\u534e
p474
I1
sV\u8336\u53f2
p475
I1
sV\u4e24\u79cd
p476
I1
sV\u7248\u5f0f
p477
I1
sV\u8336\u53f6
p478
I3
sV\u6b4c\u5531
p479
I1
sV\u6253\u5b98\u53f8
p480
I1
sV\u5de5\u56e2\u4e3b\u4e49
p481
I1
sV\u4f01\u4e1a
p482
I3
sV\u5c0f\u82b3
p483
I1
sV\u753b\u4e2d
p484
I1
sV\u81ea\u53e4\u4ee5\u6765
p485
I1
sV\u540c\u4ec1
p486
I1
sV\u62cd\u62cd
p487
I1
sV\u574d\u584c
p488
I2
sV\u7bad\u5934
p489
I1
sV\u6587\u660e\u7ebf
p490
I1
sV\u7f3a\u6b20
p491
I1
sV\u7cbe\u534e
p492
I6
sV\u594b\u8d77
p493
I1
sV\u5bcc\u8d35\u4e0d\u80fd\u6deb
p494
I1
sV\u653f\u7b56\u6cd5\u89c4
p495
I1
sV\u7247\u9762\u6027
p496
I1
sV\u663e\u793a
p497
I1
sV\u4e2d\u56fd\u793e\u79d1\u9662
p498
I4
sV\u9053\u573a
p499
I4
sV\u4e2d\u9752\u5e74
p500
I1
sV\u5408\u4f5c\u5173\u7cfb
p501
I2
sV\u738b\u65ed
p502
I1
sV\u7740\u91cd
p503
I2
sV\u629b\u5f03
p504
I1
sV\u574e\u7279
p505
I2
sV\u5e7f\u64ad
p506
I2
sV\u845b\u7740
p507
I1
sV\u533b\u836f\u754c
p508
I1
sV\u601d\u8003
p509
I4
sV\u524d\u6240\u672a\u89c1
p510
I1
sV\u601d\u800c
p511
I1
sV\u6625\u8c37
p512
I3
sV\u5b88\u5c81
p513
I1
sV\u5ba4\u5916
p514
I1
sV\u4e0d\u51fa
p515
I1
sV\u4e0d\u51c6
p516
I1
sV\u6653\u4f1f
p517
I2
sV\u751f\u673a\u52c3\u52c3
p518
I1
sV\u6b86\u7136
p519
I1
sV\u835f\u8403
p520
I2
sV\u4e0d\u51cf
p521
I1
sV\u6392\u961f
p522
I2
sV\u6a2a\u52a0\u6307\u8d23
p523
I1
sV\u4eac\u5267\u56e2
p524
I1
sV\u6050\u9f99\u86cb
p525
I1
sV\u5c01\u5efa
p526
I2
sV\u4e4b\u611f
p527
I1
sV\u53c2\u89c2\u8005
p528
I2
sV\u6cb9\u58a8
p529
I1
sV\u5982\u9047
p530
I1
sV\u4e0b\u8239
p531
I1
sV\u4f20\u5e03
p532
I1
sV\u57ce\u53a2
p533
I2
sV\u671f\u95f4
p534
I3
sV\u795d\u82f1\u53f0
p535
I1
sV\u6df1\u8fdc
p536
I1
sV\u7f8e\u5b66
p537
I2
sV\u7f16\u8f91
p538
I2
sV\u53e4\u56fd
p539
I1
sV\u65e5\u5e38
p540
I4
sV\u77e5\u803b
p541
I1
sV\u7ea2\u4e00
p542
I1
sV\u5065\u5eb7
p543
I1
sV\u6c5f\u95e8\u5e02
p544
I1
sV\u5b9e\u6307
p545
I2
sV\u4e2d\u592e\u620f\u5267\u5b66\u9662
p546
I1
sV\u9053\u6559
p547
I1
sV\u7406\u60f3
p548
I3
sV\u98ce\u7b5d\u8282
p549
I1
sV\u5feb\u6b65
p550
I1
sV\u6c42\u662f
p551
I2
sV\u5931\u843d
p552
I3
sV\u5e74\u5230
p553
I1
sV\u6587\u5316\u5dee\u5f02
p554
I1
sV\u4e1c\u4f20
p555
I1
sV\u7cbe\u54c1
p556
I5
sV\u60f3\u8c61
p557
I2
sV\u672c\u56fd
p558
I1
sV\u89c2\u70b9
p559
I6
sV\u97f3\u4e50\u5267
p560
I1
sV\u6b4c\u5267
p561
I1
sV\u7eb5\u5411
p562
I1
sV\u8bed\u8a00
p563
I7
sV\u7edf\u4e00\u4f53
p564
I2
sV\u521b\u529e\u4eba
p565
I1
sV\u6559\u52a1\u5de5\u4f5c
p566
I1
sV\u73b0\u5b9e
p567
I6
sV\u4eba\u6b21
p568
I11
sV\u9003\u60c5
p569
I1
sV\u7f8e\u5bb9
p570
I1
sV\u591a\u5f69\u7684
p571
I1
sV\u9636\u6bb5
p572
I1
sV\u7b14\u58a8
p573
I1
sV\u52c7\u4e8e
p574
I1
sV\u8f6f\u5316
p575
I1
sV\u91cd\u70b9
p576
I2
sV\u5fc3\u6c14
p577
I1
sV\u4f5c\u5bb6
p578
I2
sV\u50cf\u85d5\u76ca
p579
I1
sV\u5584\u672c
p580
I1
sV\u732e\u8eab
p581
I2
sV\u540d\u7740
p582
I1
sV\u6f2b\u6b65
p583
I1
sV\u8ba2\u6570
p584
I1
sV\u5893\u524d
p585
I1
sV\u7406\u6027
p586
I3
sV\u53d9\u8ff0
p587
I4
sV\u5730\u8d28
p588
I6
sV\u5411\u5584
p589
I1
sV\u7279\u610f
p590
I1
sV\u82ad\u857e\u821e
p591
I1
sV\u5168\u56fd
p592
I6
sV\u8ffd\u95ee
p593
I1
sV\u60f3\u6cd5
p594
I2
sV\u5927\u897f\u6d0b
p595
I1
sV\u65b0\u95fb\u51fa\u7248\u7f72
p596
I5
sV\u5c0f\u670b\u53cb
p597
I2
sV\u536b\u661f\u901a\u4fe1
p598
I2
sV\u4e00\u4ee3
p599
I5
sV\u8fdb\u884c\u65f6
p600
I1
sV\u6587\u5b66\u7406\u8bba
p601
I1
sV\u4ee3\u8bcd
p602
I1
sV\u601d\u60f3
p603
I30
sV\u767e\u8238\u4e89\u6d41
p604
I1
sV\u4eac\u5267
p605
I1
sV\u70ed\u95e8\u8bdd\u9898
p606
I1
sV\u9001\u5230
p607
I1
sV\u8d2b\u8d31
p608
I1
sV\u4e00\u4ef6
p609
I4
sV\u7ed3\u675f
p610
I1
sV\u76f8\u8f85\u76f8\u6210
p611
I1
sV\u5168\u96c6
p612
I4
sV\u63a8\u884d
p613
I1
sV\u518d\u73b0
p614
I3
sV\u6539\u9769
p615
I1
sV\u7279\u8d28
p616
I1
sV\u5317\u4eac
p617
I20
sV\u5171\u901a
p618
I1
sV\u80cc\u666f
p619
I5
sV\u7559\u5fc3
p620
I2
sV\u4e4b\u95f4
p621
I12
sV\u963f\u82f1
p622
I1
sV\u6587\u79d8
p623
I1
sV\u65b9\u95f9
p624
I1
sV\u98d8\u9999
p625
I1
sV\u4ee4\u4eba
p626
I8
sV\u8fd1\u4e00\u5e74
p627
I1
sV\u95e8\u5e02\u90e8
p628
I2
sV\u51fa\u8272
p629
I1
sV\u540c\u6839
p630
I2
sV\u5c11\u53d1
p631
I1
sV\u5f00\u542f
p632
I2
sV\u6587\u535a\u754c
p633
I1
sV\u7ec6\u81f4
p634
I2
sV\u5f18\u626c
p635
I9
sV\u83b7\u5956
p636
I3
sV\u9762\u8c8c
p637
I1
sV\u5468\u6613
p638
I1
sV\u8206\u8bba
p639
I1
sV\u725b\u987f
p640
I1
sV\u8003\u5165
p641
I1
sV\u8fd9\u6279
p642
I3
sV\u5ef6\u5c55
p643
I1
sV\u8d77\u6e90
p644
I1
sV\u4e43\u7236
p645
I1
sV\u7532\u9aa8\u6587
p646
I1
sV\u8c03\u6574
p647
I1
sV\u968f\u610f
p648
I2
sV\u80e1\u6b23
p649
I2
sV\u4f73\u8bdd
p650
I1
sV\u5360\u6765
p651
I1
sV\u7814\u7a76
p652
I52
sV\u73b0\u4ee3\u5316
p653
I15
sV\u6587\u7ae0
p654
I3
sV\u4e0d\u4ec5\u5982\u6b64
p655
I1
sV\u4e00\u4f4d
p656
I9
sV\u5218\u56fd\u660c
p657
I2
sV\u4e00\u4f53
p658
I10
sV\u90e8\u95e8
p659
I1
sV\u542f\u8499
p660
I1
sV\u6b23\u8d4f
p661
I1
sV\u81ea\u5c0a\u5fc3
p662
I3
sV\u5510\u8bd7
p663
I5
sV\u53e4\u57ce
p664
I1
sV\u62cd\u6444
p665
I1
sV\u827a\u672f\u56e2
p666
I4
sV\u8e0f\u4e0a
p667
I2
sV\u6bcb\u5fc5
p668
I1
sV\u5e86\u5178
p669
I2
sV\u6b63\u5927\u7efc\u827a
p670
I1
sV\u540c\u884c
p671
I4
sV\u7ef5\u5ef6
p672
I2
sV\u4ea4\u5f80
p673
I2
sV\u4eba\u884c\u6a2a\u9053
p674
I1
sV\u5185\u6838
p675
I2
sV\u4e16\u5bb6
p676
I3
sV\u7bc7\u76ee
p677
I1
sV\u6bcb\u5fd8
p678
I1
sV\u4ea4\u54cd\u4e50\u56e2
p679
I5
sV\u652f\u914d
p680
I1
sV\u542c\u8005
p681
I1
sV\u6765\u81ea\u53f0\u6e7e
p682
I1
sV\u54e5\u767d\u5c3c
p683
I1
sV\u4f53\u73b0
p684
I11
sV\u513f\u5973
p685
I2
sV\u9ed8\u4e0d\u4f5c\u58f0
p686
I1
sV\u6458\u6284
p687
I1
sV\u591a\u5143
p688
I9
sV\u5f62\u5f0f\u591a\u6837
p689
I1
sV\u5c0f\u672c
p690
I1
sV\u98ce\u571f\u4eba\u60c5
p691
I1
sV\u9ec4\u6885\u620f
p692
I1
sV\u4f17\u591a
p693
I1
sV\u63a2\u5bfb
p694
I1
sV\u89c2\u7167
p695
I2
sV\u7814\u8ba8\u4f1a
p696
I17
sV\u5510\u4e94
p697
I1
sV\u4e13\u67dc
p698
I1
sV\u665a\u5510
p699
I2
sV\u51b5\u5473
p700
I1
sV\u5bb6\u5c0f
p701
I1
sV\u65c1\u82e5\u65e0\u4eba
p702
I1
sV\u6324\u5f97
p703
I1
sV\u58eb\u5fb7
p704
I1
sV\u5973\u4e3b\u89d2
p705
I1
sV\u53d1\u5c55\u65b9\u5411
p706
I1
sV\u98ce\u6c14\u4e4b\u5148
p707
I1
sV\u55dc\u597d
p708
I1
sV\u6210\u4efd
p709
I1
sV\u5206\u5b50
p710
I2
sV\u9f13\u70b9
p711
I1
sV\u6ca1\u60f3\u5230
p712
I1
sV\u6cd5\u7cfb
p713
I3
sV\u53e4\u5178\u8bd7\u8bcd
p714
I2
sV\u85cf\u4e66
p715
I1
sV\u76ee\u7684
p716
I4
sV\u98de\u4eba
p717
I1
sV\u9ad8\u8ddf\u978b
p718
I2
sV\u5510\u4ee3
p719
I11
sV\u5484\u5484\u903c\u4eba
p720
I1
sV\u547c\u5438
p721
I1
sV\u4e24\u5cb8
p722
I63
sV\u4e2d\u8bf4
p723
I1
sV\u8fd9\u7bc7\u957f
p724
I1
sV\u4e2a\u4eba\u5316
p725
I1
sV\u5728\u6821\u5b66\u751f
p726
I1
sV\u8f70\u52a8
p727
I1
sV\u571f\u7740
p728
I1
sV\u884c\u5c06
p729
I1
sV\u5e74\u4ee3\u521d
p730
I2
sV\u8c6b\u5267
p731
I1
sV\u6625\u79cb\u6218\u56fd
p732
I1
sV\u9976\u6709
p733
I1
sV\u90d1\u5c0f\u745b
p734
I1
sV\u6c34\u5e73
p735
I5
sV\u5404\u7ae0
p736
I1
sV\u6b67\u89c6\u6027
p737
I1
sV\u5149\u5f69
p738
I1
sV\u4e09\u90e8\u66f2
p739
I1
sV\u6536\u56de
p740
I1
sV\u5e76\u5217
p741
I1
sV\u7af9\u5b50
p742
I1
sV\u4e1c\u4eac
p743
I2
sV\u5468\u6e38\u5217\u56fd
p744
I1
sV\u63a8\u5d07
p745
I2
sV\u5217\u5b50
p746
I1
sV\u4e07\u5b57
p747
I3
sV\u6b63\u786e
p748
I4
sV\u60b2\u559c
p749
I1
sV\u707c\u707c
p750
I2
sV\u6587\u5316\u5708
p751
I2
sV\u7814\u7a76\u8005
p752
I1
sV\u51e0\u5bb6
p753
I1
sV\u7b49\u4e8e
p754
I1
sV\u4fdd\u4f51
p755
I1
sV\u513f\u7ae5
p756
I1
sV\u76f4\u89c2
p757
I1
sV\u6765\u53f0
p758
I1
sV\u6587\u5316\u5efa\u8bbe
p759
I2
sV\u54f2\u5b66\u5bb6
p760
I1
sV\u610f\u4e49
p761
I12
sV\u5404\u5927
p762
I1
sV\u589e\u8272
p763
I1
sV\u620f\u5267\u5bb6
p764
I2
sV\u6cd5\u5ead
p765
I1
sV\u65e2\u6709
p766
I3
sV\u4e98\u53e4
p767
I1
sV\u6253\u5165
p768
I1
sV\u611f\u52a8
p769
I1
sV\u6e05\u9192
p770
I1
sV\u5e97\u4e3b
p771
I1
sV\u5317\u4eba
p772
I1
sV\u4f59\u4ef6
p773
I1
sV\u6df1\u6df1
p774
I4
sV\u519b\u4e50
p775
I1
sV\u539f\u5b57
p776
I1
sV\u8d1f\u76d6
p777
I1
sV\u63a5\u89e6
p778
I4
sV\u7535\u8111
p779
I1
sV\u5b66\u672f\u6210\u679c
p780
I2
sV\u5730\u4fdd
p781
I1
sV\u7f8e\u597d
p782
I2
sV\u4f26\u7406\u5b66
p783
I1
sV\u8fbe\u5c14\u6587\u4e3b\u4e49
p784
I1
sV\u4e13\u5fc3\u81f4\u5fd7
p785
I1
sV\u663e\u5b66
p786
I1
sV\u8297\u5267
p787
I1
sV\u753b\u5177
p788
I1
sV\u5f00\u5b66
p789
I1
sV\u6728\u662f
p790
I1
sV\u4e5f\u5c31\u662f
p791
I3
sV\u8c2c\u8bef
p792
I1
sV\u6210\u5458
p793
I2
sV\u5e74\u4ee3\u4e2d\u671f
p794
I1
sV\u8bd7\u610f
p795
I2
sV\u91cd\u7248
p796
I1
sV\u5de5\u827a\u54c1
p797
I1
sV\u5efa\u961f
p798
I1
sV\u4e0d\u601d\u5219
p799
I1
sV\u4ee5\u53ca\u56fd\u5185
p800
I1
sV\u5b57\u773c
p801
I1
sV\u6fc0\u6218
p802
I1
sV\u4ece\u5c0f\u5230\u5927
p803
I1
sV\u53d1\u73b0
p804
I13
sV\u51b0\u706f\u5c55
p805
I1
sV\u54c1\u8317
p806
I1
sV\u4f5b\u5f92
p807
I1
sV\u8d85\u8fc7
p808
I2
sV\u7528\u7eb8
p809
I1
sV\u53f0\u6e7e\u5730\u533a
p810
I2
sV\u6807\u51c6
p811
I1
sV\u4e3e\u63aa
p812
I1
sV\u5e99\u4f1a
p813
I2
sV\u6c89\u91cd
p814
I1
sV\u6253\u51fb\u4e50
p815
I1
sV\u653e\u773c
p816
I1
sV\u65e0\u5f71\u65e0\u8e2a
p817
I1
sV\u5218\u8bd7\u6606
p818
I1
sV\u90d1\u632f\u94ce
p819
I1
sV\u65b9\u5174\u672a\u827e
p820
I1
sV\u957f\u671f
p821
I1
sV\u6765\u534e
p822
I2
sV\u6bcf\u4e00\u7ae0
p823
I1
sV\u8ff7\u4fe1
p824
I2
sV\u904d\u5e03
p825
I1
sV\u6fb3\u5927\u5229\u4e9a
p826
I1
sV\u6d77\u6d0b
p827
I3
sV\u6807\u51fa
p828
I1
sV\u611f\u5230
p829
I1
sV\u627e\u5230
p830
I2
sV\u6cd5\u5f8b
p831
I3
sV\u6d88\u6781
p832
I2
sV\u5199\u5230
p833
I1
sV\u7ebf\u88c5
p834
I1
sV\u997a\u5b50
p835
I1
sV\u51e0\u5929\u6765
p836
I1
sV\u6253\u51fb
p837
I1
sV\u767e\u82b1\u6d32\u6587\u827a\u51fa\u7248\u793e
p838
I1
sV\u7a0b\u5ea6
p839
I5
sV\u4e30\u7855
p840
I1
sV\u6240\u9009
p841
I1
sV\u827a\u672f\u754c
p842
I1
sV\u7814\u7a76\u6210\u679c
p843
I1
sV\u51b0\u5fc3
p844
I2
sV\u57f9\u517b
p845
I3
sV\u7ebd\u5e26
p846
I2
sV\u6700\u53d7
p847
I1
sV\u6000\u7591\u6027
p848
I1
sV\u5927\u90fd\u5e02
p849
I1
sV\u5357\u5f99
p850
I1
sV\u5730\u4f4d
p851
I4
sV\u6458\u81ea
p852
I1
sV\u6bcf\u4f4d
p853
I1
sV\u4f59\u4e2a
p854
I1
sV\u8fdb\u5316\u53f2
p855
I1
sV\u6292\u53d1
p856
I2
sV\u8096\u90a6
p857
I1
sV\u672c\u5957
p858
I1
sV\u6982\u62ec
p859
I1
sV\u4f5b\u6559\u53f2
p860
I3
sV\u96be\u89e3
p861
I1
sV\u53e4\u4ee3\u8bd7\u8bcd
p862
I2
sV\u5efa\u8bbe
p863
I12
sV\u6708\u95f4
p864
I1
sV\u6536\u6709
p865
I1
sV\u4fa7\u91cd
p866
I1
sV\u4f3d\u5229\u7565
p867
I1
sV\u5145\u4f18
p868
I1
sV\u63a8\u7ffb
p869
I2
sV\u7a0d\u5fae
p870
I1
sV\u8fde\u57ce
p871
I1
sV\u8d8a\u591a
p872
I1
sV\u5fc3\u4e0a
p873
I2
sV\u9996\u5c4a
p874
I1
sV\u5c11\u51fa
p875
I1
sV\u7d2b\u7981\u57ce
p876
I1
sV\u7261\u4e39
p877
I1
sV\u65f6\u4ee3
p878
I30
sV\u76d6\u4e16
p879
I1
sV\u6284\u5199
p880
I1
sV\u9e26\u7247\u6218\u4e89
p881
I6
sV\u9c81\u8fc5
p882
I1
sV\u6269\u81f3\u7701
p883
I1
sV\u5de7\u593a\u5929\u5de5
p884
I1
sV\u53e3\u53f7
p885
I1
sV\u7559\u8a00\u7c3f
p886
I1
sV\u6700\u521d
p887
I1
sV\u4e1c\u5317\u4eba
p888
I1
sV\u9009\u8bfb
p889
I3
sV\u95f4\u9694
p890
I1
sV\u7535\u89c6\u8282\u76ee
p891
I1
sV\u673a\u7406
p892
I1
sV\u63cf\u5728
p893
I1
sV\u5d07\u9ad8
p894
I1
sV\u4e00\u8d2f
p895
I1
sV\u968f\u5373
p896
I1
sV\u5927\u540c\u4e2d\u5b66
p897
I1
sV\u89c4\u5f8b\u6027
p898
I3
sV\u5341\u8db3
p899
I1
sV\u5546\u54c1
p900
I1
sV\u6e05\u6670
p901
I1
sV\u5de6\u4e0b\u89d2
p902
I1
sV\u4f20\u5947
p903
I1
sV\u519b\u4f53
p904
I1
sV\u827a\u672f\u54c1
p905
I1
sV\u5377\u672c
p906
I3
sV\u5b66\u8bf4
p907
I2
sV\u6536\u5165
p908
I2
sV\u5931\u671b
p909
I1
sV\u535a\u89c8\u4f1a
p910
I1
sV\u5fb7\u9ad8\u671b\u91cd
p911
I1
sV\u529b\u6c42
p912
I1
sV\u522b\u51fa\u5fc3\u88c1
p913
I1
sV\u4f5b\u6307
p914
I3
sV\u91cd\u5370
p915
I4
sV\u81ea\u8c6a
p916
I2
sV\u89e3\u51b3
p917
I2
sV\u6536\u517b
p918
I1
sV\u656c\u4e1a
p919
I1
sV\u6e38\u8bf4
p920
I1
sV\u8d5e\u53f9
p921
I2
sV\u8a89\u4e3a
p922
I1
sV\u4e66\u6cd5
p923
I4
sV\u8f7b\u89c6
p924
I1
sV\u5426\u5b9a
p925
I7
sV\u56fd\u53f2
p926
I1
sV\u95ee\u6d25
p927
I1
sV\u627f\u529e\u5355\u4f4d
p928
I1
sV\u53c8\u662f
p929
I3
sV\u6765\u65e5
p930
I1
sV\u5404\u9879
p931
I1
sV\u5546\u7528
p932
I1
sV\u6c49\u4ee3
p933
I2
sV\u5eb7\u6709\u4e3a
p934
I1
sV\u6587\u5b57
p935
I9
sV\u6a2a\u7a7f
p936
I1
sV\u8fdc\u89c1\u5353\u8bc6
p937
I2
sV\u7ea6\u8bf7
p938
I2
sV\u8bd7\u8bcd
p939
I2
sV\u667a\u6167
p940
I1
sV\u6597\u4e89
p941
I1
sV\u4e34\u5211
p942
I1
sV\u9762\u4e34
p943
I3
sV\u6d89\u53ca
p944
I3
sV\u91cd\u73b0
p945
I4
sV\u771f\u7406
p946
I11
sV\u6cd5\u5ea6
p947
I2
sV\u540e\u4ee3\u4eba
p948
I1
sV\u6311\u5254
p949
I1
sV\u65f6\u8fc7
p950
I1
sV\u5730\u4e3a
p951
I1
sV\u811a\u6b65
p952
I1
sV\u70ab\u76ee
p953
I3
sV\u6587\u5b66
p954
I20
sV\u552f\u5229\u662f\u56fe
p955
I1
sV\u897f\u65b9\u4eba
p956
I1
sV\u5b9e\u60e0
p957
I1
sV\u8054\u8c0a
p958
I1
sV\u6563\u53d1
p959
I1
sV\u5229\u6da6
p960
I1
sV\u5c5e\u6027
p961
I1
sV\u9ad8\u7ea7
p962
I2
sV\u81ea\u77e5\u4e4b\u660e
p963
I2
sV\u7248\u672c
p964
I1
sV\u81ea\u6211\u6807\u699c
p965
I1
sV\u62db\u6447\u8fc7\u5e02
p966
I1
sV\u4e0d\u5229
p967
I1
sV\u7ed3\u6676
p968
I2
sV\u5c11\u513f
p969
I2
sV\u8bc4\u59d4\u4f1a
p970
I1
sV\u6709\u660e\u661f
p971
I1
sV\u4e0a\u73ed\u65cf
p972
I1
sV\u4ece\u653f
p973
I1
sV\u534e\u65b0
p974
I2
sV\u6388\u6743
p975
I2
sV\u524d\u957f
p976
I1
sV\u6765\u5230
p977
I1
sV\u6d69\u5927
p978
I1
sV\u8ffd\u9010
p979
I1
sV\u7ecf\u6d4e
p980
I11
sV\u5e73\u6613
p981
I2
sV\u73cd\u89c6
p982
I1
sV\u6842\u51a0
p983
I1
sV\u4eb2\u60c5
p984
I2
sV\u7f8e\u56fd\u590f\u5a01\u5937\u5927\u5b66
p985
I1
sV\u65b9\u8a00
p986
I1
sV\u5c0f\u57ce\u9547
p987
I1
sV\u6807\u70b9
p988
I1
sV\u534e\u6587
p989
I2
sV\u7f6a\u884c
p990
I1
sV\u70ed\u8877
p991
I1
sV\u6c42\u65b0
p992
I1
sV\u79e9\u5e8f
p993
I3
sV\u8bd5\u9a8c
p994
I1
sV\u6c89\u6ca6
p995
I1
sV\u8d1f\u9762
p996
I2
sV\u5c0f\u6842\u82b1
p997
I1
sV\u627e\u51fa
p998
I1
sV\u5f71\u7247
p999
I5
sV\u5f00\u6398
p1000
I6
sV\u7cbe\u7cb9
p1001
I2
sV\u676d\u6c0f
p1002
I3
sV\u5b9e\u4f53
p1003
I3
sV\u76f8\u7ee7
p1004
I2
sV\u7279\u6027
p1005
I1
sV\u4e0a\u6447\u6765
p1006
I1
sV\u5b66\u672f\u754c
p1007
I2
sV\u8bba\u70b9
p1008
I1
sV\u5185\u655b
p1009
I1
sV\u8bfb\u672c
p1010
I1
sV\u65e5\u524d
p1011
I1
sV\u76df\u56fd
p1012
I1
sV\u81ea\u53f3\u5f80
p1013
I1
sV\u5386\u53f2\u6587\u5316
p1014
I12
sV\u4e0b\u5c4a
p1015
I1
sV\u8d2d\u7968
p1016
I1
sV\u8868\u6f14
p1017
I1
sV\u7d20\u6750
p1018
I1
sV\u827a\u672f\u5bb6
p1019
I6
sV\u5370\u5237\u54c1
p1020
I1
sV\u4e3a\u9898
p1021
I1
sV\u5f3a\u5316
p1022
I1
sV\u5e02\u53bf
p1023
I1
sV\u9610\u660e
p1024
I1
sV\u4e0b\u5c5e
p1025
I1
sV\u8303\u7574
p1026
I2
sV\u4e00\u6240
p1027
I1
sV\u670d\u52a1
p1028
I1
sV\u9648\u9f13\u5e94
p1029
I1
sV\u7f6e\u4e8e
p1030
I1
sV\u6809\u6c90
p1031
I1
sV\u6c89\u7f13
p1032
I1
sV\u8fb9\u585e
p1033
I1
sV\u53f0\u6e2f\u6fb3
p1034
I1
sV\u4e13\u6a2a
p1035
I1
sV\u7f16\u6392
p1036
I1
sV\u540d\u5bb6
p1037
I5
sV\u9ad8\u54c1\u4f4d
p1038
I1
sV\u6539\u7a3f
p1039
I1
sV\u6fc0\u53d1
p1040
I1
sV\u6b63\u5f0f
p1041
I3
sV\u540d\u8d35
p1042
I3
sV\u5c71\u884c
p1043
I1
sV\u72ec\u4e00\u65e0\u4e8c
p1044
I1
sV\u674e\u9e3f\u7ae0
p1045
I2
sV\u4e94\u56db
p1046
I8
sV\u4e2d\u662f
p1047
I1
sV\u793e\u4f1a\u6587\u5316
p1048
I3
sV\u4fee\u5b97\u8fea
p1049
I1
sV\u4e50\u5e9c
p1050
I1
sV\u4f18\u7f3a
p1051
I1
sV\u4f4e\u58f0\u7ec6\u8bed
p1052
I1
sV\u56fd\u9645\u6027
p1053
I2
sV\u81ea\u5728
p1054
I2
sV\u8001\u4eba
p1055
I2
sV\u674e\u6e14
p1056
I5
sV\u62a5\u7eb8
p1057
I4
sV\u8fd1\u4ee3\u53f2
p1058
I2
sV\u665a\u660e
p1059
I1
sV\u4e49\u7406
p1060
I1
sV\u5c11\u5e74
p1061
I5
sV\u4e2d\u534e\u6587\u5316
p1062
I27
sV\u4f5c\u66f2\u5bb6
p1063
I1
sV\u5fc3\u6001
p1064
I2
sV\u6df1\u631a
p1065
I1
sV\u6539\u7ad6\u8bfb
p1066
I1
sV\u5e94\u662f
p1067
I1
sV\u80cc\u8bf5
p1068
I1
sV\u5c9b\u5185
p1069
I8
sV\u8f6c\u53d1
p1070
I1
sV\u6b27\u6d32\u8054\u76df
p1071
I1
sV\u66f4\u591a
p1072
I4
sV\u9707\u60ca
p1073
I2
sV\u8ddf\u7740
p1074
I1
sV\u5916\u516b\u5e99
p1075
I1
sV\u51b0\u51b0
p1076
I1
sV\u5185\u759a\u611f
p1077
I1
sV\u65e2\u8981
p1078
I4
sV\u516c\u8bc1\u5de5\u4f5c
p1079
I1
sV\u5fae\u5f2f
p1080
I1
sV\u7814\u7a76\u5de5\u4f5c
p1081
I2
sV\u7f72\u957f
p1082
I1
sV\u589e\u591a
p1083
I4
sV\u64cd\u5b88
p1084
I1
sV\u738b\u6587\u5a1f
p1085
I1
sV\u6587\u5316\u4eba
p1086
I2
sV\u8bbe\u8ba1\u65b0\u9896
p1087
I1
sV\u540d\u5b57
p1088
I1
sV\u53f0\u6e7e\u6d77\u57fa\u4f1a
p1089
I1
sV\u9014\u5f84
p1090
I1
sV\u767e\u5206\u4e4b
p1091
I1
sV\u4e2d\u56fd\u56fd\u9645\u5e7f\u64ad\u7535\u53f0
p1092
I1
sV\u706d\u79c1
p1093
I2
sV\u7b2c\u5341\u5c4a
p1094
I1
sV\u76db\u4f1a
p1095
I3
sV\u53c2\u4e0e
p1096
I1
sV\u5e74\u5e95
p1097
I1
sV\u4fef\u9996\u7518\u4e3a\u5b7a\u5b50\u725b
p1098
I1
sV\u5f00\u653e
p1099
I3
sV\u63ed\u5e55
p1100
I1
sV\u666f\u745e
p1101
I1
sV\u6210\u7ae0
p1102
I1
sV\u4e5d\u5341\u4e94
p1103
I1
sV\u7126\u70b9\u8bbf\u8c08
p1104
I1
sV\u5f53\u4ee3
p1105
I10
sV\u5168\u7ae0
p1106
I1
sV\u6709\u5229\u4e8e
p1107
I1
sV\u7edf\u4e00
p1108
I9
sV\u8bb2\u7a76
p1109
I3
sV\u5341\u6765
p1110
I1
sV\u8f9b\u4ea5\u9769\u547d
p1111
I5
sV\u738b\u9996\u9053
p1112
I1
sV\u63d0\u4f9b
p1113
I5
sV\u6b4c\u66f2
p1114
I1
sV\u7236\u6bcd
p1115
I2
sV\u89c6\u70b9
p1116
I1
sV\u78b0\u58c1
p1117
I2
sV\u5218\u70bd
p1118
I1
sV\u6210\u7acb
p1119
I2
sV\u63a8\u51fa
p1120
I3
sV\u5927\u6bb5
p1121
I1
sV\u5730\u65b9
p1122
I4
sV\u626c\u7709\u5410\u6c14
p1123
I1
sV\u6cbf\u6d77
p1124
I1
sV\u51fa\u4e66
p1125
I2
sV\u7814\u7a76\u6240
p1126
I1
sV\u6d3b\u6cfc
p1127
I1
sV\u5f20\u5c71
p1128
I1
sV\u601d\u60f3\u6559\u80b2
p1129
I3
sV\u5510\u671d
p1130
I2
sV\u6539\u5f26\u66f4\u5f20
p1131
I1
sV\u7ebf\u6761
p1132
I1
sV\u4e0d\u4e45\u524d
p1133
I2
sV\u5f20\u6dd1\u5170
p1134
I2
sV\u4f3c\u5730
p1135
I1
sV\u7559\u4e0b\u6765
p1136
I2
sV\u89c1\u5730
p1137
I1
sV\u6e05\u4ee5
p1138
I1
sV\u5de5\u4f5c\u5185\u5bb9
p1139
I1
sV\u7480\u74a8
p1140
I1
sV\u7acb\u4e8e
p1141
I1
sV\u4f53\u80b2\u754c
p1142
I1
sV\u5b85\u9662
p1143
I1
sV\u9ad8\u8bba
p1144
I1
sV\u6587\u5b57\u6e38\u620f
p1145
I1
sV\u4fee\u517b
p1146
I2
sV\u540d\u753b
p1147
I1
sV\u8054\u7ec7
p1148
I1
sV\u5386\u53f2\u6587\u732e
p1149
I1
sV\u968f\u5730
p1150
I1
sV\u795e\u79d8
p1151
I2
sV\u6559\u6388
p1152
I12
sV\u77ed\u7bc7
p1153
I1
sV\u8fd9\u4e0d
p1154
I1
sV\u5b89\u5168\u611f
p1155
I1
sV\u73b0\u6709
p1156
I1
sV\u65e9\u5c31
p1157
I1
sV\u8fd9\u4e00
p1158
I5
sV\u65e5\u665a
p1159
I1
sV\u4e2d\u6709
p1160
I2
sV\u5b81\u590f
p1161
I1
sV\u74f7\u5668
p1162
I2
sV\u5168\u5e02
p1163
I1
sV\u6587\u5316\u53d1\u5c55
p1164
I2
sV\u6240\u5f97
p1165
I1
sV\u65b0\u5c45
p1166
I2
sV\u51cf\u4ef7
p1167
I1
sV\u91c7\u98ce
p1168
I2
sV\u9996\u521b
p1169
I2
sV\u547d\u8fd0
p1170
I2
sV\u86ee\u6a2a
p1171
I1
sV\u53d1\u5c55
p1172
I46
sV\u9ec4\u6960\u68ee
p1173
I1
sV\u6210\u5176\u4e3a
p1174
I2
sV\u4e89\u5435
p1175
I1
sV\u5973\u6743\u4e3b\u4e49
p1176
I1
sV\u62dc\u91d1\u4e3b\u4e49
p1177
I1
sV\u6536\u5f55
p1178
I1
sV\u6452\u5f03
p1179
I2
sV\u7b80\u5316
p1180
I1
sV\u5c0a\u8001\u7231\u5e7c
p1181
I1
sV\u878d\u901a
p1182
I1
sV\u9882\u5e86
p1183
I1
sV\u63ed\u5f00
p1184
I1
sV\u4e24\u90e8
p1185
I1
sV\u793e\u4f1a\u7ecf\u6d4e
p1186
I1
sV\u67f4\u53ef\u592b\u65af\u57fa
p1187
I1
sV\u9002\u5408
p1188
I3
sV\u5728\u624b
p1189
I1
sV\u4e24\u9762\u6027
p1190
I1
sV\u6302\u4e00\u6f0f\u4e07
p1191
I1
sV\u6284\u5f15
p1192
I1
sV\u758f\u5bc6
p1193
I1
sV\u5929\u6587\u6570\u5b57
p1194
I1
sV\u5e03\u9c81\u8bfa
p1195
I1
sV\u60c5\u611f
p1196
I4
sV\u52a1\u5b9e
p1197
I2
sV\u5916\u6587
p1198
I1
sV\u6eda\u96ea\u7403
p1199
I1
sV\u5317\u4eac\u5e02\u6587\u5316\u5c40
p1200
I1
sV\u6fb3\u95e8
p1201
I2
sV\u5e94\u6709
p1202
I3
sV\u6765\u5c55
p1203
I1
sV\u8d5e\u626c
p1204
I2
sV\u5355\u8c03
p1205
I1
sV\u6218\u7ebf
p1206
I1
sV\u5b9d\u5854
p1207
I4
sV\u535c\u52d2
p1208
I1
sV\u8001\u5f31\u75c5\u6b8b
p1209
I1
sV\u77f3\u6599
p1210
I1
sV\u51fa\u8eab
p1211
I1
sV\u73b0\u4ee3\u6587\u5316
p1212
I6
sV\u649e\u51fb
p1213
I1
sV\u526a\u5f69
p1214
I1
sV\u51fa\u4eba
p1215
I1
sV\u9a70\u9a8b
p1216
I1
sV\u8fd0\u52a8
p1217
I3
sV\u6284\u5f55
p1218
I1
sV\u5178\u578b
p1219
I1
sV\u9f99\u6f6d
p1220
I1
sV\u7cbe\u795e
p1221
I33
sV\u786e\u662f
p1222
I1
sV\u4e0d\u5c0f
p1223
I1
sV\u65e0\u504f
p1224
I1
sV\u6c11\u95f4\u5de5\u827a
p1225
I1
sV\u5bf9\u7740\u5e72
p1226
I1
sV\u597d\u8bc4
p1227
I1
sV\u8bb2\u5b66
p1228
I2
sV\u5404\u56fd
p1229
I10
sV\u8bc4\u8bba
p1230
I2
sV\u51af\u9aa5\u624d
p1231
I4
sV\u540d\u724c
p1232
I1
sV\u767e\u5206\u4e4b\u4e00
p1233
I1
sV\u77f3\u5ce1
p1234
I1
sV\u8bc1\u5b9e
p1235
I4
sV\u7ef4\u62a4
p1236
I3
sV\u79e6\u5175\u9a6c\u4fd1
p1237
I1
sV\u5730\u6392
p1238
I1
sV\u660e\u8fa8
p1239
I1
sV\u793e\u4f1a\u751f\u6d3b
p1240
I1
sV\u6c88\u7231
p1241
I1
sV\u51fa\u4e00\u79cd
p1242
I1
sV\u5c01\u95ed\u5f0f
p1243
I1
sV\u516c\u5171\u536b\u751f
p1244
I1
sV\u6587\u5b66\u4f5c\u54c1
p1245
I1
sV\u79d1\u5b66
p1246
I13
sV\u582a\u79f0
p1247
I1
sV\u90d1\u5dde\u5927\u5b66
p1248
I1
sV\u7acb\u8db3
p1249
I2
sV\u6587\u96c5
p1250
I2
sV\u540d\u79f0
p1251
I4
sV\u6d8c\u73b0
p1252
I1
sV\u8bd1\u672c
p1253
I1
sV\u56fd\u5185\u5916
p1254
I1
sV\u5305\u62ec
p1255
I11
sV\u6545\u4e8b
p1256
I5
sV\u5176\u60c5
p1257
I1
sV\u6606\u4ed1\u51fa\u7248\u793e
p1258
I1
sV\u97e9\u7b49
p1259
I1
sV\u6d41\u52a8
p1260
I2
sV\u4eba\u6587
p1261
I7
sV\u9500\u552e
p1262
I1
sV\u4f5c\u753b
p1263
I1
sV\u96c6\u56e2
p1264
I2
sV\u5f20\u7f51
p1265
I1
sV\u5f00\u521b\u6027
p1266
I1
sV\u5e95\u8574
p1267
I1
sV\u4e4b\u7e41
p1268
I1
sV\u4e00\u5bb6
p1269
I1
sV\u7075\u9b42
p1270
I2
sV\u5171\u632f
p1271
I1
sV\u8c61\u5f81
p1272
I1
sV\u5404\u754c
p1273
I4
sV\u56fe\u753b
p1274
I1
sV\u5199\u7ecf
p1275
I1
sV\u51fa\u7248\u53d1\u884c
p1276
I1
sV\u5d07\u5c1a
p1277
I1
sV\u5bb6\u5ead
p1278
I4
sV\u63a8\u52a8
p1279
I5
sV\u53f3\u4e0a\u89d2
p1280
I1
sV\u5267\u6821
p1281
I1
sV\u56fd\u8bed
p1282
I1
sV\u53f2\u5730
p1283
I1
sV\u7279\u8272
p1284
I14
sV\u601d\u4e4b
p1285
I1
sV\u8d28\u611f
p1286
I1
sV\u519c\u5bb6
p1287
I1
sV\u5112\u6cd5
p1288
I2
sV\u7edf\u6cbb
p1289
I2
sV\u6d78\u900f
p1290
I1
sV\u8be5\u520a
p1291
I1
sV\u8d39\u8001
p1292
I18
sV\u8bfb\u6559
p1293
I1
sV\u9986\u957f
p1294
I3
sV\u5efa\u56fd\u540e
p1295
I1
sV\u7814\u5546
p1296
I1
sV\u4e4b\u4f59
p1297
I1
sV\u6559\u80b2
p1298
I1
sV\u8001\u5148\u751f
p1299
I1
sV\u575a\u97e7
p1300
I2
sV\u591a\u5e45
p1301
I2
sV\u8bb0\u8005
p1302
I7
sV\u9c7c\u76ee\u6df7\u73e0
p1303
I1
sV\u4fe1\u5ff5
p1304
I2
sV\u6295\u6ce8
p1305
I1
sV\u770b\u6210
p1306
I1
sV\u5b66\u672f\u8bba\u6587
p1307
I1
sV\u5c0f\u8bf4
p1308
I5
sV\u4e24\u53f0
p1309
I1
sV\u6027\u8d28
p1310
I1
sV\u4fe1\u5fc3
p1311
I1
sV\u5386\u53f2\u4eba\u7269
p1312
I1
sV\u65b0\u7bc7\u7ae0
p1313
I1
sV\u5efa\u7acb
p1314
I5
sV\u5929\u6d25
p1315
I20
sV\u9ad8\u6821
p1316
I3
sV\u5b9e\u8df5
p1317
I3
sV\u6625\u8282
p1318
I27
sV\u5927\u89c4\u6a21
p1319
I2
sV\u536b\u7075\u516c
p1320
I2
sV\u660e\u521d
p1321
I1
sV\u542b\u4e49
p1322
I3
sV\u591a\u5e74
p1323
I2
sV\u534e\u88d4
p1324
I1
sV\u4f7f\u4f0a\u5b58
p1325
I1
sV\u67d0\u79cd
p1326
I6
sV\u6c5f\u897f
p1327
I3
sV\u5fc3\u6249
p1328
I1
sV\u65f6\u62a5
p1329
I1
sV\u621a\u96c5\u4ed9
p1330
I1
sV\u4e16\u754c
p1331
I29
sV\u8282\u65e5
p1332
I3
sV\u6e05\u6d01
p1333
I1
sV\u58f0\u79f0
p1334
I1
sV\u7470\u5b9d
p1335
I1
sV\u6253\u6d88
p1336
I1
sV\u5f71\u89c6
p1337
I6
sV\u62c9\u5927\u65d7\u4f5c\u864e\u76ae
p1338
I1
sV\u4eba\u6570
p1339
I5
sV\u60ca\u5f02
p1340
I1
sV\u5e74\u5c81
p1341
I1
sV\u5927\u8857
p1342
I1
sV\u5f00\u57e0
p1343
I6
sV\u6559\u5b66\u5185\u5bb9
p1344
I1
sV\u901a\u7528
p1345
I2
sV\u6545\u4e8b\u65b0\u7f16
p1346
I1
sV\u5149\u707f
p1347
I1
sV\u4e00\u767e
p1348
I1
sV\u544a\u72b6
p1349
I1
sV\u8574\u6db5
p1350
I1
sV\u5c60\u57ce
p1351
I1
sV\u6570\u4ebf
p1352
I1
sV\u9ad8\u6865
p1353
I2
sV\u5f71\u89c6\u754c
p1354
I1
sV\u793e\u4f1a\u53d1\u5c55
p1355
I6
sV\u753b\u518c
p1356
I4
sV\u8bd7\u753b
p1357
I1
sV\u90fd\u5e02\u751f\u6d3b
p1358
I1
sV\u6734\u5b9e
p1359
I2
sV\u793e\u533a
p1360
I1
sV\u5206\u79bb
p1361
I1
sV\u9057\u5740
p1362
I2
sV\u6301\u7eed
p1363
I1
sV\u65e9\u5e74
p1364
I1
sV\u4e4b\u4e2d
p1365
I4
sV\u6b22\u5feb
p1366
I1
sV\u8bae\u9898
p1367
I2
sV\u4e3a\u653f
p1368
I1
sV\u8f89\u714c
p1369
I5
sV\u4e0e\u4f1a\u8005
p1370
I4
sV\u7cbe\u5ba1
p1371
I1
sV\u8ba2\u8d27\u4f1a
p1372
I1
sV\u5434\u6885
p1373
I1
sV\u7ef8\u65f6
p1374
I1
sV\u77e5\u8bc6\u6027
p1375
I2
sV\u9891\u7e41
p1376
I1
sV\u5370\u6570
p1377
I1
sV\u4e2a\u6027
p1378
I5
sV\u7e41\u4f53\u5b57
p1379
I2
sV\u7ef4\u7cfb
p1380
I2
sV\u51e1\u9047
p1381
I1
sV\u4e4b\u4e0a
p1382
I4
sV\u5fb7\u884c
p1383
I1
sV\u6cd5\u5211
p1384
I1
sV\u72c2\u6b22\u8282
p1385
I1
sV\u5174\u8870
p1386
I1
sV\u826f\u83a0
p1387
I1
sV\u5927\u57ce\u5e02
p1388
I1
sV\u89c2\u5ff5
p1389
I8
sV\u7406\u8bba\u7814\u7a76
p1390
I1
sV\u8d70\u6765
p1391
I1
sV\u58c1\u753b
p1392
I1
sV\u5efa\u7b51
p1393
I4
sV\u64ad\u51fa
p1394
I2
sV\u8ba8\u8bba
p1395
I3
sV\u7956\u7b60
p1396
I1
sV\u540d\u6c14
p1397
I1
sV\u89e3\u653e\u540e
p1398
I2
sV\u9996\u9009
p1399
I1
sV\u52bf\u5934
p1400
I2
sV\u89c4\u8303
p1401
I2
sV\u5fc3\u7406
p1402
I1
sV\u6ed1\u5761
p1403
I1
sV\u8fc7\u5e74
p1404
I1
sV\u4eea\u8f68
p1405
I5
sV\u6599\u7406
p1406
I1
sV\u6d41\u5165
p1407
I1
sV\u4e2d\u897f
p1408
I2
sV\u8d56\u4ee5\u751f\u5b58
p1409
I1
sV\u9000\u5b66
p1410
I1
sV\u6740\u8eab
p1411
I1
sV\u4e4b\u4e49
p1412
I1
sV\u6768\u67f3\u9752
p1413
I1
sV\u708e\u9ec4\u5b50\u5b59
p1414
I2
sV\u5165\u5c9b
p1415
I1
sV\u5730\u57df\u6027
p1416
I2
sV\u4f50\u6566
p1417
I1
sV\u5ea7\u4f4d
p1418
I1
sV\u6e90\u6cc9
p1419
I1
sV\u82f1\u8bed
p1420
I2
sV\u5851\u50cf
p1421
I1
sV\u680f\u76ee
p1422
I1
sV\u4e49\u548c\u56e2\u8fd0\u52a8
p1423
I1
sV\u589e\u8fdb
p1424
I1
sV\u6751\u5934
p1425
I1
sV\u8fd1\u73b0\u4ee3\u53f2
p1426
I1
sV\u6563\u6587
p1427
I2
sV\u6f14\u8bb2
p1428
I2
sV\u90bb\u56fd
p1429
I1
sV\u5851\u9020
p1430
I1
sV\u7f3a\u70b9
p1431
I1
sV\u5355\u4e2a
p1432
I1
sV\u4e24\u4e2a
p1433
I4
sV\u5b66\u672f
p1434
I31
sV\u4e2d\u65e5
p1435
I2
sV\u53f6\u6f84\u8877
p1436
I1
sV\u4e3a\u4eba\u5904\u4e8b
p1437
I1
sV\u76db\u540d
p1438
I1
sV\u9996\u6620\u5f0f
p1439
I3
sV\u5f6c\u5f6c\u6709\u793c
p1440
I2
sV\u592a\u5b50
p1441
I1
sV\u6587\u5929\u7965
p1442
I1
sV\u524d\u5915
p1443
I4
sV\u6b64\u4e66
p1444
I1
sV\u9057\u97f5
p1445
I2
sV\u8bd7\u9009
p1446
I1
sV\u6c5f\u95e8
p1447
I1
sV\u5b66\u6709
p1448
I1
sV\u5355\u4e00
p1449
I1
sV\u4e13\u653b
p1450
I1
sV\u4e2d\u6587
p1451
I17
sV\u8f68\u8ff9
p1452
I3
sV\u6210\u5458\u56fd
p1453
I1
sV\u56fd\u5bb6\u65b0\u95fb\u51fa\u7248\u7f72
p1454
I1
sV\u65e5\u6240\u9986
p1455
I1
sV\u54c1\u79cd
p1456
I1
sV\u8bbd\u523a
p1457
I1
sV\u56fe\u4e66\u9986
p1458
I3
sV\u5065\u513f
p1459
I1
sV\u521a\u521a
p1460
I1
sV\u4f5c\u54c1
p1461
I13
sV\u4f20\u4eba
p1462
I2
sV\u5c55\u5f00
p1463
I4
sV\u65b0\u4e16\u754c
p1464
I1
sV\u53cb\u597d
p1465
I1
sV\u9e1f\u7c7b
p1466
I1
sV\u5dee\u9519
p1467
I2
sV\u4e2d\u65ad
p1468
I3
sV\u53d7\u963b
p1469
I1
sV\u4e16\u754c\u89c2
p1470
I1
sV\u8bef\u89e3
p1471
I1
sV\u8fd8\u7ed8
p1472
I1
sV\u8d75\u5bc4\u5ba2
p1473
I3
sV\u7fa4\u661f
p1474
I1
sV\u4e3b\u6301
p1475
I4
sV\u63d0\u5021
p1476
I4
sV\u6c99\u6f20
p1477
I1
sV\u6734\u5b66
p1478
I2
sV\u6e05\u6c34
p1479
I1
sV\u5468\u6069\u6765
p1480
I1
sV\u9050\u60f3
p1481
I1
sV\u4e25\u8c28
p1482
I1
sV\u676d\u4e5d\u658b
p1483
I3
sV\u65b0\u578b
p1484
I1
sV\u65b0\u4e2d\u56fd
p1485
I4
sV\u957f\u8db3
p1486
I2
sV\u4ece\u4ee5
p1487
I1
sV\u5b5f\u5b50
p1488
I2
sV\u59d7\u59d7
p1489
I1
sV\u5b50\u5171\u516d\u679a
p1490
I1
sV\u6587\u5316\u5185\u6db5
p1491
I2
sV\u6700\u591a
p1492
I1
sV\u4f73\u8282
p1493
I1
sV\u4e8e\u5e08
p1494
I1
sV\u6350\u52a9
p1495
I1
sV\u4e3b\u529b\u519b
p1496
I1
sV\u4e66\u6797
p1497
I2
sV\u5b66\u672f\u6d3b\u52a8
p1498
I1
sV\u665a\u62a5
p1499
I1
sV\u8fd9\u6b63
p1500
I1
sV\u7504\u9009
p1501
I1
sV\u7fa4\u4f17\u6587\u5316
p1502
I1
sV\u53d1\u5c55\u9053\u8def
p1503
I2
sV\u6709\u5feb
p1504
I1
sV\u4e1c\u6765
p1505
I3
sV\u5c1a\u5c5e
p1506
I1
sV\u8bd7\u53f2
p1507
I1
sV\u751f\u547d\u529b
p1508
I3
sV\u8fd9\u6240
p1509
I2
sV\u5927\u70bd
p1510
I1
sV\u901a\u53f2
p1511
I2
sV\u5b66\u8005
p1512
I30
sV\u5728\u573a
p1513
I1
sV\u653f\u6cbb
p1514
I6
sV\u5f20\u5927
p1515
I1
sV\u4eab\u6709
p1516
I1
sV\u6c49\u65cf
p1517
I7
sV\u77a9\u76ee
p1518
I1
sV\u6bcb\u56fa
p1519
I1
sV\u6d3e\u9063
p1520
I1
sV\u7eaa\u4f20
p1521
I1
sV\u7cca\u6d82
p1522
I1
sV\u793e\u5458
p1523
I2
sV\u4e13\u4e1a
p1524
I2
sV\u8f7d\u4f53
p1525
I1
sV\u8bba\u8bc1
p1526
I1
sV\u5360\u5730\u7ea6
p1527
I1
sV\u8fbe\u8fd1
p1528
I1
sV\u5b66\u8bd7
p1529
I1
sV\u516d\u4eba
p1530
I1
sV\u5de5\u4e1a
p1531
I1
sV\u8d8a\u5267
p1532
I3
sV\u5236\u4f5c
p1533
I3
sV\u642c\u79fb
p1534
I1
sV\u5468\u8fb9
p1535
I3
sV\u8bc4\u4ecb
p1536
I1
sV\u4e27\u5931
p1537
I2
sV\u9644\u6709
p1538
I1
sV\u5174\u5efa
p1539
I1
sV\u4f20\u795e
p1540
I1
sV\u5468\u97f6\u534e
p1541
I1
sV\u5176\u666f
p1542
I1
sV\u6392\u7248
p1543
I1
sV\u53e4\u96d5
p1544
I1
sV\u96be\u4ee5\u4e3a\u7ee7
p1545
I1
sV\u690d\u6839\u4e8e
p1546
I1
sV\u9e1f\u7b3c
p1547
I2
sV\u5927\u4e13
p1548
I2
sV\u4e61\u9547
p1549
I4
sV\u6577\u5f00
p1550
I1
sV\u51e0\u8fbe
p1551
I1
sV\u8bba\u7406
p1552
I1
sV\u7ecf\u5178\u4f5c\u54c1
p1553
I1
sV\u5927\u4e1a
p1554
I1
sV\u660e\u7406
p1555
I1
sV\u8981\u95e8
p1556
I1
sV\u5bab\u5ef7
p1557
I2
sV\u591a\u9879
p1558
I1
sV\u9ad8\u4e3d
p1559
I2
sV\u5e76\u5b58
p1560
I1
sV\u8bc4\u4ef7
p1561
I1
sV\u76f2\u76ee
p1562
I3
sV\u5b66\u800c
p1563
I1
sV\u5e02\u573a
p1564
I2
sV\u65b0\u5267
p1565
I2
sV\u5e73\u9759
p1566
I1
sV\u804c\u8d23
p1567
I2
sV\u9879\u76ee
p1568
I3
sV\u521d\u62df
p1569
I1
sV\u5bf9\u9762
p1570
I1
sV\u6574\u4f53
p1571
I5
sV\u5267\u4eba
p1572
I3
sV\u4e0d\u592a
p1573
I1
sV\u534e\u4eba
p1574
I4
sV\u89c1\u6027
p1575
I1
sV\u9053\u8def
p1576
I6
sV\u6cd5\u95e8
p1577
I11
sV\u65e0\u653f\u5e9c\u4e3b\u4e49
p1578
I1
sV\u6570\u989d
p1579
I1
sV\u4e2d\u592e\u6c11\u65cf\u5b66\u9662
p1580
I1
sV\u8426\u7ed5
p1581
I1
sV\u6301\u4e4b\u4ee5\u6052
p1582
I1
sV\u751f\u547d
p1583
I4
sV\u90e8\u5c5e
p1584
I1
sV\u54c1\u6027
p1585
I1
sV\u80f8\u6000
p1586
I1
sV\u62b5\u5236
p1587
I4
sV\u4e1d\u7ef8
p1588
I3
sV\u65e5\u5e38\u7528\u8bed
p1589
I1
sV\u5927\u4e58
p1590
I1
sV\u8303\u5d07
p1591
I1
sV\u8d85\u65b9
p1592
I2
sV\u529f\u5229\u4e3b\u4e49
p1593
I1
sV\u8fd9\u6bb5
p1594
I1
sV\u65b0\u751f\u6d3b
p1595
I2
sV\u5584\u4e8e
p1596
I2
sV\u591a\u79cd
p1597
I2
sV\u6df1\u5c42
p1598
I1
sV\u4e1c\u65b9\u51fa\u7248\u793e
p1599
I4
sV\u7b03\u884c
p1600
I1
sV\u4e30\u539a
p1601
I3
sV\u8fbd\u5b81\u6559\u80b2\u51fa\u7248\u793e
p1602
I1
sV\u5f71\u4e1a
p1603
I4
sV\u4e0d\u4e4f
p1604
I1
sV\u5b9d\u5c9b
p1605
I2
sV\u6709\u81f4
p1606
I1
sV\u5f02\u66f2\u540c\u5de5
p1607
I1
sV\u8272\u5f69\u7eb7\u5448
p1608
I1
sV\u9752\u94dc\u5668
p1609
I1
sV\u7b80\u5316\u5b57
p1610
I1
sV\u56de\u8a00
p1611
I1
sV\u4e07\u518c
p1612
I1
sV\u591a\u534a
p1613
I1
sV\u91cd\u590d
p1614
I1
sV\u4f4d\u4e8e
p1615
I2
sV\u57fa\u7840
p1616
I7
sV\u4e00\u672c
p1617
I3
sV\u5de5\u4f5c
p1618
I15
sV\u897f\u5b66\u4e1c\u6e10
p1619
I1
sV\u8fdc\u6e21\u91cd\u6d0b
p1620
I1
sV\u65b0\u95fb\u7eb8
p1621
I1
sV\u4f60\u4e2d\u6709\u6211
p1622
I1
sV\u5bbd\u5e7f
p1623
I1
sV\u7206\u53d1
p1624
I1
sV\u4e3a\u636e
p1625
I1
sV\u793e\u4f1a\u6027
p1626
I1
sV\u65b0\u4e00\u9875
p1627
I1
sV\u793e\u957f
p1628
I3
sV\u8d8a\u5357
p1629
I2
sV\u6d89\u5916
p1630
I1
sV\u8bb4\u6b4c
p1631
I1
sV\u7ea0\u7eb7
p1632
I1
sV\u6709\u5e8f
p1633
I1
sV\u65e7\u57ce
p1634
I13
sV\u65b9\u65b9\u9762\u9762
p1635
I1
sV\u9636\u68af
p1636
I2
sV\u5c11\u5e74\u513f\u7ae5
p1637
I2
sV\u5386\u53f2\u89c2
p1638
I1
sV\u5c0f\u4e8b
p1639
I3
sV\u6709\u9699\u53ef\u4e58
p1640
I1
sV\u6c89\u7a33
p1641
I1
sV\u4e50\u610f
p1642
I1
sV\u518d\u4e09
p1643
I1
sV\u878d\u5408
p1644
I7
sV\u76d8\u53e4
p1645
I1
sV\u6ce8\u91ca
p1646
I2
sV\u8981\u5730
p1647
I2
sV\u7406\u89e3
p1648
I10
sV\u8c08\u4e0d\u4e0a
p1649
I1
sV\u6ce8\u91cd
p1650
I3
sV\u5438\u53d6
p1651
I1
sV\u897f\u6a35\u5c71
p1652
I1
sV\u7edf\u8ba1
p1653
I5
sV\u98ce\u9aa8
p1654
I1
sV\u6276\u8001\u643a\u5e7c
p1655
I1
sV\u63a8\u5411
p1656
I1
sV\u65b0\u9896
p1657
I1
sV\u5f88\u611f
p1658
I1
sV\u98de\u789f
p1659
I1
sV\u4f4d\u4e2d
p1660
I1
sV\u7ad9\u4e0d\u4f4f\u811a
p1661
I1
sV\u8d34\u8fd1\u751f\u6d3b
p1662
I1
sV\u6f58\u6587
p1663
I1
sV\u65f6\u4ee3\u7cbe\u795e
p1664
I6
sV\u590d\u5174
p1665
I2
sV\u591a\u795e
p1666
I1
sV\u767b\u53f0
p1667
I2
sV\u5e26\u6765
p1668
I1
sV\u5b50\u5065
p1669
I1
sV\u7948\u6c42
p1670
I1
sV\u4ee5\u5b5d\u608c
p1671
I1
sV\u65b9\u4fbf\u9762
p1672
I1
sV\u5927\u4f17
p1673
I1
sV\u9020\u7eb8\u672f
p1674
I1
sV\u9882\u53e4\u975e\u4eca
p1675
I1
sV\u4fdd\u62a4
p1676
I3
sV\u7c7b\u4e1b
p1677
I3
sV\u56db\u5ddd\u5927\u5b66
p1678
I1
sV\u97f3\u4e50\u5bb6
p1679
I2
sV\u5168\u56fd\u5987\u8054
p1680
I1
sV\u6210\u4ec1
p1681
I1
sV\u4e13\u67b6
p1682
I2
sV\u4e0a\u6f14
p1683
I2
sV\u6539\u9020
p1684
I3
sV\u64b0\u7a3f\u4eba
p1685
I1
sV\u6734\u7d20
p1686
I1
sV\u4e66\u540e
p1687
I1
sV\u6d3e\u51fa
p1688
I8
sV\u5f20\u5cb1\u5e74
p1689
I2
sV\u5f62\u8c61
p1690
I3
sV\u6d41\u4f20
p1691
I1
sV\u9010\u51fa
p1692
I1
sV\u8282\u64cd
p1693
I1
sV\u9f50\u58f0
p1694
I1
sV\u7eaa\u5f8b
p1695
I1
sV\u77ff\u77f3
p1696
I1
sV\u51fa\u7248\u793e
p1697
I10
sV\u5bc6\u7801
p1698
I1
sV\u7bc7\u5e45
p1699
I1
sV\u8f9e\u65e7\u8fce\u65b0
p1700
I1
sV\u5168\u5fe0
p1701
I2
sV\u53f0\u620f
p1702
I1
sV\u4e5d\u65e5
p1703
I1
sV\u7ade\u76f8
p1704
I2
sV\u5e74\u540e
p1705
I1
sV\u848b\u4ecb\u77f3
p1706
I1
sV\u9ad8\u6f6e
p1707
I1
sV\u8fdd\u5982\u611a
p1708
I1
sV\u5927\u5510
p1709
I3
sV\u5927\u4f5b
p1710
I1
sV\u5c11\u5148\u961f
p1711
I1
sV\u9053\u6cd5
p1712
I1
sV\u5343\u53e4
p1713
I2
sV\u519b\u56fd\u4e3b\u4e49
p1714
I1
sV\u8bde\u8fb0
p1715
I1
sV\u6fc0\u52b1
p1716
I1
sV\u76f4\u822a
p1717
I1
sV\u5bfb\u8def\u8bb0
p1718
I1
sV\u540c\u80de
p1719
I3
sV\u6709\u53f2\u4ee5\u6765
p1720
I1
sV\u677e\u82b1\u6c5f
p1721
I2
sV\u534a\u5c01\u5efa\u793e\u4f1a
p1722
I1
sV\u4e94\u5341
p1723
I2
sV\u6c14\u6d3e
p1724
I1
sV\u53c2\u8bc4
p1725
I1
sV\u6307\u5bfc
p1726
I4
sV\u62d3\u5bbd
p1727
I1
sV\u538b\u8feb
p1728
I1
sV\u4e0d\u53ef\u5206\u5272
p1729
I1
sV\u6fc0\u5149
p1730
I1
sV\u6211\u56fd
p1731
I30
sV\u6444\u5236
p1732
I2
sV\u6587\u660e\u793c\u8c8c
p1733
I1
sV\u5e76\u79f0
p1734
I1
sV\u8bf4\u8bdd
p1735
I1
sV\u5e7f\u64ad\u7535\u5f71\u7535\u89c6\u90e8
p1736
I2
sV\u6c14\u8d28
p1737
I1
sV\u5171\u6709
p1738
I6
sV\u4ed8\u6893
p1739
I1
sV\u76f8\u58f0
p1740
I3
sV\u65e0\u4e0d
p1741
I1
sV\u91c7\u7528
p1742
I4
sV\u4f7f\u4eba
p1743
I4
sV\u4ea4\u54cd
p1744
I1
sV\u8654\u8bda
p1745
I1
sV\u5b57\u5f62
p1746
I1
sV\u5353\u8d8a
p1747
I1
sV\u5174\u8d77
p1748
I2
sV\u60c5\u8c0a
p1749
I2
sV\u7814\u7a76\u8bfe\u9898
p1750
I1
sV\u671f\u671b\u503c
p1751
I1
sV\u4e94\u9091
p1752
I1
sV\u9009\u62e9
p1753
I3
sV\u620f\u5267
p1754
I16
sV\u5373\u7528
p1755
I1
sV\u6821\u957f
p1756
I1
sV\u6821\u5916
p1757
I1
sV\u53cd\u601d
p1758
I1
sV\u4eca\u65e5
p1759
I2
sV\u6d77\u5916\u534e\u4eba
p1760
I1
sV\u8003\u7a76
p1761
I1
sV\u58f0\u4e50
p1762
I4
sV\u5bc6\u5b97
p1763
I5
sV\u53c2\u8bbf\u56e2
p1764
I2
sV\u540d\u5bb6\u540d\u4f5c
p1765
I1
sV\u5168\u8c8c
p1766
I1
sV\u968f\u4fbf
p1767
I1
sV\u7b2c\u4e8c\u5c4a
p1768
I1
sV\u89d2\u5ea6
p1769
I1
sV\u7fa4\u83ba
p1770
I1
sV\u9676\u51b6
p1771
I1
sV\u4e3e\u6b62
p1772
I2
sV\u671b\u65cf
p1773
I1
sV\u6548\u7387
p1774
I1
sV\u81ea\u601d\u5e74
p1775
I1
sV\u4e09\u70b9
p1776
I2
sV\u5b66\u82d1
p1777
I1
sV\u795e\u5723
p1778
I1
sV\u6b4c\u9882
p1779
I2
sV\u67b7\u9501
p1780
I1
sV\u51dd\u805a\u529b
p1781
I6
sV\u6b67\u89c6
p1782
I1
sV\u7f8e\u5143
p1783
I1
sV\u64b0\u5199
p1784
I2
sV\u5438\u70df
p1785
I1
sV\u7eff\u5149
p1786
I1
sV\u5404\u5177
p1787
I1
sV\u653f\u5e9c
p1788
I3
sV\u65e7\u7248
p1789
I1
sV\u56e2\u805a
p1790
I1
sV\u8fc7\u8282
p1791
I1
sV\u676d\u5929\u9189
p1792
I3
sV\u8eab\u65c1
p1793
I1
sV\u5e7f\u4e3a
p1794
I1
sV\u897f\u627e
p1795
I1
sV\u663e\u73b0
p1796
I1
sV\u4f18\u79c0
p1797
I24
sV\u7f8e\u7b49\u56fd
p1798
I1
sV\u529e\u6cd5
p1799
I3
sV\u79e7\u6b4c
p1800
I1
sV\u59dc\u6e2d\u6e14
p1801
I1
sV\u9009\u624b
p1802
I2
sV\u4e13\u6ce8
p1803
I1
sV\u8d1d\u5b81
p1804
I1
sV\u6d59\u6c5f
p1805
I2
sV\u4f20\u8bf5
p1806
I1
sV\u897f\u6b27
p1807
I1
sV\u4e4b\u8bba
p1808
I1
sV\u89c4\u6a21
p1809
I3
sV\u7236\u8001\u5144\u5f1f
p1810
I1
sV\u963f\u7ae5
p1811
I1
sV\u5f15\u4eba\u6ce8\u76ee
p1812
I1
sV\u4e0a\u6d77\u4e2d\u533b\u836f\u5927\u5b66
p1813
I1
sV\u72ec\u6b65
p1814
I2
sV\u8336\u5e84
p1815
I2
sV\u56db\u540d
p1816
I1
sV\u4f59\u8a00
p1817
I1
sV\u6b96\u6c11\u4e3b\u4e49\u8005
p1818
I1
sV\u7389\u7c2a
p1819
I1
sV\u5317\u4eac\u5916\u8d38\u5b66\u9662
p1820
I1
sV\u6563\u6f2b
p1821
I1
sV\u5f53\u4ee3\u6587\u5b66
p1822
I1
sV\u6587\u7269
p1823
I15
sV\u6c89\u9999
p1824
I1
sV\u6c11\u4fd7
p1825
I5
sV\u6fb3\u4e2d
p1826
I1
sV\u6c81\u4eba\u5fc3\u813e
p1827
I1
sV\u4e30\u5bcc\u591a\u5f69
p1828
I1
sV\u8c31\u5199
p1829
I1
sV\u591a\u5a07
p1830
I1
sV\u6f33\u5316
p1831
I1
sV\u6e05\u534e\u5927\u5b66
p1832
I1
sV\u4e71\u98de
p1833
I1
sV\u660e\u767d
p1834
I1
sV\u6696\u6696
p1835
I1
sV\u6ca1\u53d8
p1836
I1
sV\u755c\u7b49
p1837
I1
sV\u793e\u4f1a\u601d\u6f6e
p1838
I1
sV\u5c31\u7f54\u7136
p1839
I1
sV\u51e0\u5343
p1840
I4
sV\u5386\u53f2
p1841
I69
sV\u53e4\u7c4d
p1842
I12
sV\u8054\u8c0a\u4f1a
p1843
I1
sV\u62db\u6536
p1844
I1
sV\u6c11\u95f4\u827a\u672f
p1845
I1
sV\u98ce\u4e91
p1846
I1
sV\u5927\u81ea\u7136
p1847
I1
sV\u4f5c\u51fa
p1848
I3
sV\u5ea7\u8c08\u4f1a
p1849
I1
sV\u4e1c\u65b9
p1850
I25
sV\u5148\u54f2
p1851
I1
sV\u9f13\u52a8
p1852
I1
sV\u56fe\u518c
p1853
I7
sV\u840c\u53d1
p1854
I1
sV\u73cd\u60dc
p1855
I2
sV\u8ddd\u4eca
p1856
I1
sV\u5174\u8da3
p1857
I6
sV\u4e61\u571f
p1858
I1
sV\u61e6\u5f31
p1859
I1
sV\u6709\u5982
p1860
I1
sV\u7eff\u6811
p1861
I1
sV\u53c2\u89c2
p1862
I6
sV\u8bd7\u6587\u96c6
p1863
I1
sV\u624b\u4e2d
p1864
I1
sV\u56fd\u4eba
p1865
I1
sV\u6d53\u7f29
p1866
I2
sV\u5b9e\u884c
p1867
I3
sV\u4e00\u4efd
p1868
I2
sV\u4e1c\u4eac\u90fd
p1869
I1
sV\u5e73\u548c
p1870
I1
sV\u51e0\u5e74\u6765
p1871
I3
sV\u4e0d\u4e00\u800c\u8db3
p1872
I1
sV\u8fd1\u4ee3\u5316
p1873
I1
sV\u4e2d\u533b\u4e2d\u836f
p1874
I1
sV\u5934\u75bc
p1875
I1
sV\u5f20\u78ca
p1876
I1
sV\u6c14\u6c1b
p1877
I2
sV\u6587\u53f0
p1878
I1
sV\u7406\u8bba
p1879
I16
sV\u56fd\u6c11\u515a
p1880
I4
sV\u6fc0\u6270
p1881
I1
sV\u7cbe\u5230
p1882
I2
sV\u79d1\u5b66\u7814\u7a76
p1883
I2
sV\u4e00\u7b49\u5956
p1884
I1
sV\u7cbe\u7f8e
p1885
I4
sV\u53cd\u611f
p1886
I1
sV\u5916\u56fd
p1887
I5
sV\u4e66\u540c\u6587
p1888
I1
sV\u70ed\u60c5
p1889
I4
sV\u534e\u4e2d\u7406\u5de5\u5927\u5b66\u51fa\u7248\u793e
p1890
I1
sV\u8fdd\u53cd
p1891
I1
sV\u6df7\u6dc6
p1892
I1
sV\u4e92\u52a9
p1893
I1
sV\u60c5\u64cd
p1894
I2
sV\u7eff\u706f
p1895
I2
sV\u8f6c\u5411
p1896
I1
sV\u65e5\u7535
p1897
I8
sV\u5411\u4e0b
p1898
I1
sV\u6587\u738b
p1899
I1
sV\u6f14\u53d8\u53f2
p1900
I1
sV\u6307\u8336
p1901
I1
sV\u6587\u7269\u5c55
p1902
I2
sV\u7a7a\u758f
p1903
I1
sV\u9707\u64bc
p1904
I1
sV\u8981\u7528
p1905
I1
sV\u8bf8\u591a\u4e0d\u4fbf
p1906
I1
sV\u7a7f\u63d2
p1907
I2
sV\u5165\u5883
p1908
I1
sV\u5bcc\u6709
p1909
I2
sV\u6beb\u7c73
p1910
I2
sV\u8f6c\u578b
p1911
I1
sV\u5ffd\u89c6
p1912
I2
sV\u6d77\u5185\u5916
p1913
I5
sV\u738b\u58eb\u4eea
p1914
I1
sV\u5e02\u59d4
p1915
I1
sV\u601d\u6f6e
p1916
I2
sV\u53cb\u5584
p1917
I1
sV\u71d5\u4eac\u5927\u5b66
p1918
I1
sV\u65f6\u671f
p1919
I18
sV\u50b2\u6c14
p1920
I1
sV\u5c11\u5973
p1921
I1
sV\u67f3\u6c5f\u4eba
p1922
I1
sV\u653e\u5bbd
p1923
I3
sV\u6d6e\u8e81
p1924
I1
sV\u601d\u60f3\u6027
p1925
I1
sV\u7eb5\u6a2a\u4ea4\u9519
p1926
I2
sV\u6fc0\u70c8
p1927
I2
sV\u6027\u683c
p1928
I5
sV\u522b\u81f4
p1929
I1
sV\u53ea\u987e
p1930
I2
sV\u53ef\u559c
p1931
I1
sV\u8003\u5bdf
p1932
I5
sV\u897f\u6a2a
p1933
I1
sV\u4eba\u8d35
p1934
I1
sV\u591a\u5b57
p1935
I1
sV\u65ad\u4ee3\u53f2
p1936
I2
sV\u4ea6\u53ef
p1937
I1
sV\u5c01\u5efa\u793e\u4f1a
p1938
I1
sV\u695e\u4f3d
p1939
I1
sV\u5ba2\u89c2
p1940
I2
sV\u6062\u590d
p1941
I3
sV\u5b83\u8c61
p1942
I1
sV\u6d88\u5931
p1943
I2
sV\u8c22\u4e16
p1944
I1
sV\u523b\u610f
p1945
I1
sV\u800c\u5e94
p1946
I1
sV\u6d41\u9732
p1947
I1
sV\u513f\u7ae5\u8bfb\u7269
p1948
I3
sV\u6f14\u51fa\u5267\u76ee
p1949
I1
sV\u8d70\u6c5f\u6e56
p1950
I1
sV\u8d38\u6613
p1951
I3
sV\u5377\u5e19
p1952
I1
sV\u63ed\u793a
p1953
I2
sV\u6cd5\u56fd
p1954
I10
sV\u6587\u5316
p1955
I225
sV\u70ed\u604b
p1956
I1
sV\u90e8\u961f
p1957
I2
sV\u5b57\u5e93
p1958
I1
sV\u827a\u672f\u5c55
p1959
I1
sV\u9ed8\u5951
p1960
I1
sV\u9971\u7ecf
p1961
I1
sV\u8212\u5c55
p1962
I1
sV\u4e0a\u767e
p1963
I1
sV\u7a97\u53e3
p1964
I1
sV\u6f14\u8fdb
p1965
I1
sV\u65b9\u5f0f
p1966
I13
sV\u684e\u688f
p1967
I1
sV\u5362\u524d
p1968
I5
sV\u6298\u6620
p1969
I1
sV\u7cbe\u5f53
p1970
I1
sV\u8bba\u7740
p1971
I1
sV\u76f8\u5904
p1972
I1
sV\u8461\u8404
p1973
I1
sV\u8fdb\u8d27
p1974
I1
sV\u903c\u771f
p1975
I1
sV\u7b26\u5408
p1976
I1
sV\u6f14\u8fc7
p1977
I1
sV\u6dd8\u6c70
p1978
I1
sV\u7a81\u98de\u731b\u8fdb
p1979
I1
sV\u9ec4\u6cb3
p1980
I2
sV\u4fdd\u5b88\u4e3b\u4e49
p1981
I4
sV\u9a7b\u8db3
p1982
I1
sV\u60c5\u610f
p1983
I2
sV\u94bb\u8425
p1984
I1
sV\u8336\u6027
p1985
I1
sV\u5ff5\u5934
p1986
I1
sV\u96c4\u9b44
p1987
I1
sV\u7231\u597d\u8005
p1988
I2
sV\u536b\u4e00\u79cd
p1989
I1
sV\u51fa\u9762
p1990
I2
sV\u767e\u82b1\u4e89\u8273
p1991
I3
sV\u8282\u5916
p1992
I1
sV\u56f0\u60d1
p1993
I2
sV\u7269\u8bed
p1994
I2
sV\u798f\u5efa
p1995
I1
sV\u8d22\u5927\u6c14\u7c97
p1996
I1
sV\u78b0\u4e0a
p1997
I1
sV\u663e\u5f97
p1998
I3
sV\u4e0a\u8981
p1999
I1
sV\u672c\u62a5
p2000
I3
sV\u64cd\u6301
p2001
I1
sV\u60c5\u612b
p2002
I1
sV\u7b80\u62a5
p2003
I1
sV\u7f8e\u672f
p2004
I2
sV\u4fee\u8865
p2005
I1
sV\u8a00\u4e2d
p2006
I1
sV\u4e2d\u592e\u96c6\u6743
p2007
I1
sV\u975e\u52a9
p2008
I1
sV\u73e0\u7391
p2009
I1
sV\u53cd\u5e1d
p2010
I2
sV\u4e09\u4ee3
p2011
I2
sV\u8521\u4f53\u826f
p2012
I1
sV\u6e2f\u53f0
p2013
I7
sV\u6c14\u52bf\u78c5\u7934
p2014
I1
sV\u8bbe\u8ba1\u5956
p2015
I2
sV\u70ed\u5fc3
p2016
I1
sV\u9526\u6807\u8d5b
p2017
I1
sV\u8857\u540d
p2018
I2
sV\u8282\u594f
p2019
I2
sV\u4e13\u5236
p2020
I1
sV\u767e\u82b1\u56ed
p2021
I1
sV\u5c0f\u513f
p2022
I1
sV\u72ec\u7279\u6027
p2023
I1
sV\u4f5b\u7406
p2024
I1
sV\u4e2d\u4e0b\u6e38
p2025
I2
sV\u91cc\u663e
p2026
I1
sV\u4e66\u6cd5\u540d\u5bb6
p2027
I1
sV\u6761\u76ee
p2028
I1
sV\u5218\u5fe0\u5fb7
p2029
I1
sV\u652f\u6491
p2030
I1
sV\u6df7\u6742
p2031
I1
sV\u5956\u7ae0
p2032
I1
sV\u5f71\u5370
p2033
I1
sV\u65e0\u89c6
p2034
I1
sV\u76ca\u4eba
p2035
I1
sV\u793c\u4eea\u4e4b\u90a6
p2036
I1
sV\u5b9e\u5730
p2037
I1
sV\u5468\u5357
p2038
I1
sV\u6b65\u5b50
p2039
I1
sV\u4f73\u7ee9
p2040
I1
sV\u51fa\u571f
p2041
I3
sV\u70ed\u5ff1
p2042
I1
sV\u5de1\u6f14
p2043
I1
sV\u4e16\u4eba
p2044
I1
sV\u5b54\u7e41
p2045
I1
sV\u603b\u5e8f
p2046
I1
sV\u7470\u5947
p2047
I1
sV\u5927\u7237
p2048
I2
sV\u52a8\u673a
p2049
I1
sV\u6587\u827a\u754c
p2050
I3
sV\u54c1\u8282
p2051
I1
sV\u804c\u79f0
p2052
I1
sV\u7537\u6b22\u5973\u7231
p2053
I1
sV\u4e3b\u9879
p2054
I1
sV\u4e1c\u5bc6
p2055
I1
sV\u53f8\u957f
p2056
I1
sV\u9017\u7b11
p2057
I1
sV\u52a0\u7d27
p2058
I1
sV\u517b\u6210
p2059
I2
sV\u5468\u539f
p2060
I3
sV\u5174\u53f9
p2061
I1
sV\u5206\u4e3a
p2062
I2
sV\u811a\u4e0b
p2063
I1
sV\u89c2\u6469
p2064
I2
sV\u79e6\u59cb\u7687
p2065
I1
sV\u521d\u7ea7
p2066
I2
sV\u8fce\u4f5b
p2067
I1
sV\u957f\u6c5f
p2068
I2
sV\u96c6\u4e2d\u5730
p2069
I1
sV\u51b0\u7cd6\u846b\u82a6
p2070
I1
sV\u5510\u5b8b
p2071
I1
sV\u5317\u4eac\u5e02
p2072
I1
sV\u77e5\u540d\u4eba\u58eb
p2073
I1
sV\u9694\u9602
p2074
I1
sV\u6587\u8c6a
p2075
I1
sV\u5c61\u6bc1
p2076
I1
sV\u56fd\u5171
p2077
I1
sV\u603b\u5e97
p2078
I3
sV\u53f2\u5b9e
p2079
I4
sV\u5085\u5168\u9999
p2080
I1
sV\u9648\u5217
p2081
I2
sV\u53e0\u5370
p2082
I1
sV\u80fd\u5b66
p2083
I1
sV\u98ce\u683c
p2084
I4
sV\u548c\u5e73
p2085
I3
sV\u63ed\u6653
p2086
I2
sV\u8bcd\u66f2
p2087
I1
sV\u8d5b\u4e8b
p2088
I1
sV\u8bbf\u7f8e
p2089
I1
sV\u4e09\u4e07
p2090
I1
sV\u56e2\u7ec4
p2091
I6
sV\u4e2d\u533b\u5b66\u9662
p2092
I2
sV\u5d1b\u8d77
p2093
I1
sV\u6863\u6848\u9986
p2094
I1
sV\u5e76\u6709
p2095
I1
sV\u7ecf\u8425\u7ba1\u7406
p2096
I3
sV\u6700\u65e9
p2097
I3
sV\u4ee5\u5f80
p2098
I2
sV\u8fde\u7f00
p2099
I1
sV\u5ba3\u6cc4
p2100
I1
sV\u8bf4\u662f
p2101
I5
sV\u4e09\u4e2a
p2102
I1
sV\u5510\u5bc6
p2103
I3
sV\u7ec4\u6210\u90e8\u5206
p2104
I4
sV\u901a\u77e5
p2105
I2
sV\u6cd5\u89c4
p2106
I3
sV\u65b0\u534e\u793e\u9999\u6e2f\u5206\u793e
p2107
I1
sV\u5343\u4ef6
p2108
I1
sV\u5218\u5fb7\u6709
p2109
I1
sV\u63a7\u5236
p2110
I1
sV\u827a\u672f\u8282
p2111
I3
sV\u4f59\u79cd
p2112
I2
sV\u7247\u523b
p2113
I1
sV\u6b4c\u5531\u5bb6
p2114
I1
sV\u60c5\u6000
p2115
I2
sV\u64b0\u7a3f
p2116
I2
sV\u5927\u53a6
p2117
I1
sV\u7f8e\u4e3d
p2118
I1
sV\u4e95\u5188\u5c71
p2119
I1
sV\u4e16\u4fd7
p2120
I1
sV\u65e0\u7ebf\u7535
p2121
I2
sV\u4ef7\u503c
p2122
I22
sV\u8bb2\u6388
p2123
I2
sV\u56fe\u4e66
p2124
I18
sV\u589e\u957f
p2125
I3
sV\u82f1\u624d
p2126
I1
sV\u4f5c\u4e3b
p2127
I1
sV\u5de5\u4e1a\u5316
p2128
I3
sV\u8fdb\u53e3
p2129
I1
sV\u7a7a\u8bdd
p2130
I1
sV\u9762\u7684
p2131
I1
sV\u5236\u521a
p2132
I1
sV\u5e74\u6765
p2133
I3
sV\u5927\u738b
p2134
I2
sV\u6c5f\u897f\u4eba\u6c11\u5e7f\u64ad\u7535\u53f0
p2135
I1
sV\u656c\u800c\u8fdc\u4e4b
p2136
I1
sV\u59a8\u5bb3
p2137
I1
sV\u4e00\u7b49
p2138
I1
sV\u89c1\u89e3
p2139
I1
sV\u8d34\u8fd1
p2140
I1
sV\u5439\u5439
p2141
I1
sV\u5b9e\u4e8b\u6c42\u662f
p2142
I1
sV\u6628\u5929
p2143
I1
sV\u7a7a\u8bba
p2144
I1
sV\u77ed\u77ed\u7684
p2145
I1
sV\u4f4e\u4f30
p2146
I1
sV\u70ed\u7edc
p2147
I1
sV\u5927\u73ed
p2148
I1
sV\u4e2d\u5ba3\u90e8
p2149
I2
sV\u7acb\u56fd
p2150
I1
sV\u56fd\u5bb6\u6559\u59d4
p2151
I2
sV\u72c2\u6b22
p2152
I1
sV\u5854\u5e99
p2153
I1
sV\u4e3b\u6301\u4eba
p2154
I21
sV\u5411\u5f80
p2155
I1
sV\u591a\u65b9
p2156
I2
sV\u5174\u5229
p2157
I1
sV\u8881\u96ea\u82ac
p2158
I1
sV\u6df7\u6218
p2159
I1
sV\u521b\u529e
p2160
I1
sV\u518d\u521b
p2161
I2
sV\u79fb\u884c
p2162
I1
sV\u65e5\u8bed
p2163
I2
sV\u56e0\u7d20
p2164
I5
sV\u771f\u631a
p2165
I1
sV\u4e2d\u5fc3
p2166
I3
sV\u6446\u8131
p2167
I1
sV\u9648\u8150
p2168
I1
sV\u4e13\u53f0
p2169
I1
sV\u793e\u6587\u53f8
p2170
I2
sV\u65e0\u51e0
p2171
I1
sV\u738b\u7acb\u5e73
p2172
I1
sV\u51fa\u56fd
p2173
I2
sV\u5cad\u5357
p2174
I37
sV\u4e5d\u5341
p2175
I2
sV\u5148\u884c
p2176
I1
sV\u5b97\u6e90
p2177
I1
sV\u51dd\u91cd
p2178
I2
sV\u7ed3\u6784
p2179
I9
sV\u9752\u6625\u4e4b\u6b4c
p2180
I1
sV\u6c42\u53d8
p2181
I1
sV\u5e1d\u738b
p2182
I2
sV\u767e\u5bb6\u4e89\u9e23
p2183
I1
sV\u7406\u7531
p2184
I1
sV\u653f\u6cbb\u53f2
p2185
I1
sV\u5987\u5973
p2186
I1
sV\u5c71\u897f\u7701
p2187
I1
sV\u5fe7\u8651
p2188
I1
sV\u8302\u9675
p2189
I1
sV\u9a6c\u8def
p2190
I2
sV\u5355\u5411
p2191
I1
sV\u6559\u5b66
p2192
I1
sV\u51fa\u4e00\u6279
p2193
I1
sV\u5386\u53f2\u4e8b\u4ef6
p2194
I1
sV\u5bd3\u610f
p2195
I1
sV\u683c\u8c03
p2196
I1
sV\u4e2d\u56fd\u793e\u79d1\u9662\u6587\u5b66\u6240
p2197
I1
sV\u5949\u732e
p2198
I5
sV\u4ed4\u7ec6
p2199
I1
sV\u5927\u597d\u6cb3\u5c71
p2200
I1
sV\u6cd5\u95e8\u5bfa
p2201
I28
sV\u5708\u5b50
p2202
I1
sV\u6977\u4e66
p2203
I1
sV\u6f14\u51fa
p2204
I32
sV\u4e00\u7bc7
p2205
I4
sV\u5b8f\u5927
p2206
I1
sV\u7ecf\u5b66
p2207
I1
sV\u5175\u9a6c\u4fd1
p2208
I1
sV\u73af\u5883
p2209
I4
sV\u8d54\u672c
p2210
I1
sV\u6842\u6797
p2211
I1
sV\u672a\u6210
p2212
I1
sV\u80e1\u5fb7
p2213
I1
sV\u897f\u5468
p2214
I2
sV\u6587\u5316\u673a\u6784
p2215
I1
sV\u7e41\u8363\u660c\u76db
p2216
I1
sV\u6587\u4e2d
p2217
I1
sV\u55a7\u54d7
p2218
I1
sV\u89e6\u89d2
p2219
I1
sV\u90a3\u6e5b\u7136
p2220
I1
sV\u6307\u6325\u5bb6
p2221
I1
sV\u73b0\u4efb
p2222
I1
sV\u4e07\u6cbb
p2223
I1
sV\u98a0\u5012
p2224
I1
sV\u8fb9\u7f18
p2225
I1
sV\u674e\u5fb7\u4f26
p2226
I1
sV\u9648\u5bc5\u606a
p2227
I1
sV\u9886\u57df
p2228
I2
sV\u4f20\u7edf\u6587\u5316
p2229
I41
sV\u5eb8\u4fd7
p2230
I1
sV\u7efc\u5408
p2231
I1
sV\u516b\u56fd\u8054\u519b
p2232
I1
sV\u8f93\u51fa
p2233
I5
sV\u6587\u5316\u4ea4\u6d41
p2234
I22
sV\u4e94\u56db\u8fd0\u52a8
p2235
I3
sV\u62a2\u5360
p2236
I1
sV\u5fc3\u7075\u53f2
p2237
I1
sV\u7bb1\u76d6
p2238
I1
sV\u804c\u4e1a\u9053\u5fb7
p2239
I2
sV\u8a00\u8c08
p2240
I1
sV\u676d\u5609
p2241
I4
sV\u7edb\u5dde
p2242
I1
sV\u4e07\u4f59
p2243
I1
sV\u51fa\u5ac1
p2244
I1
sV\u76f8\u4eb2
p2245
I1
sV\u5d2d\u9732\u5934\u89d2
p2246
I1
sV\u653e\u6620
p2247
I1
sV\u753b\u4ef7
p2248
I2
sV\u65f6\u7a7a
p2249
I1
sV\u610f\u8da3
p2250
I1
sV\u53d8\u5f97
p2251
I2
sV\u542f\u53d1
p2252
I1
sV\u8bb2\u6f14\u4f1a
p2253
I1
sV\u810d\u7099\u4eba\u53e3
p2254
I1
sV\u5e73\u5b89
p2255
I1
sV\u8fd9\u756a
p2256
I1
sV\u5c0f\u6807\u9898
p2257
I15
sV\u4e8b\u60c5
p2258
I1
sV\u6bd5\u4e1a
p2259
I3
sV\u6768\u7acb\u65b0
p2260
I1
sV\u4eba\u6c11\u51fa\u7248\u793e
p2261
I1
sV\u5916\u8bed
p2262
I1
sV\u5148\u8bf4
p2263
I1
sV\u4f55\u5360\u8c6a
p2264
I1
sV\u81ea\u5904
p2265
I1
sV\u5730\u5bab
p2266
I17
sV\u65e5\u672c\u4e1c\u4eac\u5927\u5b66
p2267
I1
sV\u8ff8\u53d1
p2268
I1
sV\u5510\u7687
p2269
I1
sV\u7533\u4e00\u6f88
p2270
I1
sV\u8336\u6587\u5316
p2271
I2
sV\u6587\u4e95
p2272
I1
sV\u53d1\u5c55\u53f2
p2273
I3
sV\u6177\u6168\u60b2\u6b4c
p2274
I1
sV\u8bc4\u9009
p2275
I2
sV\u64bc\u5929\u52a8\u5730
p2276
I1
sV\u9f99\u98de\u51e4\u821e
p2277
I1
sV\u5171\u540c\u4f53
p2278
I3
sV\u4e24\u6b21
p2279
I1
sV\u53d1\u6765
p2280
I1
sV\u5b66\u8d2f\u4e2d\u897f
p2281
I1
sV\u82f1\u52c7
p2282
I1
sV\u63a8\u8350
p2283
I5
sV\u771f\u60c5
p2284
I2
sV\u8d21\u732e
p2285
I2
sV\u7530\u91ce
p2286
I4
sV\u9762\u5bf9
p2287
I3
sV\u4eb2\u53cb
p2288
I1
sV\u5e74\u524d
p2289
I1
sV\u73cd\u8d35
p2290
I3
sV\u5b54\u5e9c
p2291
I1
sV\u53cb\u60c5
p2292
I1
sV\u8282\u76ee\u4e3b\u6301\u4eba
p2293
I1
sV\u6bcf\u7bc7
p2294
I3
sV\u6587\u5b66\u5bb6
p2295
I1
sV\u503e\u6155
p2296
I1
sV\u53d8\u4e2d\u6c42
p2297
I1
sV\u51fa\u751f
p2298
I1
sV\u5e26\u9886
p2299
I1
sV\u59a8\u788d
p2300
I3
sV\u6446\u5728
p2301
I1
sV\u6fc0\u6d3b
p2302
I1
sV\u8868\u6f14\u827a\u672f\u5bb6
p2303
I1
sV\u7ba1\u5f26\u4e50\u56e2
p2304
I1
sV\u5efa\u6210
p2305
I2
sV\u6709\u5bb3
p2306
I1
sV\u5927\u4e13\u9662\u6821
p2307
I1
sV\u5173\u4e1c
p2308
I1
sV\u7531\u76db
p2309
I1
sV\u751f\u8d22\u6709\u9053
p2310
I1
sV\u5185\u5fc3
p2311
I3
sV\u5e38\u4e3a
p2312
I1
sV\u65e5\u672c\u7ecf\u6d4e
p2313
I1
sV\u6bcf\u5230
p2314
I1
sV\u5bc6\u4e0d\u53ef\u5206
p2315
I1
sV\u5c61\u5174
p2316
I1
sV\u73af\u5883\u4f18\u96c5
p2317
I1
sV\u6821\u65b9
p2318
I1
sV\u63d0\u95ee
p2319
I3
sV\u5f00\u8f9f
p2320
I1
sV\u82cf\u5c0f
p2321
I2
sV\u70df\u53f0
p2322
I1
sV\u62da\u547d
p2323
I1
sV\u573a\u5185
p2324
I1
sV\u8c26\u865a
p2325
I1
sV\u89c2\u666f
p2326
I1
sV\u5148\u5929\u4e0b\u4e4b\u5fe7\u800c\u5fe7
p2327
I1
sV\u7ba1\u7406\u529e\u6cd5
p2328
I1
sV\u53e4\u8001
p2329
I2
sV\u6d77\u5916
p2330
I1
sV\u5173\u4e2d
p2331
I2
sV\u62e5\u6709
p2332
I1
sV\u4e0d\u65e0\u9057\u61be
p2333
I1
sV\u5267\u70c8
p2334
I1
sV\u94dc\u5956
p2335
I1
sV\u76db\u5510
p2336
I6
sV\u987a\u5229
p2337
I1
sV\u6dfb\u67f4
p2338
I1
sV\u674e\u7b95
p2339
I1
sV\u4e00\u4e2d\u4e00\u53f0
p2340
I1
sV\u6c49\u5b57
p2341
I2
sV\u5e7f\u4e1c\u8bed
p2342
I1
sV\u6cd5\u8bed
p2343
I1
sV\u76f8\u4e92
p2344
I6
sV\u5b8c\u6574
p2345
I3
sV\u8ff7\u96fe
p2346
I1
sV\u5386\u53f2\u4e3b\u4e49
p2347
I2
sV\u954c\u523b
p2348
I3
sV\u9057\u4ea7
p2349
I3
sV\u62a5\u8f7d
p2350
I1
sV\u7e41\u8363
p2351
I4
sV\u4e00\u6279
p2352
I6
sV\u707e\u96be
p2353
I1
sV\u5199\u666f
p2354
I1
sV\u4ee3\u8868\u6027
p2355
I2
sV\u7384\u5b66
p2356
I3
sV\u7687\u5bab
p2357
I2
sV\u51e0\u4f4d
p2358
I1
sV\u516c\u5fb7
p2359
I3
sV\u5e94\u5c4a
p2360
I1
sV\u6c11\u65cf\u6240
p2361
I1
sV\u5317\u4eac\u56fe\u4e66\u9986
p2362
I1
sV\u5112\u8005
p2363
I1
sV\u597d\u50cf
p2364
I1
sV\u9648\u5316\u6210
p2365
I1
sV\u5c11\u5e74\u5bab
p2366
I2
sV\u6c49\u5b66
p2367
I2
sV\u5236\u9020
p2368
I2
sV\u6c11\u95f4
p2369
I5
sV\u798f\u5efa\u7701
p2370
I1
sV\u70e7\u5236
p2371
I1
sV\u7167\u987e
p2372
I2
sV\u5ba3\u4f20
p2373
I5
sV\u5fc5\u9700
p2374
I2
sV\u5df2\u6709\u8fd1
p2375
I1
sV\u5929\u5929
p2376
I1
sV\u4e0d\u8a00\u800c\u55bb
p2377
I1
sV\u6709\u7279\u8272
p2378
I1
sV\u4e5d\u91cd
p2379
I1
sV\u9769\u547d
p2380
I9
sV\u8bfe\u672c
p2381
I1
sV\u5f62\u52bf
p2382
I1
sV\u5927\u4e2d\u534e
p2383
I1
sV\u6bd4\u8d5b
p2384
I7
sV\u5f90\u6c49\u660e
p2385
I1
sV\u5b66\u5f97
p2386
I1
sV\u6f14\u5316
p2387
I1
sV\u5f02\u8bae
p2388
I1
sV\u5c71\u533a
p2389
I1
sV\u706b\u70ac
p2390
I4
sV\u5410\u6545\u7eb3\u65b0
p2391
I1
sV\u6691\u5047
p2392
I1
sV\u65b0\u6625
p2393
I2
sV\u9519\u5931
p2394
I1
sV\u540d\u80dc
p2395
I1
sV\u5973\u52a0\u71d5
p2396
I1
sV\u652f\u67f1
p2397
I1
sV\u8bed\u8a00\u5b66\u9662
p2398
I1
sV\u8bba\u8bed
p2399
I6
sV\u5fc3\u6000
p2400
I1
sV\u6587\u5316\u754c
p2401
I1
sV\u6ed5\u6587\u516c
p2402
I1
sV\u54e8\u97f3
p2403
I1
sV\u5730\u65b9\u53f2
p2404
I1
sV\u5341\u79cd
p2405
I1
sV\u91cd\u89c6
p2406
I2
sV\u4efb\u6021\u5f64
p2407
I2
sV\u6574\u7406
p2408
I2
sV\u4f53\u5bdf
p2409
I1
sV\u4f5b\u85cf
p2410
I1
sV\u7ebf\u7d22
p2411
I2
sV\u5e73\u88c5
p2412
I1
sV\u5a74\u513f
p2413
I1
sV\u8c41\u4eba\u8033\u76ee
p2414
I1
sV\u6c11\u95f4\u6587\u5316
p2415
I2
sV\u9057\u4f20
p2416
I1
sV\u56de\u5473
p2417
I1
sV\u7aa5\u89c1
p2418
I1
sV\u793e\u4f1a\u5b66\u7cfb
p2419
I1
sV\u8d3e\u662d\u5168
p2420
I2
sV\u82cf\u5dde
p2421
I3
sV\u73b0\u8c61
p2422
I13
sV\u6469\u7eb3\u54e5
p2423
I1
sV\u7ecf\u6d4e\u53d1\u5c55
p2424
I1
sV\u884d\u53d8
p2425
I1
sV\u96c6\u4f53
p2426
I1
sV\u5efa\u7b51\u7cfb
p2427
I1
sV\u5c55\u793a
p2428
I4
sV\u51e0\u4e2a
p2429
I1
sV\u6545\u4e61
p2430
I1
sV\u4e94\u6d32
p2431
I1
sV\u5e7f\u64ad\u7535\u89c6
p2432
I4
sV\u60c5\u8282
p2433
I2
sV\u521b\u4e1a\u53f2
p2434
I1
sV\u5341\u4f59\u4e07\u79cd
p2435
I1
sV\u4eb2\u5207
p2436
I2
sV\u4e00\u9996
p2437
I2
sV\u65b0\u6587\u5316\u8fd0\u52a8
p2438
I1
sV\u6d6e\u96d5
p2439
I1
sV\u5f88\u5f3a
p2440
I1
sV\u95e8\u7c7b
p2441
I1
sV\u4ea4\u54cd\u97f3\u4e50
p2442
I1
sV\u653e\u677e
p2443
I1
sV\u827a\u672f\u6027
p2444
I1
sV\u8865\u5145
p2445
I1
sV\u591a\u6765
p2446
I2
sV\u6211\u4e2d\u6709\u4f60
p2447
I1
sV\u5916\u5411\u578b
p2448
I1
sV\u7279\u5b9a
p2449
I2
sV\u8bc4\u51fa
p2450
I1
sV\u6587\u5316\u8bfe
p2451
I1
sV\u6b63\u76f4
p2452
I2
sV\u4f01\u4e1a\u7ba1\u7406
p2453
I1
sV\u5929\u7984
p2454
I1
sV\u4e5d\u516b
p2455
I1
sV\u5f55\u97f3\u5e26
p2456
I1
sV\u5c3d\u73b0
p2457
I1
sV\u7a7a\u524d
p2458
I1
sV\u5112\u96c5\u98ce\u6d41
p2459
I1
sV\u53cd\u5dee
p2460
I1
sV\u4e60\u60ef
p2461
I5
sV\u662f\u4ece
p2462
I1
sV\u4e00\u79cd
p2463
I11
sV\u5ffd\u7565
p2464
I1
sV\u5c42\u6b21\u6027
p2465
I1
sV\u597d\u51e0
p2466
I2
sV\u4eba\u7c7b
p2467
I5
sV\u8521\u5143\u57f9
p2468
I2
sV\u6de1\u5316
p2469
I1
sV\u753b\u4e00\u79cd
p2470
I1
sV\u7956\u795e
p2471
I1
sV\u51fa\u683c
p2472
I1
sV\u519b\u4e50\u56e2
p2473
I1
sV\u6f14\u53d8
p2474
I2
sV\u4f4e\u5e7c
p2475
I1
sV\u5199\u6765
p2476
I2
sV\u6279\u8bc4
p2477
I1
sV\u6536\u85cf
p2478
I1
sV\u6c5f\u6cfd\u6c11
p2479
I1
sV\u5386\u4ee3
p2480
I1
sV\u5949\u516c
p2481
I2
sV\u4e9f\u5f85\u89e3\u51b3
p2482
I1
sV\u98ce\u666f\u753b
p2483
I1
sV\u5927\u540d\u9f0e\u9f0e
p2484
I1
sV\u95ed\u5e55\u5f0f
p2485
I1
sV\u6ca5\u9752
p2486
I6
sV\u5173\u6ce8
p2487
I3
sV\u5854\u5bfa
p2488
I1
sV\u6d3b\u51fa
p2489
I1
sV\u63d2\u56fe
p2490
I3
sV\u7586\u571f
p2491
I1
sV\u6210\u5c31
p2492
I1
sV\u53f0\u5bc6
p2493
I1
sV\u9881\u5956
p2494
I1
sV\u5165\u4fb5
p2495
I1
sV\u601d\u60f3\u5bb6
p2496
I1
sV\u53d8\u6cd5\u7ef4\u65b0
p2497
I1
sV\u5f00\u653e\u6027
p2498
I2
sV\u7559\u4f59\u5730
p2499
I1
sV\u793e\u4f1a\u5b66\u5bb6
p2500
I1
sV\u8d28\u91cf\u5956
p2501
I1
sV\u955c\u5934
p2502
I1
sV\u672c\u79d1\u751f
p2503
I1
sV\u529b\u6240\u80fd\u53ca
p2504
I1
sV\u91cd\u8000
p2505
I1
sV\u5f53\u521d
p2506
I1
sV\u8f85\u5bfc
p2507
I1
sV\u521d\u7a3f
p2508
I1
sV\u7956\u5ead
p2509
I2
sV\u534e\u76db\u987f
p2510
I2
sV\u8eab\u5f71
p2511
I1
sV\u4e8b\u5b9e\u4e0a
p2512
I1
sV\u9605\u8bfb
p2513
I6
sV\u52a0\u62ff\u5927
p2514
I13
sV\u8d70\u6781\u7aef
p2515
I1
sV\u9009\u9898
p2516
I1
sV\u653f\u6cbb\u7406\u8bba
p2517
I1
sV\u8236\u6765
p2518
I1
sV\u4e00\u5e45
p2519
I1
sV\u4e00\u9a6c\u5f53\u5148
p2520
I1
sV\u5927\u56fd
p2521
I1
sV\u7cbe\u795e\u6587\u660e
p2522
I7
sV\u6052\u5e38
p2523
I2
sV\u6c47\u805a
p2524
I1
sV\u9996\u90fd\u56fe\u4e66\u9986
p2525
I1
sV\u9ad8\u96c5
p2526
I2
sV\u90b9\u5bb9
p2527
I1
sV\u54f2\u7406
p2528
I3
sV\u5408\u4e4e
p2529
I1
sV\u524d\u66f2
p2530
I1
sV\u5982\u5760
p2531
I1
sV\u611f\u60c5
p2532
I2
sV\u4eba\u5bf0
p2533
I1
sV\u6559\u6750
p2534
I1
sV\u6cf0\u7eb3
p2535
I2
sV\u901a\u8baf
p2536
I1
sV\u53c2\u52a0
p2537
I10
sV\u6f14\u5458
p2538
I3
sV\u5229\u7528
p2539
I2
sV\u6750\u6599
p2540
I1
sV\u8c08\u8c08
p2541
I1
sV\u7f8e\u56fd\u8d38\u6613\u4ee3\u8868\u529e\u516c\u5ba4
p2542
I1
sV\u65b0\u52a0\u5761
p2543
I4
sV\u9690\u5bc6
p2544
I1
sV\u4e00\u5e74
p2545
I2
sV\u5317\u4eac\u4eba\u6c11\u827a\u672f\u5267\u9662
p2546
I1
sV\u6d41\u6cfb
p2547
I1
sV\u5c0f\u59d0
p2548
I1
sV\u6e05\u73b0
p2549
I1
sV\u5b66\u98ce
p2550
I2
sV\u79fb\u81f3
p2551
I1
sV\u8868\u73b0
p2552
I20
sV\u5357\u4eac\u8def
p2553
I1
sV\u7b80\u660e
p2554
I1
sV\u56fd\u753b
p2555
I1
sV\u51fa\u53e3
p2556
I3
sV\u6545\u571f
p2557
I2
sV\u5f85\u4eba\u63a5\u7269
p2558
I1
sV\u5267\u56e2
p2559
I2
sV\u7814\u8ba8
p2560
I3
sV\u7316\u7357
p2561
I1
sV\u5267\u76ee
p2562
I2
sV\u76f2\u4ece
p2563
I3
sV\u516b\u65ec
p2564
I1
sV\u56de\u53bb
p2565
I1
sV\u5bfb\u6c42
p2566
I1
sV\u673a\u6784
p2567
I2
sV\u524d\u660e
p2568
I1
sV\u6f14\u594f\u5bb6
p2569
I3
sV\u7535\u53f0
p2570
I1
sV\u5b57\u65f6
p2571
I1
sV\u7231\u56fd\u4e3b\u4e49
p2572
I23
sV\u81ea\u5f8b
p2573
I1
sV\u52a0\u6728
p2574
I1
sV\u5404\u7c7b
p2575
I3
sV\u6559\u5e08
p2576
I6
sV\u7814\u8bfb
p2577
I1
sV\u5c0a\u5b54
p2578
I2
sV\u89d2\u843d
p2579
I1
sV\u5357\u8d8a
p2580
I2
sV\u62c5\u5fc3
p2581
I1
sV\u7586\u57df
p2582
I1
sV\u540d\u526f\u5176\u5b9e
p2583
I1
sV\u732e\u7ed9
p2584
I2
sV\u5f53\u4ee3\u4eba
p2585
I1
sV\u7a7a\u4e3a
p2586
I1
sV\u5021\u5bfc
p2587
I1
sV\u4ee5\u5bb3
p2588
I1
sV\u542f\u8fea
p2589
I1
sV\u53d6\u4ee3
p2590
I1
sV\u8981\u4ea4
p2591
I1
sV\u6837\u5f0f
p2592
I1
sV\u5e02\u653f\u5e9c
p2593
I1
sV\u5fc5\u8981\u6027
p2594
I1
sV\u63d2\u961f
p2595
I1
sV\u6f4d\u574a
p2596
I1
sV\u5927\u9646
p2597
I29
sV\u522e\u76ee\u76f8\u770b
p2598
I1
sV\u5e7f\u544a
p2599
I3
sV\u6709\u672f
p2600
I1
sV\u8840\u8109\u76f8\u901a
p2601
I1
sV\u6b4c\u821e
p2602
I1
sV\u719f\u77e5
p2603
I1
sV\u631a\u7231
p2604
I1
sV\u671f\u520a
p2605
I19
sV\u96be\u4ee5\u5fd8\u6000
p2606
I1
sV\u786e\u7acb
p2607
I1
sV\u84ec\u52c3
p2608
I1
sV\u6cdb\u6cdb
p2609
I1
sV\u5982\u610f
p2610
I1
sV\u5eb7\u514b\u6e05
p2611
I1
sV\u76f4\u81f3
p2612
I2
sV\u798f\u5bff
p2613
I1
sV\u5e02\u4e95
p2614
I1
sV\u5960\u5b9a
p2615
I1
sV\u767d\u70ed\u5316
p2616
I1
sV\u7bb1\u91cc
p2617
I1
sV\u6210\u672c
p2618
I1
sV\u5b59\u609f\u7a7a
p2619
I1
sV\u56fa\u6267
p2620
I1
sV\u51fa\u7248
p2621
I28
sV\u4f18\u826f
p2622
I1
sV\u6587\u827a\u90e8
p2623
I1
sV\u4e66\u5e97
p2624
I3
sV\u6587\u5316\u533a
p2625
I2
sV\u5165\u4fb5\u8005
p2626
I1
sV\u8be5\u8d5b
p2627
I1
sV\u6df1\u5ea6
p2628
I1
sV\u535a\u5927\u7cbe\u6df1
p2629
I1
sV\u5df2\u8d8b
p2630
I1
sV\u5927\u578b
p2631
I4
sV\u4e8e\u543e\u8a00
p2632
I1
sV\u5927\u4f17\u6027
p2633
I1
sV\u4e0d\u60a6
p2634
I1
sV\u5206\u6790\u7814\u7a76
p2635
I1
sV\u603b\u4e66\u8bb0
p2636
I1
sV\u5408\u4f5c
p2637
I6
sV\u8fd9\u65b9\u9762
p2638
I3
sV\u53f0\u524d\u5e55\u540e
p2639
I1
sV\u6d41\u6dcc
p2640
I1
sV\u8d23\u4ee4
p2641
I1
sV\u8d23\u4efb
p2642
I1
sV\u5e95\u672c
p2643
I1
sV\u53e4\u6587\u5316
p2644
I1
sV\u4f3c\u53ef
p2645
I1
sV\u675c\u6708\u7b19
p2646
I1
sV\u5b66\u79d1
p2647
I2
sV\u6709\u610f\u601d
p2648
I1
sV\u7f3a\u4e4f
p2649
I3
sV\u9882\u626c
p2650
I1
sV\u6e6e\u6ca1
p2651
I1
sV\u523b\u5199
p2652
I1
sV\u5f20\u8d85
p2653
I1
sV\u98ce\u4fd7\u4e60\u60ef
p2654
I2
sV\u620f\u8a00
p2655
I2
sV\u542f\u53d1\u6027
p2656
I1
sV\u53cd\u5b54
p2657
I2
sV\u5f71\u9662
p2658
I1
sV\u53f6\u81f3\u5584
p2659
I1
sV\u6240\u83b7
p2660
I1
sV\u66fc\u751f
p2661
I1
sV\u65e5\u4f17
p2662
I1
sV\u7eaf\u6734
p2663
I1
sV\u751f\u5e73\u4e8b\u8ff9
p2664
I1
sV\u670d\u9970
p2665
I1
sV\u4e2d\u65e5\u5173\u7cfb
p2666
I1
sV\u9752\u5c11\u5e74
p2667
I11
sV\u517c\u5bb9\u6027
p2668
I1
sV\u5199\u610f
p2669
I1
sV\u5927\u5730
p2670
I1
sV\u4e00\u5f8b
p2671
I1
sV\u5c11\u513f\u51fa\u7248\u793e
p2672
I1
sV\u7ade\u4e89
p2673
I1
sV\u6000\u7591
p2674
I1
sV\u53ef\u4f9b
p2675
I2
sV\u6536\u83b7
p2676
I1
sV\u7f8e\u56fd\u829d\u52a0\u54e5\u5927\u5b66
p2677
I1
sV\u8fc7\u7a0b
p2678
I18
sV\u6570\u91cf
p2679
I1
sV\u53d1\u626c\u5149\u5927
p2680
I2
sV\u4e13\u5bb6\u5b66\u8005
p2681
I3
sV\u53f2\u548f\u7269
p2682
I1
sV\u7ec4\u7ec7\u8005
p2683
I1
sV\u751f\u6d3b
p2684
I25
sV\u4e3b\u65cb\u5f8b
p2685
I1
sV\u5f53\u4eca
p2686
I3
sV\u626c\u5a01
p2687
I1
sV\u6210\u679c
p2688
I3
sV\u7b80\u5355\u5316
p2689
I2
sV\u4e2d\u5219
p2690
I1
sV\u79d1\u6280
p2691
I3
sV\u4e16\u4ee3\u76f8\u4f20
p2692
I1
sV\u9a6c\u620f
p2693
I1
sV\u73cd\u5b9d
p2694
I1
sV\u603b\u6570
p2695
I1
sV\u5f88\u5927
p2696
I6
sV\u5236\u4f5c\u516c\u53f8
p2697
I1
sV\u524d\u6765
p2698
I4
sV\u53ea\u80fd
p2699
I5
sV\u516b\u5341
p2700
I2
sV\u827a\u672f
p2701
I27
sV\u5916\u56fd\u4eba
p2702
I1
sV\u793c\u6570
p2703
I2
sV\u5341\u5b57\u67b6
p2704
I1
sV\u63a2\u8ba8
p2705
I7
sV\u9a6c\u514b\u601d\u4e3b\u4e49
p2706
I11
sV\u79ef\u6dc0
p2707
I4
sV\u541b\u6743
p2708
I1
sV\u76ae\u76f8\u4e4b\u89c1
p2709
I1
sV\u65ad\u6210
p2710
I1
sV\u6377\u62a5\u9891\u4f20
p2711
I1
sV\u7b14\u89e6
p2712
I1
sV\u6253\u51fb\u4e50\u56e2
p2713
I1
sV\u94b1\u900a
p2714
I1
sV\u53cd\u5bf9
p2715
I3
sV\u6ee1\u6000\u4fe1\u5fc3
p2716
I1
sV\u968f\u540c
p2717
I1
sV\u53f2\u7eb2
p2718
I1
sV\u52aa\u529b
p2719
I5
sV\u79cd\u79cd
p2720
I2
sV\u9887\u503c
p2721
I1
sV\u6b22\u6109
p2722
I1
sV\u6df1\u5e7f
p2723
I2
sV\u98ce\u666f\u533a
p2724
I1
sV\u611f\u6168
p2725
I1
sV\u6587\u5316\u53f2
p2726
I1
sV\u8001\u540c\u5fd7
p2727
I1
sV\u62a5\u540d
p2728
I1
sV\u9ad8\u4e2d
p2729
I1
sV\u5341\u5c81
p2730
I1
sV\u5148\u8fdb
p2731
I4
sV\u89c6\u89d2
p2732
I1
sV\u793e\u4f1a\u5b66
p2733
I3
sV\u8336\u4eba
p2734
I2
sV\u6a2a\u8bfb
p2735
I1
sV\u51fa\u5165
p2736
I1
sV\u5f02\u4e8e
p2737
I1
sV\u6240\u60d1
p2738
I1
sV\u53d1\u6325
p2739
I4
sV\u5531\u7247
p2740
I1
sV\u5f81\u6218
p2741
I1
sV\u632f\u5174\u4e2d\u534e
p2742
I2
sV\u60ac\u7d22
p2743
I1
sV\u96d5\u523b
p2744
I4
sV\u6539\u9769\u5f00\u653e
p2745
I6
sV\u7acb\u59ff
p2746
I1
sV\u5c0f\u767e\u79d1
p2747
I3
sV\u7eda\u4e3d
p2748
I2
sV\u5f00\u5e55\u5f0f
p2749
I1
sV\u4e2d\u5eb8\u4e4b\u9053
p2750
I1
sV\u9a6c\u6765\u897f\u4e9a
p2751
I2
sV\u540c\u5b66
p2752
I2
sV\u800c\u6765
p2753
I1
sV\u7406\u6027\u5316
p2754
I1
sV\u660e\u4ee3
p2755
I1
sV\u4e3b\u7ebf
p2756
I1
sV\u987b\u81fe
p2757
I1
sV\u8a00\u884c
p2758
I2
sV\u7535\u89c6\u7247
p2759
I4
sV\u5546\u4e1a\u8c08\u5224
p2760
I1
sV\u957f\u77ed
p2761
I1
sV\u58a8\u9999
p2762
I1
sV\u51c0\u5316
p2763
I1
sV\u82f1\u96c4
p2764
I1
sV\u7eaa\u5b9e\u6587\u5b66
p2765
I1
sV\u65f6\u5e38
p2766
I1
sV\u72d7\u513f\u7237
p2767
I1
sV\u68a6\u5bd0\u4ee5\u6c42
p2768
I1
sV\u66f4\u8981
p2769
I3
sV\u5bcc\u5c14
p2770
I1
sV\u5929\u6d25\u4eba
p2771
I1
sV\u91d1\u5956
p2772
I1
sV\u8001\u7956\u5b97
p2773
I1
sV\u552e\u4e66
p2774
I1
sV\u7535\u89c6\u5267
p2775
I1
sV\u8d4f\u6790
p2776
I1
sV\u4e2d\u5171\u4e2d\u592e\u5ba3\u4f20\u90e8
p2777
I1
sV\u4eba\u7c7b\u5b66\u5bb6
p2778
I1
sV\u76f8\u6096
p2779
I2
sV\u9080\u8bf7\u8d5b
p2780
I1
sV\u8054\u7ed3
p2781
I1
sV\u878d\u4f1a
p2782
I2
sV\u8ba1\u5212\u5355\u5217
p2783
I1
sV\u6587\u5b66\u827a\u672f
p2784
I3
sV\u8d77\u5230
p2785
I1
sV\u5357\u8fc1
p2786
I1
sV\u519c\u6751
p2787
I1
sV\u7ee7\u627f
p2788
I11
sV\u957f\u76db\u4e0d\u8870
p2789
I1
sV\u9a6c\u516d\u7532
p2790
I1
sV\u5f69\u8272
p2791
I4
sV\u97e9\u6bd3\u6d77
p2792
I1
sV\u8fc7\u591a
p2793
I1
sV\u5404\u8981
p2794
I1
sV\u65b0\u6587\u5316
p2795
I4
sV\u7ad6\u6392
p2796
I2
sV\u4e94\u4e61\u9547
p2797
I1
sV\u6709\u9650\u516c\u53f8
p2798
I1
sV\u6b4c\u4ed4\u620f
p2799
I2
sV\u751f\u4e3a
p2800
I1
sV\u552f\u7269
p2801
I1
sV\u751f\u5b58
p2802
I2
sV\u4e91\u5ddd
p2803
I1
sV\u660e\u6e05
p2804
I1
sV\u76f8\u805a
p2805
I1
sV\u6c47\u62a5
p2806
I1
sV\u8fd9\u51fa
p2807
I1
sV\u62c6\u9664
p2808
I1
sV\u541b\u4e3b\u4e13\u5236
p2809
I1
sV\u5b88\u4e2d
p2810
I1
sV\u8bf8\u5b50
p2811
I2
sV\u7eaf\u6587\u5b66
p2812
I1
sV\u6ecb\u751f
p2813
I1
sV\u79cb\u9ad8\u6c14\u723d
p2814
I1
sV\u6d25\u95e8
p2815
I1
sV\u4f53\u4f1a
p2816
I1
sV\u4e00\u7801\u4e8b
p2817
I1
sV\u5408\u6cd5
p2818
I2
sV\u5176\u4e2d\u6559\u6388
p2819
I1
sV\u7269\u8d28
p2820
I2
sV\u5fe7\u6124
p2821
I1
sV\u61c2\u5f97
p2822
I1
sV\u89c2\u770b
p2823
I4
sV\u5e03\u7f6e
p2824
I2
sV\u5f00\u5929\u8f9f\u5730
p2825
I1
sV\u5bb3\u4eba
p2826
I1
sV\u6587\u5316\u90e8
p2827
I3
sV\u52e4\u594b
p2828
I1
sV\u5546\u54c1\u7ecf\u6d4e
p2829
I4
sV\u5c55\u54c1
p2830
I2
sV\u4f5c\u5bb6\u4f5c\u54c1
p2831
I1
sV\u4e2d\u592e\u6c11\u65cf\u4e50\u56e2
p2832
I2
sV\u4f59\u5e27
p2833
I1
sV\u8054\u5408\u4e3b\u529e
p2834
I1
sV\u4e1c\u627e
p2835
I1
sV\u53a8\u5e08
p2836
I1
sV\u5404\u7701
p2837
I1
sV\u5185\u5bb9
p2838
I12
sV\u5f97\u5df2
p2839
I1
sV\u5fe7\u6101
p2840
I1
sV\u65f6\u5149
p2841
I1
sV\u589e\u52a0
p2842
I1
sV\u5dc5\u5cf0
p2843
I1
sV\u5b8b\u4ee3
p2844
I1
sV\u4eba\u6587\u5386\u53f2
p2845
I1
sV\u603b\u79f0
p2846
I1
sV\u6e38\u5ba2
p2847
I3
sV\u5317\u7f8e
p2848
I1
sV\u81f3\u5c11
p2849
I1
sV\u4e0a\u5468
p2850
I2
sV\u81ea\u6211
p2851
I5
sV\u6570\u5343
p2852
I2
sV\u6570\u5341
p2853
I1
sV\u9769\u547d\u8005
p2854
I1
sV\u6e05\u4ee3
p2855
I2
sV\u949f\u656c\u6587
p2856
I2
sV\u6295\u5165
p2857
I1
sV\u53f2\u7c4d
p2858
I1
sV\u5fc3\u5f97
p2859
I1
sV\u8521\u548c\u68ee
p2860
I1
sV\u793e\u4f1a
p2861
I38
sV\u573a\u5408
p2862
I4
sV\u8003\u636e
p2863
I1
sV\u7948\u76fc
p2864
I1
sV\u901f\u98df\u9762
p2865
I2
sV\u53cd\u590d
p2866
I1
sV\u9aa8\u9ad3
p2867
I1
sV\u88c5\u5e27
p2868
I4
sV\u516d\u5929
p2869
I1
sV\u753b\u54c1
p2870
I1
sV\u6267\u6559
p2871
I1
sV\u5ba1\u7f8e
p2872
I3
sV\u6587\u827a\u590d\u5174
p2873
I1
sV\u9a6c\u575d\u4eba
p2874
I1
sV\u81ea\u5c0f
p2875
I1
sV\u6a21\u4eff
p2876
I1
sV\u5b66\u5236
p2877
I1
sV\u6bd5\u4e1a\u751f
p2878
I2
sV\u56fe\u4e66\u5206\u7c7b
p2879
I1
sV\u98ce\u4fd7
p2880
I2
sV\u5f15\u542d\u9ad8\u6b4c
p2881
I1
sV\u5b66\u672f\u8ba8\u8bba
p2882
I3
sV\u6c89\u601d
p2883
I1
sV\u7ec4\u5408
p2884
I1
sV\u4eba\u58eb
p2885
I9
sV\u540d\u64ad
p2886
I1
sV\u51c0\u571f\u5b97
p2887
I2
sV\u827a\u672f\u5de5\u4f5c\u8005
p2888
I2
sV\u505a\u4eba
p2889
I2
sV\u620f\u6821
p2890
I1
sV\u8336\u4ead
p2891
I1
sV\u94a2\u7434
p2892
I1
sV\u4e45\u8fdc
p2893
I1
sV\u547c\u5524
p2894
I4
sV\u4e2d\u5916
p2895
I11
sV\u9644\u7740
p2896
I2
sV\u6c42\u751f
p2897
I1
sV\u53d1\u626c
p2898
I9
sV\u4f59\u79cb\u91cc
p2899
I1
sV\u9ad8\u5c1a
p2900
I3
sV\u4e30\u529f\u4f1f\u7ee9
p2901
I1
sV\u672c\u65e5
p2902
I1
sV\u81ea\u7136\u4e3b\u4e49
p2903
I1
sV\u9f13\u821e
p2904
I1
sV\u9ec4\u6cb3\u5927\u5408\u5531
p2905
I3
sV\u5386\u7a0b
p2906
I1
sV\u5c55\u89c8\u4f1a
p2907
I3
sV\u4e2d\u592e
p2908
I1
sV\u6587\u8bba
p2909
I10
sV\u95ef\u8361
p2910
I1
sV\u4f0d\u5fb7\u6c83
p2911
I4
sV\u90e8\u5c06
p2912
I1
sV\u9886\u7565
p2913
I1
sV\u5927\u5ead\u5e7f\u4f17
p2914
I1
sV\u8be5\u4f1a
p2915
I1
sV\u4e0d\u53ef\u6216\u7f3a
p2916
I1
sV\u5c71\u5bfa
p2917
I1
sV\u5bf9\u5916\u4ea4\u6d41
p2918
I2
sV\u63a7\u544a
p2919
I1
sV\u72ec\u5177\u6167\u773c
p2920
I1
sV\u523b\u5370
p2921
I1
sV\u51fa\u5e2d
p2922
I1
sV\u53d6\u6d88
p2923
I1
sV\u4e0d\u826f
p2924
I1
sV\u4e24\u4ee3
p2925
I2
sV\u6392\u65a5
p2926
I1
sV\u4eba\u751f\u89c2
p2927
I1
sV\u5e02\u6c11
p2928
I2
sV\u8fdd\u80cc
p2929
I1
sV\u4e0a\u4e00
p2930
I1
sV\u98ce\u8d77\u4e91\u6d8c
p2931
I1
sV\u8fd9\u90e8
p2932
I10
sV\u7535\u89c6
p2933
I19
sV\u4e3e\u529e
p2934
I9
sV\u60a0\u4e45
p2935
I2
sV\u7279\u5f81
p2936
I3
sV\u63d0\u51fa
p2937
I11
sV\u7814\u7a76\u4f1a
p2938
I3
sV\u7231\u56fd
p2939
I7
sV\u6b63\u89c6
p2940
I1
sV\u5b54\u5b50
p2941
I8
sV\u4ea4\u6d41
p2942
I88
sV\u76f8\u58f0\u6f14\u5458
p2943
I1
sV\u5c34\u5c2c
p2944
I5
sV\u767d\u4e91\u89c2
p2945
I1
sV\u661f\u706b\u71ce\u539f
p2946
I1
sV\u611f\u6168\u4e07\u5206
p2947
I1
sV\u72ec\u7279
p2948
I6
sV\u6ce2\u4eea
p2949
I1
sV\u6027\u7075
p2950
I1
sV\u60f3\u65b9\u8bbe\u6cd5
p2951
I1
sV\u8054\u5408
p2952
I4
sV\u671f\u520a\u6742\u5fd7
p2953
I1
sV\u5bf9\u8c61
p2954
I1
sV\u5434\u79c9\u6770
p2955
I1
sV\u89c1\u9762
p2956
I3
sV\u6c89\u6d6e
p2957
I1
sV\u652f\u6301
p2958
I2
sV\u6587\u5316\u751f\u6d3b
p2959
I1
sV\u8fd1\u4ee3
p2960
I19
sV\u5e7f\u4e1c
p2961
I4
sV\u8fdb\u4e00\u6b65
p2962
I14
sV\u7687\u540e
p2963
I2
sV\u8840\u7f18
p2964
I2
sV\u5f71\u54cd
p2965
I24
sV\u6587\u5316\u5e02\u573a
p2966
I1
sV\u65b9\u6709
p2967
I3
sV\u5236\u54c1
p2968
I3
sV\u5f81\u8ba2
p2969
I1
sV\u4e3b\u7f16
p2970
I5
sV\u65e5\u8d8b
p2971
I2
sV\u6311\u6218
p2972
I1
sV\u5357\u4eac
p2973
I2
sV\u8fdb\u4fee
p2974
I1
sV\u56fd\u9645
p2975
I18
sV\u72ec\u5230
p2976
I1
sV\u4e00\u4e5d\u4e5d\u516d
p2977
I1
sV\u7535\u89c6\u53f0
p2978
I4
sV\u591a\u573a
p2979
I1
sV\u4e3a\u4eba\u6c11\u670d\u52a1
p2980
I1
sV\u5b8b\u8bcd
p2981
I2
sV\u547c\u558a
p2982
I1
sV\u4e66\u7c4d
p2983
I1
sV\u79cd\u6570
p2984
I1
sV\u65e0\u7591
p2985
I1
sV\u5b66\u672f\u89c2\u70b9
p2986
I1
sV\u6c11\u4e4b\u6240\u613f
p2987
I1
sV\u51fa\u53e3\u4ea7\u54c1
p2988
I1
sV\u53bb\u5e74
p2989
I9
sV\u63a8\u60f3
p2990
I1
sV\u5267\u4f5c\u5bb6
p2991
I1
sV\u4e0a\u6d77\u5357\u4eac\u8def
p2992
I2
sV\u957f\u7bc7\u5c0f\u8bf4
p2993
I3
sV\u8ff0\u8bc4
p2994
I1
sV\u8ffd\u6c42\u8005
p2995
I1
sV\u8ffd\u6eaf
p2996
I1
sV\u535a\u5f97
p2997
I1
sV\u52a8\u5de5
p2998
I1
sV\u4f59\u90e8
p2999
I1
sV\u65e5\u6587
p3000
I1
sV\u6545\u5bab
p3001
I2
sV\u9769\u547d\u5316
p3002
I1
sV\u7535\u5f71
p3003
I2
sV\u4eba\u4e3a\u56e0\u7d20
p3004
I1
sV\u53f2\u4f5c
p3005
I1
sV\u987e\u53ca
p3006
I1
sV\u8f70\u8f70\u70c8\u70c8
p3007
I1
sV\u5956\u72b6
p3008
I1
sV\u5f20\u6d5a
p3009
I1
sV\u57ce\u8fd1
p3010
I1
sV\u6d88\u4ea1
p3011
I1
sV\u51fa\u9f50
p3012
I1
sV\u5e0c\u671b
p3013
I3
sV\u7279\u6709
p3014
I1
sV\u4e1c\u5317
p3015
I1
sV\u8d70\u5411
p3016
I7
sV\u8001\u5e84
p3017
I1
sV\u6df1\u53d7
p3018
I1
sV\u4e2d\u56fd\u5316
p3019
I5
sV\u56de\u5f52
p3020
I2
sV\u8131\u9896\u800c\u51fa
p3021
I1
sV\u80e1\u9002
p3022
I1
sV\u53f8\u7a7a\u89c1\u60ef
p3023
I1
sV\u96c5\u9759
p3024
I1
sV\u82d7\u7c9f
p3025
I1
sV\u4e0d\u5c48\u4e0d\u6320
p3026
I1
sV\u7b2c\u56db
p3027
I1
sV\u6c57\u6d41\u6d43\u80cc
p3028
I1
sV\u59d4\u5458\u957f
p3029
I1
sV\u66f4\u597d
p3030
I1
sV\u6001\u5ea6
p3031
I2
sV\u6781\u9ad8
p3032
I2
sV\u53d1\u5c55\u5386\u53f2
p3033
I1
sV\u63a2\u7a76
p3034
I2
sV\u59da\u4e00\u82c7
p3035
I1
sV\u8bb0\u8f7d
p3036
I2
sV\u963f\u7f8e
p3037
I1
sV\u4e0a\u5112\u6cd5
p3038
I1
sV\u767e\u82b1\u6587\u827a\u51fa\u7248\u793e
p3039
I1
sV\u6253\u4f4f
p3040
I1
sV\u5750\u7985
p3041
I1
sV\u519b\u706b
p3042
I1
sV\u4e50\u4e8e
p3043
I1
sV\u7cbe\u88c5
p3044
I1
sV\u8fc4\u4eca
p3045
I1
sV\u8d77\u7740
p3046
I1
sV\u6df1\u5316
p3047
I1
sV\u517c\u901a
p3048
I1
sV\u6240\u5728\u5730
p3049
I1
sV\u7389\u96d5
p3050
I1
sV\u56f4\u5750
p3051
I1
sV\u611f\u5df2
p3052
I1
sV\u7edc\u7ece\u4e0d\u7edd
p3053
I1
sV\u8bbf\u95ee
p3054
I3
sV\u996d\u5e97
p3055
I1
sV\u4eab\u53d7
p3056
I1
sV\u82f1\u59ff
p3057
I1
sV\u8bbe\u8ba1
p3058
I2
sV\u53cb\u90bb
p3059
I1
sV\u7afa\u53ef\u6862
p3060
I3
sV\u56fd\u5916
p3061
I4
sV\u524d\u8a00
p3062
I1
sV\u80dc\u5730
p3063
I1
sV\u5c0f\u5267\u573a
p3064
I1
sV\u5ea7\u8c08
p3065
I2
sV\u5609\u5e73
p3066
I5
sV\u6298\u670d
p3067
I1
sV\u5b8b\u8bd7
p3068
I1
sV\u504f\u5e9f
p3069
I1
sV\u4e2d\u76f4
p3070
I1
sV\u534f\u5b9a
p3071
I1
sV\u627f\u524d\u542f\u540e
p3072
I1
sV\u4e2d\u56fd
p3073
I157
sV\u5236\u5b9a
p3074
I2
sV\u957f\u5904
p3075
I1
sV\u5e76\u4f5c
p3076
I1
sV\u5e74\u4ee3
p3077
I19
sV\u96d5\u7248
p3078
I1
sV\u8bfb\u97f3
p3079
I1
sV\u5224\u65ad
p3080
I2
sV\u6bcd\u4f53
p3081
I1
sV\u7b2c\u4e00\u7248
p3082
I1
sV\u6559\u4ed6
p3083
I1
sV\u8001\u5e08
p3084
I1
sV\u5956\u724c
p3085
I2
sV\u53f2\u6599
p3086
I1
sV\u8c26\u8c26
p3087
I1
sV\u5408\u62cd
p3088
I1
sV\u81ea\u53e4
p3089
I2
sV\u56de\u5fc6
p3090
I1
sV\u8bfe\u9898
p3091
I4
sV\u53d1\u751f\u5b66
p3092
I2
sV\u7eaa\u5b9e
p3093
I1
sV\u8f9e\u53bb
p3094
I1
sV\u672c\u4e13\u79d1\u751f
p3095
I1
sV\u5b66\u5458
p3096
I1
sV\u4e3a\u96c5
p3097
I1
sV\u5de5\u7a0b\u5e08
p3098
I2
sV\u6cb9\u753b
p3099
I1
sV\u82cf\u5dde\u5e02
p3100
I1
sV\u8fd1\u73b0\u4ee3
p3101
I1
sV\u4e3a\u672c
p3102
I2
sV\u6211\u8005
p3103
I1
sV\u57fa\u672c\u60c5\u51b5
p3104
I1
sV\u5f97\u610f\u95e8\u751f
p3105
I1
sV\u5fc3\u7075
p3106
I2
sV\u7ef4\u4e5f\u7eb3\u7231\u4e50\u4e50\u56e2
p3107
I1
sV\u97f3\u4e50\u4f1a
p3108
I1
sV\u540d\u57ce
p3109
I1
sV\u719f\u7a14
p3110
I1
sV\u5d07\u4f5b
p3111
I1
sV\u5c55\u73b0
p3112
I6
sV\u4e13\u5236\u4e3b\u4e49
p3113
I1
sV\u4e2d\u575c
p3114
I1
sV\u6b66\u65ad
p3115
I2
sV\u534e\u8bed
p3116
I2
sV\u4e25\u590d
p3117
I1
sV\u5957\u4e66
p3118
I3
sV\u6c42\u5b66
p3119
I1
sV\u53cd\u7701
p3120
I1
sV\u7b97\u662f
p3121
I1
sV\u7981\u6b62
p3122
I1
sV\u8bf4\u670d\u529b
p3123
I1
sV\u4e00\u4e5d\u516b\u516b\u5e74
p3124
I1
sV\u7167\u7247
p3125
I5
sV\u89c1\u5230
p3126
I2
sV\u539f\u5219
p3127
I2
sV\u6f14\u51fa\u56e2
p3128
I2
sV\u53ca\u65e9
p3129
I1
sV\u627f\u5fb7\u907f\u6691\u5c71\u5e84
p3130
I1
sV\u5c55\u5385
p3131
I4
sV\u672a\u5fc5
p3132
I2
sV\u8bd1\u540d
p3133
I1
sV\u8fd9\u5e74
p3134
I2
sV\u516d\u573a
p3135
I1
sV\u827a\u672f\u5927\u5e08
p3136
I1
sV\u91d1\u9675
p3137
I2
sV\u4e0d\u77e5\u6240\u4e91
p3138
I1
sV\u4e00\u534a
p3139
I3
sV\u5c11\u6570\u6c11\u65cf
p3140
I8
sV\u6881\u6f31\u6e9f
p3141
I2
sV\u8fc8\u5411
p3142
I1
sV\u674e\u94c1\u6620
p3143
I1
sV\u51fa\u571f\u6587\u7269
p3144
I2
sV\u96f7\u6d01\u743c
p3145
I1
sV\u652f\u6d41
p3146
I1
sV\u5371\u964b
p3147
I1
sV\u8336\u697c
p3148
I1
sV\u5b66\u95ee
p3149
I3
sV\u5927\u5be8
p3150
I1
sV\u6821\u52d8
p3151
I1
sV\u5c42\u6b21
p3152
I6
sV\u7ea2\u767d\u559c\u4e8b
p3153
I1
sV\u5448\u73b0
p3154
I2
sV\u9676\u884c\u77e5
p3155
I1
sV\u6ee1\u610f
p3156
I1
sV\u76f8\u8f85
p3157
I1
sV\u8bed\u97f3
p3158
I1
sV\u53e4\u8bd7
p3159
I1
sV\u9648\u72ec\u79c0
p3160
I1
sV\u661f\u661f
p3161
I4
sV\u767e\u4e07
p3162
I1
sV\u7f16\u7248
p3163
I1
sV\u708e\u9ec4
p3164
I5
sV\u6768\u65b0
p3165
I1
sV\u5b66\u753b
p3166
I1
sV\u6587\u5316\u57ce
p3167
I1
sV\u6587\u6559
p3168
I1
sV\u8f7b\u58f0
p3169
I1
sV\u4e2d\u534e\u6c11\u65cf
p3170
I33
sV\u6df1\u5207
p3171
I1
sV\u53d1\u884c
p3172
I1
sV\u6f29\u6da1
p3173
I1
sV\u8bb0\u4e8b
p3174
I1
sV\u6df7\u4e3a\u4e00\u8c08
p3175
I2
sV\u536b\u751f
p3176
I2
sV\u620f\u66f2
p3177
I1
sV\u62db\u724c
p3178
I2
sV\u8db3\u8ff9
p3179
I1
sV\u7cfb\u5217\u5c55
p3180
I3
sV\u8bed\u8a00\u6587\u5b57
p3181
I3
sV\u4ee5\u519c
p3182
I1
sV\u6df1\u523b
p3183
I4
sV\u5b66\u751f
p3184
I15
sV\u56ff\u4e8e
p3185
I1
sV\u8270\u82e6
p3186
I2
sV\u9676\u6e0a\u660e
p3187
I1
sV\u8fd4\u53f0
p3188
I1
sV\u8bdd\u8bed
p3189
I1
sV\u4e66\u520a
p3190
I1
sV\u591a\u8d77
p3191
I1
sV\u4e1b\u4e66
p3192
I8
sV\u6b96\u6c11\u4e3b\u4e49
p3193
I3
sV\u957f\u9879
p3194
I1
sV\u98ce\u5149
p3195
I2
sV\u8bb2\u5ea7
p3196
I1
sV\u542b\u6709
p3197
I1
sV\u96c5\u96c6
p3198
I1
sV\u4e13\u5bb6
p3199
I5
sV\u5206\u6790
p3200
I8
sV\u5730\u7403
p3201
I1
sV\u5927\u5b66
p3202
I3
sV\u5f39\u6307\u4e00\u6325\u95f4
p3203
I1
sV\u5947\u95e8\u9041\u7532
p3204
I1
sV\u9ad8\u96c4
p3205
I1
sV\u4e2d\u6240\u8a00
p3206
I1
sV\u6c42\u5b9e
p3207
I1
sV\u8033\u76ee\u4e00\u65b0
p3208
I1
sV\u6210\u8bed
p3209
I1
sV\u7fd4\u5b9e
p3210
I1
sV\u5343\u59ff\u767e\u6001
p3211
I1
sV\u4ec5\u4ee5
p3212
I1
sV\u8f6e\u8239
p3213
I1
sV\u9886\u5bfc
p3214
I1
sV\u773c\u775b
p3215
I1
sV\u96f6\u788e
p3216
I1
sV\u4eba\u6c11\u65e5\u62a5\u793e
p3217
I1
sV\u4e00\u53f0
p3218
I1
sV\u822c\u4e0b
p3219
I1
sV\u674e\u767b\u8f89
p3220
I2
sV\u5149\u8363
p3221
I2
sV\u5b66\u754c
p3222
I5
sV\u52fe\u52d2
p3223
I1
sV\u5929\u6d25\u5927\u5b66
p3224
I1
sV\u7279\u522b
p3225
I10
sV\u56fd\u5bb6
p3226
I23
sV\u7f51\u70b9
p3227
I1
sV\u9690\u55bb
p3228
I2
sV\u4eac\u6d25\u6caa
p3229
I1
sV\u8bf4\u6cd5
p3230
I1
sV\u5e86\u4e1c
p3231
I1
sV\u987d\u5f3a
p3232
I1
sV\u6cbb\u5b66
p3233
I1
sV\u8398\u8398\u5b66\u5b50
p3234
I1
sV\u8fc8\u7740
p3235
I1
sV\u5170\u65af
p3236
I1
sV\u7ae0\u8282
p3237
I1
sV\u503c\u5f97
p3238
I1
sV\u672c\u4e49
p3239
I1
sV\u81ea\u59cb\u81f3\u7ec8
p3240
I1
sV\u91c7\u8bbf
p3241
I3
sV\u680f\u6746
p3242
I1
sV\u60f3\u5230
p3243
I3
sV\u534a\u6b96\u6c11\u5730
p3244
I1
sV\u540c\u76df\u4f1a
p3245
I1
sV\u7740\u8ff0
p3246
I1
sV\u95ee\u4e16
p3247
I1
sV\u957f\u5b89
p3248
I2
sV\u7f57\u6770
p3249
I2
sV\u524d\u4e0d\u4e45
p3250
I2
sV\u5012\u9000
p3251
I1
sV\u573a\u5916
p3252
I1
sV\u4e4b\u7f18
p3253
I1
sV\u70bd\u70c8
p3254
I1
sV\u5b59\u4e2d\u5c71
p3255
I1
sV\u7fa4\u4f53
p3256
I1
sV\u8857\u5e02
p3257
I1
sV\u7487\u7391
p3258
I1
sV\u65b9\u9488
p3259
I1
sV\u5e26\u70b9
p3260
I1
sV\u5d07\u5584\u5bfa
p3261
I2
sV\u5e97\u724c
p3262
I1
sV\u9ed1\u767d
p3263
I1
sV\u5468\u5b9d\u594e
p3264
I1
sV\u751f\u6d3b\u73af\u5883
p3265
I1
sV\u9996\u8111
p3266
I1
sV\u9898\u5199
p3267
I1
sV\u559c\u6b22
p3268
I2
sV\u89c4\u5219
p3269
I1
sV\u4eba\u95f4
p3270
I1
sV\u7f16\u5199
p3271
I1
sV\u8d5a\u53d6
p3272
I1
sV\u65f6\u523b
p3273
I1
sV\u4e66\u753b
p3274
I1
sV\u642c\u8fdb
p3275
I1
sV\u5b97\u6559
p3276
I1
sV\u5de5\u4f5c\u8005
p3277
I1
sV\u592a\u539f\u5e02
p3278
I1
sV\u6d3e\u585e
p3279
I1
sV\u5bf9\u51c6
p3280
I1
sV\u6b27\u76df
p3281
I3
sV\u4e3b\u529e
p3282
I1
sV\u5bbd\u539a
p3283
I1
sV\u8bdd\u5267\u56e2
p3284
I1
sV\u56fd\u5ea6
p3285
I2
sV\u9080\u8bf7
p3286
I3
sV\u591a\u4eba
p3287
I2
sV\u5174\u8870\u53f2
p3288
I1
sV\u957f\u7bc7
p3289
I6
sV\u5f53\u5c40
p3290
I4
sV\u707f\u70c2
p3291
I7
sV\u4e9a\u6d32
p3292
I1
sV\u516b\u518c
p3293
I1
sV\u9570\u4ed3
p3294
I1
sV\u5199\u4e0b
p3295
I1
sV\u53ef\u5411\u53d1
p3296
I1
sV\u6829\u6829\u5982\u751f
p3297
I1
sV\u7aef\u6b63
p3298
I1
sV\u5965\u5730\u5229
p3299
I2
sV\u78b0\u649e
p3300
I2
sV\u9053\u5bb6
p3301
I1
sV\u9a6c\u5353\u5b89
p3302
I1
sV\u5e7d\u9ed8\u611f
p3303
I1
sV\u8d35\u65cf
p3304
I2
sV\u8d23\u4efb\u611f
p3305
I1
sV\u4e0a\u4e0b\u8f66
p3306
I1
sV\u4fa8\u4e61
p3307
I5
sV\u7740\u4f5c
p3308
I8
sV\u91cd\u8e48
p3309
I1
sV\u4ea4\u6d41\u56e2
p3310
I1
sV\u5730\u533a
p3311
I19
sV\u5206\u518c
p3312
I1
sV\u5218\u6c38
p3313
I1
sV\u7269\u8d28\u6027
p3314
I1
sV\u9650\u989d\u5236
p3315
I1
sV\u4eba\u751f
p3316
I2
sV\u8fd9\u51e0\u5e74
p3317
I1
sV\u4e00\u70b9
p3318
I2
sV\u5217\u5f3a
p3319
I1
sV\u8bde\u751f
p3320
I1
sV\u5404\u65cf
p3321
I1
sV\u653e\u4efb
p3322
I2
sV\u8d44\u4ea7\u9636\u7ea7
p3323
I1
sV\u4e2d\u548c
p3324
I1
sV\u6240\u8c08
p3325
I1
sV\u53f0\u751f
p3326
I1
sV\u6c49\u54c0\u5e1d
p3327
I1
sV\u56fd\u5b66
p3328
I18
sV\u8fd9\u4e00\u5e74
p3329
I1
sV\u53f2\u518c
p3330
I1
sV\u6587\u660e
p3331
I31
sV\u529b\u91cf
p3332
I3
sV\u80cc\u79bb
p3333
I1
sV\u6587\u53f2
p3334
I1
sV\u6c14\u58ee\u5c71\u6cb3
p3335
I1
sV\u4ee4\u4eba\u611f\u52a8
p3336
I2
sV\u73cd\u54c1
p3337
I3
sV\u53cd\u54cd
p3338
I1
sV\u8d3a\u6bc5
p3339
I1
sV\u4e00\u90e8
p3340
I6
sV\u8fc7\u8857\u5929\u6865
p3341
I1
sV\u719f\u9762
p3342
I1
sV\u4ea4\u54cd\u4e50
p3343
I1
sV\u4e2d\u592e\u7535\u89c6\u53f0
p3344
I8
sV\u6d59\u6c5f\u5927\u5b66
p3345
I1
sV\u5149\u8363\u611f
p3346
I1
sV\u8ffd\u6c42
p3347
I3
sV\u7eaa\u5ff5
p3348
I2
sV\u4f26\u7406
p3349
I8
sV\u60b2\u559c\u5267
p3350
I1
sV\u666e\u5929\u540c\u5e86
p3351
I1
sV\u94b1\u4e2d\u6587
p3352
I1
sV\u56fe\u6587
p3353
I1
sV\u7b80\u8981
p3354
I1
sV\u6620\u7167
p3355
I2
sV\u5bf9\u4e0d\u8d77
p3356
I1
sV\u4e0b\u843d\u4e0d\u660e
p3357
I1
sV\u5f00\u660e
p3358
I1
sV\u9053\u5fb7\u6027
p3359
I1
sV\u5929\u7136
p3360
I1
sV\u75db\u5fc3
p3361
I1
sV\u6df1\u9083
p3362
I2
sV\u4e00\u822c\u6765\u8bf4
p3363
I1
sV\u6307\u7740
p3364
I1
sV\u8bc4\u5956
p3365
I5
sV\u5386\u53f2\u6027
p3366
I1
sV\u5e74\u9f84
p3367
I2
sV\u9662\u6821
p3368
I2
sV\u957f\u4e8e
p3369
I1
sV\u751f\u6d3b\u65b9\u5f0f
p3370
I1
sV\u4e39\u6842
p3371
I1
sV\u9648\u8bf4
p3372
I1
sV\u89c4\u6a21\u8f83\u5927
p3373
I1
sV\u5b8b\u62d3
p3374
I1
sV\u4e00\u53e5\u8bdd
p3375
I1
sV\u8fd9\u7c7b
p3376
I2
sV\u4eea\u5f0f
p3377
I3
sV\u6e90\u8fdc\u6d41\u957f
p3378
I5
sV\u8d70\u5411\u4e16\u754c
p3379
I2
sV\u6881\u5c71\u4f2f
p3380
I1
sV\u9664\u5915
p3381
I1
sV\u4f01\u76fc
p3382
I1
sV\u4f5b\u5b66
p3383
I12
sV\u914d\u4ee5
p3384
I1
sV\u6f14\u594f\u5458
p3385
I1
sV\u5919\u613f
p3386
I1
sV\u5c55\u51fa
p3387
I5
sV\u97f3\u4e50
p3388
I15
sV\u5199\u8fc7
p3389
I1
sV\u9752\u6625
p3390
I1
sV\u63a2\u7d22
p3391
I2
sV\u8fd1\u5e74
p3392
I1
sV\u7535\u89c6\u7f51
p3393
I1
sV\u9f13\u4e50\u56e2
p3394
I1
sV\u4e4b\u5e78
p3395
I1
sV\u4ee5\u7406\u670d\u4eba
p3396
I1
sV\u77bf\u5f26\u548c
p3397
I1
sV\u5982\u4f5b
p3398
I1
sV\u5341\u51e0
p3399
I3
sV\u589e\u5f3a
p3400
I5
sV\u5927\u59d3
p3401
I1
sV\u6c11\u4f17
p3402
I6
sV\u5b66\u6821
p3403
I10
sV\u5766\u8bda
p3404
I1
sV\u4eba\u54c1
p3405
I1
sV\u5f71\u5267\u9662
p3406
I1
sV\u5374\u662f
p3407
I3
sV\u597d\u5947
p3408
I2
sV\u878d\u6210
p3409
I1
sV\u57ce\u5e02
p3410
I3
sV\u94a2\u67f1
p3411
I1
sV\u5730\u7406\u73af\u5883
p3412
I2
sV\u591a\u4f4d
p3413
I2
sV\u5168\u56fd\u4eba\u5927\u5e38\u59d4\u4f1a
p3414
I1
sV\u98de\u539f
p3415
I1
sV\u8f6e\u6d41
p3416
I1
sV\u4e00\u518c
p3417
I1
sV\u76db\u4e3e
p3418
I3
sV\u5f20\u4ef2
p3419
I1
sV\u62d3\u5c55
p3420
I2
sV\u6620\u51fa
p3421
I1
sV\u60c5\u51b5
p3422
I3
sV\u5438\u6536
p3423
I2
sV\u81ea\u4fe1\u5fc3
p3424
I5
sV\u65e5\u81f3
p3425
I2
sV\u7528\u4ee5
p3426
I1
sV\u5360\u5230
p3427
I2
sV\u9970\u6f14
p3428
I1
sV\u505a\u597d
p3429
I3
sV\u6770\u51fa
p3430
I4
sV\u5b69\u5b50
p3431
I9
sV\u6c11\u4e3b\u9769\u547d
p3432
I1
sV\u516c\u5171\u573a\u6240
p3433
I4
sV\u6bcb\u610f
p3434
I1
sV\u8721\u67d3
p3435
I1
sV\u65e0\u6211
p3436
I2
sV\u6c34\u602a
p3437
I1
sV\u542b\u8574
p3438
I1
sV\u8d4b\u8bd7
p3439
I1
sV\u4e0d\u80fd\u81ea\u62d4
p3440
I1
sV\u4f20\u7edf
p3441
I57
sV\u82f1\u5b50
p3442
I1
sV\u53ef\u53f9
p3443
I1
sV\u7559\u610f
p3444
I1
sV\u5f52\u7eb3
p3445
I1
sV\u7956\u5148
p3446
I2
sV\u7f16\u9009
p3447
I1
sV\u5927\u597d
p3448
I1
sV\u5370\u5237\u673a
p3449
I1
sV\u9ec4\u6d66\u6c5f
p3450
I1
sV\u63a8\u8350\u5de5\u4f5c
p3451
I3
sV\u5357\u6295
p3452
I1
sV\u89c2\u4f17
p3453
I9
sV\u5199\u4f5c
p3454
I2
sV\u7ecf\u5178
p3455
I3
sV\u5370\u5237\u672f
p3456
I1
sV\u6728\u68c9\u82b1
p3457
I1
sV\u751f\u8ba1
p3458
I1
sV\u6302\u56fe
p3459
I1
sV\u9762\u524d
p3460
I1
sV\u5e2d\u65af
p3461
I1
sV\u98ce\u8303
p3462
I1
sV\u4f55\u5149\u559c
p3463
I1
sV\u6982\u5ff5
p3464
I2
sV\u611f\u67d3\u529b
p3465
I1
sV\u4eba\u5458
p3466
I6
sV\u611f\u4f69
p3467
I1
sV\u6b63\u6c14\u6b4c
p3468
I1
sV\u773c\u754c
p3469
I1
sV\u4e25\u5bd2
p3470
I1
sV\u8d70\u9053
p3471
I2
sV\u6c9f\u901a
p3472
I4
sV\u7e41\u7b80
p3473
I1
sV\u9178\u751c\u82e6\u8fa3
p3474
I1
sV\u51b7\u996d
p3475
I1
sV\u6b8b\u66b4
p3476
I1
sV\u4e2d\u56fd\u5171\u4ea7\u515a
p3477
I1
sV\u5256\u6790
p3478
I2
sV\u51b6\u94f8
p3479
I1
sV\u9093\u5c0f\u5e73
p3480
I1
sV\u73cd\u7231
p3481
I2
sV\u6050\u60e7
p3482
I1
sV\u53cb\u4eba
p3483
I1
sV\u5357\u660c\u5e02
p3484
I1
sV\u7ecf\u6d4e\u4f53\u5236
p3485
I1
sV\u6709\u8fc7
p3486
I1
sV\u6fc0\u8361
p3487
I2
sV\u5e7f\u5c9b
p3488
I1
sV\u7efc\u8ff0
p3489
I2
sV\u4e4b\u5904
p3490
I1
sV\u4e3b\u52a8
p3491
I2
sV\u516c\u516c
p3492
I1
sV\u77db\u76fe
p3493
I6
sV\u738b\u5dcd
p3494
I1
sV\u6cf0\u56fd
p3495
I3
sV\u65f7\u4e16
p3496
I2
sV\u4fee\u847a
p3497
I2
sV\u771f\u8eab
p3498
I2
sV\u516c\u5173
p3499
I2
sV\u9886\u5e26
p3500
I2
sV\u516c\u5171
p3501
I6
sV\u7ffb\u770b
p3502
I1
sV\u793c\u8c8c
p3503
I6
sV\u7b14\u8005
p3504
I1
sV\u65b9\u6cd5
p3505
I12
sV\u81ea\u7136
p3506
I7
sV\u4e8e\u4e16
p3507
I1
sV\u4e2d\u56fd\u70ed
p3508
I1
sV\u5f53\u4ec1\u4e0d\u8ba9
p3509
I1
sV\u5f04\u6e05
p3510
I1
sV\u4e8c\u5341
p3511
I3
sV\u5fae\u8bcd
p3512
I1
sV\u68c0\u9605
p3513
I1
sV\u66f2\u961c
p3514
I1
sV\u91cd\u6e29
p3515
I1
sV\u5546\u4e1a
p3516
I2
sV\u56de\u7b54
p3517
I1
sV\u53e4\u4ee3
p3518
I10
sV\u6279\u5224
p3519
I5
sV\u5728\u5fc3
p3520
I4
sV\u7be1\u6539
p3521
I1
sV\u505a\u6cd5
p3522
I1
sV\u5168\u4e66
p3523
I1
sV\u601d\u60f3\u53f2
p3524
I4
sV\u5c55\u56e2
p3525
I1
sV\u6570\u4ee3\u4eba
p3526
I1
sV\u793c\u6cd5
p3527
I1
sV\u53e4\u4eca
p3528
I2
sV\u5370\u5237
p3529
I4
sV\u6c1b\u56f4
p3530
I2
sV\u6d3b\u52a8
p3531
I19
sV\u65b0\u534e\u4e66\u5e97
p3532
I5
sV\u591a\u59ff\u591a\u5f69
p3533
I1
sV\u5bb6\u65cf
p3534
I5
sV\u5973\u58eb
p3535
I2
sV\u6d59\u6c5f\u6587\u827a\u51fa\u7248\u793e
p3536
I1
sV\u5f0a\u7aef
p3537
I1
sV\u65f6\u6709
p3538
I1
sV\u63a5\u53d7
p3539
I4
sV\u843d\u540e
p3540
I3
sV\u53c2\u4e0e\u6027
p3541
I1
sV\u7956\u56fd
p3542
I36
sV\u4e60\u4f5c
p3543
I1
sV\u5174\u594b
p3544
I1
sV\u6709\u4f59
p3545
I1
sV\u6cd5\u65b9
p3546
I1
sV\u4fa7\u8bb0
p3547
I1
sV\u5b9d\u8d1d
p3548
I2
sV\u72ec\u594f
p3549
I1
sV\u9002\u610f
p3550
I1
sV\u5938\u5927
p3551
I1
sV\u8fd9\u7bc7
p3552
I1
sV\u674e\u79c0\u6210
p3553
I1
sV\u4e08\u4e8c\u548c\u5c1a\u6478\u4e0d\u7740\u5934\u8111
p3554
I1
sV\u6c42\u540c\u5b58\u5f02
p3555
I1
sV\u9075\u5b88
p3556
I6
sV\u58a8\u5b66
p3557
I1
sV\u7d20\u517b
p3558
I2
sV\u9e26\u7247
p3559
I3
sV\u5473\u513f
p3560
I1
sV\u62a5\u4e0a
p3561
I1
sV\u900f\u89c6
p3562
I1
sV\u5b66\u901a
p3563
I1
sV\u8d85\u8d8a
p3564
I2
sV\u60c5\u8da3
p3565
I1
sV\u521b\u9020
p3566
I10
sV\u8d28\u91cf
p3567
I1
sV\u4e4b\u5999
p3568
I1
sV\u5927\u5e08
p3569
I2
sV\u53f0\u5317
p3570
I3
sV\u4f1a\u4e0a
p3571
I2
sV\u5de1\u56de\u5c55
p3572
I1
sV\u63cf\u7ed8
p3573
I4
sV\u7406\u8bba\u5bb6
p3574
I1
sV\u9057\u73cd\u5c55
p3575
I1
sV\u753b\u793e
p3576
I1
sV\u65e0\u6570
p3577
I2
sV\u8bfb\u8005
p3578
I6
sV\u8fd1\u65e5
p3579
I4
sV\u8d2f\u901a
p3580
I1
sV\u9009\u9001
p3581
I1
sV\u520a\u523b
p3582
I1
sV\u8054\u6b22
p3583
I2
sV\u591a\u5bb6
p3584
I1
sV\u4f26\u7406\u9053\u5fb7
p3585
I3
sV\u79d1\u6280\u5174\u519c
p3586
I1
sV\u4e00\u4e66
p3587
I3
sV\u7cbe\u5fc3
p3588
I1
sV\u64ad\u6620
p3589
I2
sV\u5305\u542b
p3590
I4
sV\u662f\u5728
p3591
I3
sV\u5206\u6279
p3592
I1
sV\u535a\u5b66
p3593
I1
sV\u732e\u827a
p3594
I1
sV\u6587\u5b66\u53f2
p3595
I11
sV\u79d1\u6280\u4ea4\u6d41
p3596
I1
sV\u4e16\u754c\u5404\u56fd
p3597
I1
sV\u8bcd\u8bed
p3598
I1
sV\u4e60\u4fd7
p3599
I2
sV\u79e9\u5e8f\u4e95\u7136
p3600
I2
sV\u4e8b\u4e1a
p3601
I2
sV\u6d4b\u7ed8
p3602
I1
sV\u6587\u5316\u5a31\u4e50
p3603
I8
sV\u628a\u63e1
p3604
I2
sV\u5357\u65b9
p3605
I12
sV\u8fd9\u5bb6
p3606
I1
sV\u5112\u5bb6
p3607
I8
sV\u8bfb\u5230
p3608
I1
sV\u5e08\u751f
p3609
I1
sV\u533a\u522b
p3610
I1
sV\u5929\u5730
p3611
I4
sV\u4e2d\u534e
p3612
I20
sV\u9ad8\u9f84
p3613
I2
sV\u5357\u96c4
p3614
I1
sV\u8ff7\u5931
p3615
I2
sV\u5783\u573e\u7bb1
p3616
I1
sV\u4e8b\u8ff9
p3617
I1
sV\u5185\u5bb9\u5305\u62ec
p3618
I1
sV\u82e5\u5e72
p3619
I1
sV\u706b\u7ea2
p3620
I1
sV\u9752\u5c71\u79c0\u6c34
p3621
I1
sV\u8bba\u6587
p3622
I1
sV\u524d\u8f88
p3623
I2
sV\u5f0a\u5bb3
p3624
I1
sV\u4e00\u5730
p3625
I1
sV\u516b\u5bb6
p3626
I1
sV\u6240\u8bf4
p3627
I1
sV\u5171\u540c\u6027
p3628
I1
sV\u8d39\u5b5d\u901a
p3629
I5
sV\u524d\u8f99
p3630
I1
sV\u751a\u6df1
p3631
I1
sV\u4e16\u754c\u5404\u5730
p3632
I1
sV\u4e2d\u5305
p3633
I1
sV\u65e5\u672c
p3634
I23
sV\u9644\u548c
p3635
I2
sV\u8d77\u56e0
p3636
I1
sV\u66fe\u5230
p3637
I1
sV\u7cbe\u6df1
p3638
I1
sV\u5dee\u5f02
p3639
I4
sV\u751f\u52a8
p3640
I3
sV\u54c1\u4f4d
p3641
I1
sV\u5bfb\u627e
p3642
I2
sV\u5468\u5e74
p3643
I2
sV\u5ba1\u95ee
p3644
I1
sV\u6709\u673a
p3645
I1
sV\u8c6a\u95e8
p3646
I1
sV\u60f3\u5f53
p3647
I1
sV\u53d1\u8868
p3648
I3
sV\u8bfb\u7269
p3649
I9
sV\u7f16\u51fa
p3650
I1
sV\u4e66\u76ee
p3651
I2
sV\u9884\u79d1
p3652
I2
sV\u5e7f\u5dde
p3653
I1
sV\u6709\u4eba
p3654
I13
sV\u9b4f\u664b
p3655
I3
sV\u65e5\u6708
p3656
I2
sV\u771f\u8ff9
p3657
I1
sV\u5c48\u8fb1
p3658
I1
sV\u4ecb\u7ecd
p3659
I7
sV\u54c1\u683c
p3660
I4
sV\u5e1d\u56fd
p3661
I3
sV\u4e24\u56fd
p3662
I2
sV\u4f5c\u7528
p3663
I9
sV\u7531\u5927
p3664
I1
sV\u5b5f\u662d\u8d24
p3665
I4
sV\u4e2d\u592e\u4eba\u6c11\u5e7f\u64ad\u7535\u53f0
p3666
I1
sV\u4e2d\u533b
p3667
I4
sV\u8bb2\u6f14
p3668
I2
sV\u4e0a\u6d77
p3669
I5
sV\u97e9\u56fd
p3670
I3
sV\u94c1\u8840
p3671
I1
sV\u5927\u5199\u610f
p3672
I1
sV\u7ec4\u7ec7
p3673
I4
sV\u5468\u9521\u751f
p3674
I1
sV\u95f2\u60c5
p3675
I1
sV\u65f6\u95f4
p3676
I3
sV\u5c55\u5728
p3677
I1
sV\u5730\u540d
p3678
I1
sV\u4e2d\u53e4
p3679
I2
sV\u6bdb\u6cfd\u4e1c
p3680
I1
sV\u672a\u5b58
p3681
I1
sV\u9662\u56e2
p3682
I1
sV\u8d39\u57ce
p3683
I1
sV\u63d0\u9ad8
p3684
I8
sV\u51b7\u6f20
p3685
I1
sV\u6307\u51fa
p3686
I15
sV\u4e8e\u4e00\u4f53
p3687
I1
sV\u6728\u96d5
p3688
I1
sV\u7269\u8d28\u6587\u660e
p3689
I1
sV\u8f7d\u6587
p3690
I1
sV\u70ed\u7231
p3691
I3
sV\u4eba\u5219
p3692
I3
sV\u674e\u67e0
p3693
I3
sV\u4e91\u96c6
p3694
I1
sV\u4e13\u5fc3
p3695
I2
sV\u901a\u9053
p3696
I1
sV\u5a49\u8f6c
p3697
I1
sV\u98df\u54c1\u5e97
p3698
I1
sV\u79f0\u8c13
p3699
I1
sV\u65b0\u4f59
p3700
I2
sV\u4eba\u7269
p3701
I4
sV\u519c\u6c11
p3702
I2
sV\u6bcd\u8bed
p3703
I1
sV\u601d\u7d22
p3704
I1
sV\u50a8\u6237
p3705
I1
sV\u4ee5\u52a3
p3706
I1
sV\u5c16\u9510
p3707
I1
sV\u7b80\u4f53
p3708
I2
sV\u5112\u5b66
p3709
I12
sV\u7ec6\u5904
p3710
I1
sV\u4e2d\u539f
p3711
I4
sV\u5fd7\u58eb\u4ec1\u4eba
p3712
I1
sV\u6587\u8109
p3713
I1
sV\u8ba4\u540c
p3714
I1
sV\u7b80\u5316\u6c49\u5b57
p3715
I1
sV\u5927\u4f7f
p3716
I1
sV\u534e\u7f8e
p3717
I2
sV\u793c\u8d5e
p3718
I1
sV\u5a01\u6b66
p3719
I3
sV\u523a\u6fc0
p3720
I1
sV\u6c11\u56fd
p3721
I7
sV\u5229\u76ca
p3722
I2
sV\u5f85\u4eba
p3723
I2
sV\u79d8\u8272
p3724
I5
sV\u76ae\u5f71
p3725
I2
sV\u6731\u67ab
p3726
I1
sV\u5e02\u573a\u7ecf\u6d4e
p3727
I2
sV\u5de8\u7247
p3728
I1
sV\u5df2\u6709
p3729
I2
sV\u5e7c\u5a74
p3730
I1
sV\u77e5\u8bc6
p3731
I6
sV\u6307\u5bfc\u601d\u60f3
p3732
I1
sV\u5927\u6709\u4f5c\u4e3a
p3733
I1
sV\u4e3b\u4e49
p3734
I2
sV\u5c81\u7684\u5b66\u751f
p3735
I1
sV\u81ea\u7531
p3736
I1
sV\u6d82\u4e0a
p3737
I1
sV\u5e73\u65b9\u7c73
p3738
I1
sV\u8d5e\u8a89
p3739
I1
sV\u6b7b\u4ea1
p3740
I1
sV\u519b\u9600
p3741
I1
sV\u7269\u8bc1
p3742
I1
sV\u5e7f\u5ea6
p3743
I1
sV\u4ee5\u5176
p3744
I1
sV\u5112\u58a8
p3745
I2
sV\u8fd9\u5957
p3746
I4
sV\u6709\u52a9\u4e8e
p3747
I4
sV\u7f8e\u5b66\u89c2
p3748
I2
sV\u5e03\u8863
p3749
I1
sV\u5168\u6c11
p3750
I1
sV\u540e\u5929\u4e0b\u4e4b\u4e50\u800c\u4e50
p3751
I1
sV\u5e37\u5e55
p3752
I1
sV\u53f2\u7565
p3753
I1
sV\u53c2\u89c2\u8bbf\u95ee
p3754
I1
sV\u897f\u5b89
p3755
I3
sV\u98ce\u683c\u72ec\u7279
p3756
I1
sV\u4e8e\u6c11
p3757
I1
sV\u5e94\u9080
p3758
I3
sV\u5168\u56fd\u4f18\u79c0
p3759
I2
sV\u7ea2\u706f
p3760
I1
sV\u4e4b\u5b66
p3761
I1
sV\u5ba3\u626c
p3762
I3
sV\u5c81\u6708
p3763
I3
sV\u5fae\u89c2
p3764
I1
sV\u4e0d\u8ba9
p3765
I1
sV\u5730\u57df
p3766
I3
sV\u5c0a\u91cd
p3767
I1
sV\u6765\u8bbf
p3768
I7
sV\u5f71\u661f
p3769
I1
sV\u5347\u534e
p3770
I1
sV\u793c\u4eea
p3771
I15
sV\u5185\u5728
p3772
I2
sV\u6829\u6829
p3773
I1
sV\u987a\u5e8f
p3774
I2
sV\u552f\u6211\u72ec\u5c0a
p3775
I1
sV\u7cbe\u54c1\u5c55
p3776
I1
sV\u4e09\u5341
p3777
I1
sV\u6a2a\u6392
p3778
I2
sV\u65b9\u51b7\u897f
p3779
I1
sV\u6709\u76ca
p3780
I1
sV\u59d4\u5458\u4f1a
p3781
I3
sV\u5e74\u534a
p3782
I1
sV\u9ad8\u5cf0
p3783
I4
sV\u5e7f\u64ad\u8282\u76ee
p3784
I2
sV\u8270\u96be
p3785
I2
sV\u56e2\u4f53
p3786
I2
sV\u7b79\u63aa
p3787
I1
sV\u6e90\u5934
p3788
I2
sV\u7cbe\u795e\u6027
p3789
I1
sV\u518d\u6559\u80b2
p3790
I1
sV\u9053\u5fb7
p3791
I10
sV\u54c1\u8c8c
p3792
I1
sV\u79f0\u4f5c
p3793
I1
sV\u8bbf\u53f0
p3794
I2
sV\u821e\u8e48
p3795
I2
sV\u6742\u5fd7
p3796
I1
sV\u7528\u8bed
p3797
I1
sV\u521b\u520a
p3798
I1
sV\u81ea\u5de6\u5411
p3799
I1
sV\u82cf\u53d4\u9633
p3800
I1
sV\u53d8\u5316
p3801
I4
sV\u4e2d\u5171\u4e2d\u592e\u515a\u6821
p3802
I1
sV\u8d28\u53d8
p3803
I1
sV\u57f9\u690d
p3804
I1
sV\u5916\u6765
p3805
I3
sV\u80a9\u8d1f
p3806
I1
sV\u8001\u623f\u5b50
p3807
I1
sV\u664b\u738b
p3808
I1
sV\u53cb\u8c0a
p3809
I1
sV\u5f62\u5f0f
p3810
I8
sV\u6587\u827a
p3811
I8
sV\u770b\u91cd
p3812
I1
sV\u4e61\u6751
p3813
I5
sV\u8574\u79ef
p3814
I1
sV\u9523\u9f13\u961f
p3815
I1
sV\u8bfe\u7a0b
p3816
I4
sV\u5d47\u6587\u752b
p3817
I1
sV\u5317\u4eac\u5927\u5b66
p3818
I2
sV\u660e\u661f
p3819
I3
sV\u5b8b\u6728\u6587
p3820
I2
sV\u5982\u4f55\u628a\u63e1
p3821
I1
sV\u516c\u53f8
p3822
I7
sV\u5386\u6765
p3823
I1
sV\u66f4\u611f
p3824
I1
sV\u65b0\u77f3\u5668
p3825
I1
sV\u9648\u7ae0\u826f
p3826
I1
sV\u6ce5\u6c99\u4ff1\u4e0b
p3827
I1
sV\u5927\u5c71
p3828
I3
sV\u8a00\u60c5
p3829
I1
sV\u9ad8\u5c42
p3830
I2
sV\u5730\u575b
p3831
I1
sV\u6807\u699c
p3832
I1
sV\u5f55\u5f71
p3833
I1
sV\u7269\u8d28\u751f\u6d3b
p3834
I1
sV\u7eb7\u7eb7
p3835
I4
sV\u4e0a\u53e4
p3836
I2
sV\u7e41\u4f53
p3837
I2
sV\u4eba\u624d
p3838
I1
sV\u738b\u5b50
p3839
I1
sV\u8bb2\u6c42
p3840
I1
sV\u56db\u5904
p3841
I2
sV\u7985\u5b97
p3842
I2
sV\u54fa\u80b2
p3843
I2
sV\u5927\u5c55
p3844
I1
sV\u7cbe\u6e5b
p3845
I1
sV\u6821\u89c4
p3846
I1
sV\u878d\u878d
p3847
I1
sV\u5f02\u8da3
p3848
I1
sV\u6700\u4f7f
p3849
I1
sV\u6f14\u7ece
p3850
I1
sV\u534a\u5e74
p3851
I2
sV\u591a\u5143\u5316
p3852
I1
sV\u4e32\u4eb2\u621a
p3853
I1
sV\u5730\u8d8a
p3854
I1
sV\u5143\u66f2
p3855
I2
sV\u4f5b\u9aa8
p3856
I2
sV\u662f\u7531
p3857
I5
sV\u963f\u59c6\u65af\u7279\u4e39
p3858
I1
sV\u5b9a\u4f4d
p3859
I2
sV\u5931\u5f53
p3860
I1
sV\u535a\u5927
p3861
I3
sV\u53e3\u8bed
p3862
I1
sV\u7701\u7acb
p3863
I1
sV\u9009\u53d6
p3864
I1
sV\u4f5c\u8005
p3865
I13
sV\u5176\u95f4
p3866
I2
sV\u7279\u5730
p3867
I1
sV\u627f\u8ba4
p3868
I4
sV\u4e00\u751f
p3869
I2
sV\u65e0\u4ea7\u9636\u7ea7
p3870
I1
sV\u4e2d\u56fd\u9752\u5e74\u62a5
p3871
I1
sV\u53d8\u52a8
p3872
I1
sV\u53e4\u8d8a
p3873
I1
sV\u5f15\u8fdb
p3874
I4
sV\u7389\u5170
p3875
I1
sV\u8fd9\u9879
p3876
I4
sV\u53d1\u8a00
p3877
I1
sV\u8d2b\u56f0
p3878
I1
sV\u4e2d\u5171
p3879
I1
sV\u4f34\u7740
p3880
I1
sV\u81f4\u529b\u4e8e\u4e2d
p3881
I1
sV\u770b\u505a
p3882
I1
sV\u673a\u4f1a
p3883
I4
sV\u53c2\u8003\u4e66\u76ee
p3884
I1
sV\u6885\u6770
p3885
I1
sV\u6548\u679c
p3886
I1
sV\u796d\u7940
p3887
I1
sV\u53ef\u8bfb\u6027
p3888
I1
sV\u7ed3\u7ef3
p3889
I1
sV\u6267\u7740
p3890
I1
sV\u51b2\u7a81
p3891
I1
sV\u827a\u672f\u4e2d\u5fc3
p3892
I1
sV\u4e2d\u56fd\u5bf9\u5916\u6587\u5316\u4ea4\u6d41\u534f\u4f1a
p3893
I1
sV\u590d\u4ec7\u5973\u795e
p3894
I1
sV\u6d3b\u751f\u751f
p3895
I1
sV\u8d44\u6599
p3896
I3
sV\u8c26\u8ba9
p3897
I1
sV\u5408\u5531\u56e2
p3898
I2
sV\u73b0\u804c
p3899
I1
sV\u4e2d\u897f\u6587\u5316
p3900
I4
sV\u4e13\u7740
p3901
I2
sV\u753b\u9762
p3902
I1
sV\u559c\u7231
p3903
I6
sV\u4e09\u6559
p3904
I1
sV\u4e00\u65e0\u662f\u5904
p3905
I1
sV\u534a\u4e16\u7eaa
p3906
I2
sV\u859b\u5fb7\u9707
p3907
I2
sV\u4e00\u95e8
p3908
I2
sV\u5947\u8469
p3909
I1
sV\u5927\u4e49\u51db\u7136
p3910
I1
sV\u96f7\u8499\u5fb7
p3911
I1
sV\u4e2d\u56fd\u513f\u7ae5\u5c11\u5e74\u57fa\u91d1\u4f1a
p3912
I1
sV\u6fc0\u60c5
p3913
I1
sV\u8003\u8bc1
p3914
I1
sV\u5728\u6240\u96be\u514d
p3915
I1
sV\u7f16\u7e82
p3916
I1
sV\u5954\u8d70
p3917
I1
sV\u641c\u96c6
p3918
I1
sV\u4e8c\u65e5
p3919
I1
sV\u91cd\u8981\u8bb2\u8bdd
p3920
I1
sV\u6587\u5316\u827a\u672f
p3921
I2
sV\u5b66\u672f\u4ea4\u6d41
p3922
I2
sV\u4f38\u5f20\u6b63\u4e49
p3923
I1
sV\u5e03\u5c40
p3924
I1
sV\u5207\u5b9e\u53ef\u884c
p3925
I1
sV\u620a\u620c\u53d8\u6cd5
p3926
I1
sV\u5728\u65cf\u6e90
p3927
I1
sV\u65b0\u534e\u793e
p3928
I12
sV\u96c4\u4e09
p3929
I2
sV\u62db\u547c
p3930
I1
sV\u6210\u9f99\u914d\u5957
p3931
I1
sV\u4e0e\u4f1a
p3932
I4
sV\u8fde\u73af\u753b
p3933
I1
sV\u623f\u5c4b
p3934
I1
sV\u758f\u79bb\u611f
p3935
I1
sV\u8eab\u4e0a
p3936
I3
sV\u5468\u5c81
p3937
I1
sV\u5c55\u9500
p3938
I1
sV\u51c6\u786e
p3939
I2
sV\u7ec8\u65e5
p3940
I1
sV\u6d0b\u6ea2
p3941
I1
sV\u98ce\u8da3
p3942
I2
sV\u5c45\u5148
p3943
I1
sV\u9644\u5c5e\u56fd
p3944
I1
sV\u5de6\u8bfb
p3945
I1
sV\u81ea\u8d39
p3946
I1
sV\u5362\u660e
p3947
I1
sV\u62b1\u6028
p3948
I1
sV\u5320\u4eba
p3949
I2
sV\u4e0d\u5b66\u5219
p3950
I1
sV\u597d\u83b1\u575e
p3951
I7
sV\u8fc7\u6cd5
p3952
I2
sV\u56fe\u4e66\u5ba4
p3953
I3
sV\u6591\u6593
p3954
I1
sV\u516c\u5171\u5173\u7cfb
p3955
I2
sV\u72ec\u6811\u4e00\u5e1c
p3956
I1
sV\u516c\u52a1
p3957
I1
sV\u79f0\u4e3a
p3958
I9
sV\u9020\u578b
p3959
I1
sV\u8282\u76ee
p3960
I10
sV\u6c11\u4fd7\u98ce\u60c5
p3961
I1
sV\u800c\u4eca
p3962
I1
sV\u5b8b\u660e
p3963
I1
sV\u504f\u79c1
p3964
I1
sV\u4f55\u5efa\u56fd
p3965
I1
sV\u968b\u5510
p3966
I3
sV\u7406\u5b66
p3967
I1
sV\u6000\u5ff5
p3968
I1
sV\u9610\u91ca
p3969
I2
sV\u6797\u8fde\u6606
p3970
I1
sV\u540d\u5b66\u8005
p3971
I1
sV\u95fb\u98ce\u800c\u52a8
p3972
I1
sV\u6c9f\u53e3
p3973
I2
sV\u6a21\u62df
p3974
I1
sV\u4eba\u9053
p3975
I1
s.