(dp1
V\u58a8\u5b88\u6210\u89c4
p2
I1
sV\u4e66\u8bb0
p3
I5
sV\u7a46\u9752
p4
I1
sV\u9ad8\u6821
p5
I24
sV\u5170\u8003\u53bf
p6
I1
sV\u897f\u65b9
p7
I36
sV\u6ca6\u9677
p8
I1
sV\u81ea\u7136\u754c
p9
I2
sV\u6cb3\u5357
p10
I1
sV\u575a\u5b9e
p11
I1
sV\u5996\u9b54
p12
I2
sV\u786e\u4fdd
p13
I2
sV\u575a\u5b9a
p14
I7
sV\u59da\u671b
p15
I1
sV\u97e6\u5229
p16
I1
sV\u56fd\u5bb6\u6559\u59d4
p17
I2
sV\u56db\u67f1
p18
I1
sV\u59d4\u5458
p19
I5
sV\u6765\u4f5c
p20
I1
sV\u91cd\u540d
p21
I2
sV\u8c08\u5230
p22
I1
sV\u9898\u8bcd
p23
I1
sV\u53d1\u751f
p24
I4
sV\u6df3\u6734
p25
I3
sV\u6ce2\u5c14
p26
I1
sV\u4ef7\u503c\u8bba
p27
I1
sV\u6811\u7acb
p28
I7
sV\u4f20\u6559
p29
I1
sV\u8c08\u5224
p30
I6
sV\u770b\u4f5c
p31
I3
sV\u5343\u5200\u4e07\u5250
p32
I2
sV\u6de1\u6f20
p33
I2
sV\u4e24\u5927
p34
I3
sV\u5206\u7ec4
p35
I2
sV\u8fd9\u671f
p36
I2
sV\u96be\u4ee5
p37
I1
sV\u5173\u7cfb
p38
I71
sV\u8d8a\u5e7f
p39
I1
sV\u8fd9\u672c
p40
I2
sV\u60c5\u5165
p41
I2
sV\u4e16\u7eaa
p42
I22
sV\u9635\u8425
p43
I1
sV\u672c\u6839
p44
I2
sV\u5408\u4f5c\u4ea4\u6d41
p45
I1
sV\u5c31\u8fd1
p46
I1
sV\u4f53\u7cfb
p47
I17
sV\u515a\u4e2d\u592e
p48
I3
sV\u7b2c\u4e00
p49
I9
sV\u59dc\u6625\u4e91
p50
I1
sV\u98ce\u5c1a
p51
I1
sV\u4e8b\u7269
p52
I20
sV\u5938\u5927\u5176\u8f9e
p53
I1
sV\u53cd\u8eab
p54
I2
sV\u7b2c\u4e09
p55
I8
sV\u6240\u9650
p56
I1
sV\u65b0\u7586
p57
I1
sV\u5b64\u82b3\u81ea\u8d4f
p58
I1
sV\u4e3a\u4eba
p59
I1
sV\u610f\u5473\u7740
p60
I3
sV\u77ed\u5219
p61
I1
sV\u672c\u4e16\u7eaa
p62
I2
sV\u4e4b\u9053
p63
I1
sV\u4e24\u79cd
p64
I9
sV\u8bb2\u5230
p65
I2
sV\u62a5\u520a
p66
I1
sV\u6280\u672f
p67
I12
sV\u524d\u5217
p68
I1
sV\u5bcc\u88d5
p69
I1
sV\u89c4\u8303\u5316
p70
I1
sV\u5b66\u672f\u7814\u7a76
p71
I5
sV\u70ed\u5fc3
p72
I1
sV\u6cbb\u7406
p73
I1
sV\u591a\u540d
p74
I1
sV\u4f9d\u8d56
p75
I3
sV\u4e4b\u65e5
p76
I1
sV\u4e2d\u56fd\u5ef6\u5b89\u7cbe\u795e\u7814\u7a76\u4f1a
p77
I3
sV\u6b63\u4e49
p78
I2
sV\u672c\u7248
p79
I1
sV\u7834\u574f
p80
I4
sV\u5e73\u7b49
p81
I11
sV\u672c\u62a5
p82
I2
sV\u4e4b\u65f6
p83
I1
sV\u57fa\u672c\u539f\u5219
p84
I2
sV\u56db\u6709
p85
I1
sV\u4e0d\u8fdc\u5343\u91cc
p86
I1
sV\u793e\u79d1\u9662
p87
I2
sV\u9886\u5bfc\u73ed\u5b50
p88
I2
sV\u7ffb\u8bd1
p89
I6
sV\u5510\u8bd7
p90
I1
sV\u81ea\u7136\u8fa9\u8bc1\u6cd5
p91
I1
sV\u65e0\u5948
p92
I1
sV\u795e\u7075
p93
I2
sV\u5fe0\u5b9e
p94
I1
sV\u95f2\u60c5
p95
I1
sV\u8bfb\u8fc7
p96
I1
sV\u8f9b\u52e4
p97
I4
sV\u5185\u6db5
p98
I5
sV\u4e66\u7ecf
p99
I1
sV\u5de8\u4eba
p100
I1
sV\u63a8\u79fb
p101
I1
sV\u4eba\u8eab
p102
I2
sV\u8bd7\u7ecf
p103
I2
sV\u53d7\u76ca
p104
I1
sV\u5171\u4ea7\u515a\u5458
p105
I1
sV\u4e0a\u6d77\u51fa\u7248
p106
I1
sV\u674e\u7ef4\u6c49
p107
I1
sV\u6b66\u5668
p108
I17
sV\u672c\u539f
p109
I4
sV\u673a\u5236
p110
I2
sV\u6613\u5b66
p111
I2
sV\u53ef\u7b11
p112
I4
sV\u52e4\u4e8e
p113
I1
sV\u4eba\u683c
p114
I2
sV\u8d44\u6599\u4e30\u5bcc
p115
I1
sV\u8c0b\u53d6
p116
I3
sV\u672c\u7701
p117
I1
sV\u95ee\u9898\u89e3\u7b54
p118
I1
sV\u4e3b\u89c2
p119
I6
sV\u53c2\u89c2
p120
I2
sV\u4e00\u4f8b
p121
I1
sV\u683c\u683c
p122
I1
sV\u5341\u8bbf
p123
I1
sV\u9f13\u5439
p124
I1
sV\u70b9\u4eae
p125
I1
sV\u4eba\u4ee5
p126
I1
sV\u65b9\u5411\u6027
p127
I2
sV\u6c11\u65cf\u6587\u5316
p128
I1
sV\u53d8\u9769
p129
I11
sV\u6210\u5366
p130
I1
sV\u8bfb\u4e66
p131
I1
sV\u5468\u626c
p132
I1
sV\u7ecf\u6d4e\u5f62\u52bf
p133
I1
sV\u4e94\u53e5
p134
I1
sV\u81ea\u6211\u6279\u8bc4
p135
I1
sV\u8d21\u732e
p136
I9
sV\u5bf9\u7acb
p137
I20
sV\u6559\u8bad
p138
I1
sV\u8fd9\u662f
p139
I19
sV\u54f2\u5b66\u7cfb
p140
I2
sV\u6bc1\u706d
p141
I2
sV\u80dc\u4efb
p142
I1
sV\u56fd\u60c5
p143
I1
sV\u53d6\u5411
p144
I1
sV\u505a\u51fa
p145
I2
sV\u4e00\u6b7b
p146
I2
sV\u5168\u56fd
p147
I5
sV\u6cbb\u800c
p148
I1
sV\u8fd1\u534a\u4e2a
p149
I1
sV\u611a\u6627
p150
I2
sV\u81ea\u7136\u79d1\u5b66\u5bb6
p151
I1
sV\u73b0\u5e94
p152
I1
sV\u84c4\u610f
p153
I2
sV\u5218\u79c0
p154
I1
sV\u5b66\u6d3e
p155
I3
sV\u5206\u5f00
p156
I1
sV\u4e2d\u534e\u4eba\u6c11\u5171\u548c\u56fd
p157
I1
sV\u7b80\u5316
p158
I2
sV\u601d\u60f3\u89e3\u653e
p159
I2
sV\u5f15\u5165
p160
I1
sV\u672a\u6765
p161
I11
sV\u8d50\u7269
p162
I4
sV\u5207\u78cb
p163
I4
sV\u5fb7\u56fd
p164
I1
sV\u603b\u4f53
p165
I2
sV\u5f62\u6001
p166
I7
sV\u7f16\u8f91
p167
I1
sV\u4e3a\u4f8b
p168
I1
sV\u8fde\u6c5f
p169
I1
sV\u610f\u89c1
p170
I10
sV\u6539\u53d8
p171
I5
sV\u5b66\u53cb\u4f1a
p172
I1
sV\u5bf9\u515a
p173
I1
sV\u8eab\u5904
p174
I1
sV\u8fc7\u6e21
p175
I3
sV\u63ed\u9732
p176
I1
sV\u4eba\u4e16
p177
I2
sV\u6587\u827a\u7406\u8bba
p178
I5
sV\u6e05\u6670
p179
I1
sV\u914d\u9f50
p180
I1
sV\u5815\u843d
p181
I2
sV\u9610\u8ff0
p182
I8
sV\u4eba\u5927\u4ee3\u8868
p183
I1
sV\u4e2d\u8f83
p184
I2
sV\u672c\u534e
p185
I2
sV\u62e5\u62a4
p186
I1
sV\u6768\u690d\u9716
p187
I1
sV\u56e2\u4e2d\u592e
p188
I1
sV\u7ba1\u4f4f
p189
I1
sV\u7b80\u5355
p190
I23
sV\u8981\u5b98
p191
I1
sV\u60f3\u89c1
p192
I1
sV\u603b\u653f\u6cbb\u90e8
p193
I2
sV\u699c\u6837
p194
I1
sV\u8bd1\u6cd5
p195
I1
sV\u9519\u8bef
p196
I23
sV\u6ce2\u6d6a\u5f0f
p197
I3
sV\u6a21\u7cca
p198
I3
sV\u9f9f\u58f3
p199
I1
sV\u57fa\u672c\u77db\u76fe
p200
I2
sV\u9752\u5c9b
p201
I1
sV\u628a\u4f4f
p202
I1
sV\u683c\u5c40
p203
I1
sV\u63a8\u5411
p204
I3
sV\u8427\u524d
p205
I1
sV\u56db\u662f
p206
I1
sV\u7814\u7a76\u5458
p207
I1
sV\u52b3\u4f5c
p208
I1
sV\u9886\u5bfc\u6743
p209
I1
sV\u5f3a\u5927
p210
I9
sV\u8be6\u5c3d
p211
I1
sV\u6e10\u843d
p212
I1
sV\u5b9e\u6548
p213
I1
sV\u4e09\u4f4d\u4e00\u4f53
p214
I1
sV\u52a0\u6df1
p215
I2
sV\u5f55\u50cf\u7247
p216
I1
sV\u652b\u53d6
p217
I4
sV\u5148\u5bcc
p218
I2
sV\u4e2d\u56fd\u4eba
p219
I10
sV\u77e5\u8bc6\u51fa\u7248\u793e
p220
I3
sV\u7f3a\u5931
p221
I1
sV\u5c06\u4e8e
p222
I1
sV\u5b8c\u5584
p223
I3
sV\u5de5\u4e1a\u751f\u4ea7
p224
I2
sV\u65e0\u653f\u5e9c\u4e3b\u4e49
p225
I1
sV\u6052\u5fc3
p226
I1
sV\u5148\u5bfc
p227
I3
sV\u5178\u7c4d
p228
I5
sV\u4e1c\u897f
p229
I19
sV\u5341\u56db\u5927
p230
I2
sV\u6a21\u5f0f
p231
I2
sV\u827a\u672f\u7cbe\u54c1
p232
I1
sV\u5370\u8c61
p233
I3
sV\u4e13\u804c
p234
I3
sV\u6b32\u901f\u4e0d\u8fbe
p235
I1
sV\u529e\u4e8b\u5904
p236
I1
sV\u6db5\u76d6\u9762
p237
I1
sV\u597d\u6076
p238
I1
sV\u6539\u9020
p239
I13
sV\u4ef7\u503c\u89c2
p240
I25
sV\u8fbe\u81f3
p241
I1
sV\u6700\u574f
p242
I2
sV\u65e0\u79c1
p243
I1
sV\u8d70\u4e0a
p244
I4
sV\u4e0a\u7bc7
p245
I1
sV\u57fa\u5730
p246
I1
sV\u5df2\u6709
p247
I9
sV\u62ef\u6551
p248
I1
sV\u673a\u5173
p249
I1
sV\u5730\u8bf4
p250
I2
sV\u5f88\u5927
p251
I1
sV\u4e00\u5206\u4e3a\u4e8c
p252
I2
sV\u63a8\u52a8\u529b
p253
I2
sV\u552f\u5fc3\u8bba
p254
I1
sV\u5b9e\u8df5\u8bba
p255
I7
sV\u5fc3\u8d34
p256
I1
sV\u4e24\u9b13
p257
I1
sV\u540d\u519b
p258
I1
sV\u793e\u4f1a\u7ba1\u7406
p259
I2
sV\u8d35\u5dde
p260
I1
sV\u53ef\u9119
p261
I2
sV\u8d77\u4e66
p262
I1
sV\u521b\u4e1a
p263
I1
sV\u9886\u609f
p264
I2
sV\u65b0\u578b
p265
I4
sV\u5c45\u6c11
p266
I3
sV\u5e72\u6270
p267
I3
sV\u9999\u6e2f
p268
I1
sV\u7ae0\u7a0b
p269
I2
sV\u5f55\u76f8\u673a
p270
I1
sV\u663e\u5f97
p271
I3
sV\u8def\u7ebf
p272
I17
sV\u67d3\u4e0a
p273
I1
sV\u5148\u7b6e
p274
I1
sV\u56ed\u5730
p275
I1
sV\u548c\u8c10
p276
I5
sV\u4e89\u8d2d
p277
I1
sV\u654c\u5bf9
p278
I2
sV\u6e56\u5357\u7701
p279
I1
sV\u52a8\u673a
p280
I1
sV\u68cb\u5360
p281
I1
sV\u5207\u5b9e
p282
I2
sV\u4e0d\u5728
p283
I1
sV\u5b66\u597d
p284
I8
sV\u5b66\u4e60
p285
I64
sV\u76f8\u53cd\u76f8\u6210
p286
I2
sV\u62a5\u507f
p287
I2
sV\u8bf4\u7406
p288
I2
sV\u53d8\u4f53
p289
I2
sV\u4e0d\u5fd8\u4ea1
p290
I1
sV\u73b0\u5df2
p291
I3
sV\u89c1\u89e3
p292
I3
sV\u542c\u6765
p293
I1
sV\u5b9e\u65bd
p294
I4
sV\u90a3\u79cd
p295
I10
sV\u9009\u4e3e
p296
I1
sV\u5ef6\u5b89
p297
I19
sV\u4e2d\u5ba3\u90e8
p298
I2
sV\u6447\u5507\u9f13\u820c
p299
I1
sV\u81ea\u89c9
p300
I4
sV\u5b81\u9759\u81f4\u8fdc
p301
I1
sV\u7fa4\u4f17
p302
I37
sV\u8d2f\u4e32
p303
I2
sV\u7740\u773c
p304
I2
sV\u9752\u5e74
p305
I9
sV\u4e0d\u6562\u9ad8\u6500
p306
I1
sV\u63a8\u5bfc
p307
I1
sV\u6587\u827a\u754c
p308
I2
sV\u8fbe\u5c14\u6587
p309
I1
sV\u5ba1\u8bae
p310
I2
sV\u653e\u5728
p311
I2
sV\u5927\u4e13\u9662\u6821
p312
I2
sV\u9b45\u529b
p313
I1
sV\u5356\u5b98
p314
I1
sV\u4ee3\u4ef7
p315
I4
sV\u9b4f\u559c\u594e
p316
I1
sV\u6307\u5bfc\u6027
p317
I1
sV\u6c47\u7387
p318
I1
sV\u89c2\u5ff5
p319
I23
sV\u5ea7\u8c08\u4f1a
p320
I1
sV\u5386\u53f2\u552f\u7269\u4e3b\u4e49
p321
I8
sV\u5f15\u53d1
p322
I1
sV\u6f5c\u79fb\u9ed8\u5316
p323
I2
sV\u5d14\u677c\u60f3
p324
I1
sV\u601d\u60f3\u8def\u7ebf
p325
I11
sV\u672a\u6765\u4e3b\u4e49
p326
I1
sV\u901a\u8baf\u5458
p327
I1
sV\u54e5\u672c\u54c8\u6839
p328
I1
sV\u6c11\u65cf
p329
I2
sV\u4e3b\u4f53\u6027
p330
I2
sV\u4e2d\u897f\u90e8
p331
I2
sV\u63a2\u7d22
p332
I7
sV\u6b65\u9aa4
p333
I2
sV\u5168\u5174
p334
I1
sV\u5206\u6790\u6cd5
p335
I4
sV\u6d1e\u6089
p336
I2
sV\u61c2\u5f97
p337
I3
sV\u4eac\u623f
p338
I1
sV\u4e0b\u573a
p339
I2
sV\u610f\u6b32
p340
I9
sV\u6210\u516c
p341
I2
sV\u98df\u5bbf
p342
I1
sV\u5c40\u9762
p343
I2
sV\u673a\u9047
p344
I2
sV\u65e8\u5728
p345
I1
sV\u538b\u6291
p346
I2
sV\u5404\u7c7b
p347
I1
sV\u5fae\u971c
p348
I1
sV\u4e89\u9e23
p349
I1
sV\u9500\u5f97
p350
I1
sV\u516c\u4ec6
p351
I2
sV\u4ea7\u4e1a\u653f\u7b56
p352
I1
sV\u6574\u7406
p353
I1
sV\u90c1\u6587
p354
I1
sV\u64b0\u5199
p355
I3
sV\u54f2\u5b66\u7684\u515a\u6027
p356
I1
sV\u90d1\u5fb7\u521a
p357
I2
sV\u9ec4\u706b\u9752
p358
I1
sV\u7406\u8bba\u5de5\u4f5c\u8005
p359
I3
sV\u8fd9\u51e0\u6761
p360
I1
sV\u610f\u8bc6
p361
I19
sV\u5b66\u4f1a
p362
I3
sV\u515a\u603b\u652f
p363
I1
sV\u540c\u4e8b
p364
I1
sV\u7591\u96be
p365
I1
sV\u594b\u6597
p366
I1
sV\u770b\u6cd5
p367
I2
sV\u5fb7\u80dc
p368
I1
sV\u81ea\u8eab\u5efa\u8bbe
p369
I2
sV\u5171\u9752\u56e2\u4e2d\u592e
p370
I1
sV\u751f\u5b58
p371
I5
sV\u526f\u6559\u6388
p372
I1
sV\u66f4\u5c11
p373
I1
sV\u98de\u8dc3
p374
I1
sV\u53e4\u5178
p375
I7
sV\u5766\u9014
p376
I2
sV\u4f01\u4e1a
p377
I4
sV\u6559\u7814\u5ba4
p378
I1
sV\u540c\u4ec1
p379
I1
sV\u9b4f\u5b88
p380
I1
sV\u8c03\u63a7
p381
I2
sV\u8dc3\u5165
p382
I1
sV\u8bed\u6d77
p383
I1
sV\u65b0\u7586\u519b\u533a
p384
I1
sV\u4f26\u7406
p385
I4
sV\u5584\u6076
p386
I2
sV\u59a5\u534f
p387
I3
sV\u8bd1\u4ecb
p388
I2
sV\u5b66\u4f4d
p389
I1
sV\u7247\u9762\u6027
p390
I3
sV\u663e\u793a
p391
I2
sV\u6027\u6587\u5316
p392
I2
sV\u4e00\u4e07
p393
I1
sV\u5b58\u800c
p394
I1
sV\u6c47\u901a
p395
I30
sV\u800c\u7528
p396
I1
sV\u7740\u91cd
p397
I4
sV\u8eab\u4f53
p398
I1
sV\u5e7f\u64ad
p399
I2
sV\u5145\u5b9e
p400
I2
sV\u4f55\u4ea6\u519c
p401
I1
sV\u4e0d\u53ef\u591a\u5f97
p402
I1
sV\u601d\u8003
p403
I13
sV\u6587\u98ce
p404
I1
sV\u5f3a\u5f31
p405
I4
sV\u793c\u8d24\u4e0b\u58eb
p406
I1
sV\u56e2\u6821
p407
I2
sV\u4f1a\u4e0a
p408
I4
sV\u4e0d\u51c6
p409
I1
sV\u591a\u90e8
p410
I2
sV\u7981\u4e66
p411
I1
sV\u8fa9\u8bc1\u903b\u8f91
p412
I1
sV\u5947\u7f3a
p413
I1
sV\u4e3b\u89c2\u4e0e\u5ba2\u89c2
p414
I1
sV\u521b\u59cb\u4eba
p415
I1
sV\u674e\u6587\u653f
p416
I1
sV\u603b\u4efb\u52a1
p417
I1
sV\u8fce\u5203\u800c\u89e3
p418
I1
sV\u5e74\u521d
p419
I1
sV\u7834\u9664
p420
I3
sV\u6700\u5148
p421
I1
sV\u6253\u5370
p422
I1
sV\u6df1\u8fdc
p423
I3
sV\u7f8e\u5b66
p424
I2
sV\u6392\u9664
p425
I11
sV\u60c5\u51b5
p426
I11
sV\u5883\u754c
p427
I2
sV\u521b\u9020\u8005
p428
I1
sV\u6df7\u4e71
p429
I3
sV\u4e0a\u6d77\u8b66\u5907\u533a
p430
I1
sV\u5065\u5eb7
p431
I8
sV\u6b32\u671b
p432
I1
sV\u4f18\u5316
p433
I2
sV\u5317\u4eac\u5e02
p434
I1
sV\u5c11\u72af
p435
I1
sV\u65b9\u9488
p436
I21
sV\u7406\u60f3
p437
I15
sV\u82e5\u6709
p438
I2
sV\u4f59\u9875
p439
I1
sV\u83f2\u5f8b\u5bbe
p440
I1
sV\u5408\u5e76
p441
I1
sV\u6691\u671f
p442
I11
sV\u51e0\u79cd
p443
I1
sV\u666e\u904d\u6027
p444
I1
sV\u521b\u9020\u6027
p445
I12
sV\u5317\u9e93
p446
I1
sV\u6028\u8a00
p447
I1
sV\u4ee4\u4eba\u611f\u52a8
p448
I1
sV\u672c\u56fa
p449
I1
sV\u89c2\u70b9
p450
I27
sV\u7b2c\u4e09\u519b\u533b\u5927\u5b66
p451
I1
sV\u9ad8\u660e
p452
I1
sV\u8bed\u8a00
p453
I3
sV\u5341\u4e07
p454
I1
sV\u529f\u5e95
p455
I1
sV\u8054\u4ea7\u627f\u5305
p456
I1
sV\u73b0\u5b9e
p457
I20
sV\u5021\u8bae
p458
I3
sV\u5b66\u6821
p459
I5
sV\u53d1\u5c55\u4e2d\u56fd\u5bb6
p460
I8
sV\u9636\u6bb5
p461
I8
sV\u91cd\u70b9
p462
I3
sV\u674e\u4eac\u534e
p463
I1
sV\u4f5c\u5bb6
p464
I5
sV\u72b6\u6001
p465
I11
sV\u540d\u7740
p466
I2
sV\u6293\u597d
p467
I6
sV\u8d1f\u4f5c\u7528
p468
I1
sV\u7ba1\u6866
p469
I1
sV\u59dc\u4e3a
p470
I1
sV\u6b21\u5e8f
p471
I1
sV\u7b54\u6848
p472
I2
sV\u7406\u6027
p473
I15
sV\u5206\u5a29
p474
I2
sV\u516c\u5b59
p475
I1
sV\u91c7\u7528
p476
I1
sV\u8981\u8c61
p477
I5
sV\u4e00\u7a7a
p478
I1
sV\u8d85\u8d8a
p479
I2
sV\u63f4\u7406\u8bc1
p480
I2
sV\u53d1\u51fa
p481
I2
sV\u81ea\u8ff0
p482
I1
sV\u60f3\u6cd5
p483
I1
sV\u539f\u59cb
p484
I10
sV\u9c9c\u660e
p485
I4
sV\u897f\u5b89\u4e8b\u53d8
p486
I1
sV\u5341\u4e5d
p487
I1
sV\u4ee4\u4eba\u53f9\u670d
p488
I1
sV\u5168\u76d8
p489
I2
sV\u6e90\u6cc9
p490
I2
sV\u59d4\u6258
p491
I1
sV\u601d\u60f3
p492
I122
sV\u5168\u56fd\u653f\u534f\u793c\u5802
p493
I1
sV\u8c0b\u751f
p494
I2
sV\u5f15\u5411
p495
I2
sV\u611a\u8822
p496
I2
sV\u795d\u8d3a
p497
I1
sV\u9001\u5230
p498
I1
sV\u695a\u8f9e
p499
I1
sV\u4e00\u4ef6
p500
I1
sV\u529f\u7ee9
p501
I1
sV\u57fa\u7840\u8bfe
p502
I2
sV\u65b9\u5411
p503
I13
sV\u738b\u851a
p504
I1
sV\u89e3\u653e\u601d\u60f3
p505
I12
sV\u6539\u9769
p506
I22
sV\u662f\u4ece
p507
I1
sV\u5317\u4eac
p508
I14
sV\u7701\u60c5
p509
I1
sV\u6bb7\u5468
p510
I1
sV\u81ea\u4e3a
p511
I2
sV\u591a\u4f4d
p512
I1
sV\u80cc\u666f
p513
I1
sV\u5360\u672f
p514
I1
sV\u6770\u4f5c
p515
I2
sV\u62bd\u51fa
p516
I1
sV\u7528\u706b
p517
I1
sV\u4eab\u4e50
p518
I2
sV\u641c\u6c42
p519
I1
sV\u82f1\u6587
p520
I1
sV\u535c\u7b6e
p521
I1
sV\u4e0d\u53ca
p522
I1
sV\u751f\u7269\u5b66\u5bb6
p523
I1
sV\u4f17\u5999
p524
I1
sV\u79ef\u7d2f
p525
I3
sV\u7ec6\u81f4
p526
I2
sV\u5c42\u9762
p527
I2
sV\u9762\u8c8c
p528
I1
sV\u5468\u6613
p529
I20
sV\u5360\u6709
p530
I3
sV\u725b\u987f
p531
I2
sV\u5bbd\u6cdb
p532
I1
sV\u5206\u7ba1
p533
I1
sV\u540e\u679c
p534
I1
sV\u5357\u5c71
p535
I1
sV\u6267\u7740
p536
I2
sV\u7531\u8868\u53ca\u91cc
p537
I2
sV\u5168\u7701
p538
I5
sV\u8c03\u6574
p539
I5
sV\u673a\u5668
p540
I4
sV\u6253\u8d62
p541
I1
sV\u6291\u5236
p542
I1
sV\u7814\u7a76
p543
I90
sV\u4e16\u754c
p544
I45
sV\u4e00\u4f4d
p545
I3
sV\u7eaf\u771f
p546
I1
sV\u64b0\u7740
p547
I2
sV\u7814\u7a76\u9886\u57df
p548
I1
sV\u542f\u8499
p549
I1
sV\u6bcf\u5e74\u4e3e\u884c
p550
I1
sV\u516c\u5171
p551
I1
sV\u8ffd\u6839\u6eaf\u6e90
p552
I1
sV\u8d75\u5fb7\u6da6
p553
I1
sV\u7eb7\u4e89
p554
I5
sV\u751c\u5934
p555
I1
sV\u5be1\u5987
p556
I2
sV\u6843\u674e\u6ee1\u5929\u4e0b
p557
I1
sV\u897f\u4e2d
p558
I2
sV\u4ea4\u5f80
p559
I1
sV\u521d\u6b65
p560
I2
sV\u5199\u51fa
p561
I1
sV\u4e1c\u6e21
p562
I1
sV\u51e4\u6bdb\u9e9f\u89d2
p563
I1
sV\u767d\u6da6\u748b
p564
I2
sV\u5e38\u59d4
p565
I1
sV\u8ba8\u8bba\u533a
p566
I4
sV\u5728\u5efa
p567
I2
sV\u6bdb\u6cfd\u4e1c\u9009\u96c6
p568
I3
sV\u652f\u914d
p569
I6
sV\u4ee3\u8868
p570
I24
sV\u671f\u671b
p571
I1
sV\u521b\u65b0\u6027
p572
I3
sV\u54e5\u767d\u5c3c
p573
I1
sV\u5f3a\u5ea6
p574
I1
sV\u4f53\u73b0
p575
I8
sV\u7e41\u7410
p576
I5
sV\u7ade\u8d5b
p577
I2
sV\u4e0a\u5c06
p578
I2
sV\u706b\u661f
p579
I2
sV\u63a2\u5bfb
p580
I1
sV\u89c2\u7167
p581
I1
sV\u7814\u8ba8\u4f1a
p582
I9
sV\u591a\u4e07
p583
I1
sV\u8bf4\u662f
p584
I1
sV\u4e92\u52a8
p585
I1
sV\u56e2\u652f\u90e8
p586
I1
sV\u4e2d\u8bf4
p587
I7
sV\u89c2\u5176
p588
I1
sV\u4e0b\u534a\u53f6
p589
I1
sV\u5229\u4e8e
p590
I1
sV\u5927\u6709
p591
I1
sV\u5b98\u5175
p592
I3
sV\u8bcd\u53e5
p593
I1
sV\u758f\u52d2\u53bf
p594
I1
sV\u5371\u5bb3\u6027
p595
I2
sV\u90e8\u957f
p596
I1
sV\u6df1\u6e5b
p597
I1
sV\u865a\u5e7b
p598
I1
sV\u76ee\u7684
p599
I12
sV\u5f15\u7533
p600
I1
sV\u5f15\u7528
p601
I1
sV\u7167\u4eae
p602
I2
sV\u4f18\u8d8a\u611f
p603
I1
sV\u8bc4\u6790
p604
I1
sV\u5f97\u4ee5
p605
I2
sV\u5e74\u4ee3\u521d
p606
I1
sV\u4f18\u52a3
p607
I1
sV\u91cd\u91cf
p608
I1
sV\u5f52\u7ed3
p609
I2
sV\u6c34\u5e73
p610
I5
sV\u4e0b\u518c
p611
I1
sV\u6765\u4e4b\u4e0d\u6613
p612
I1
sV\u4f18\u52bf
p613
I7
sV\u83ab\u6587\u9a85
p614
I2
sV\u52a8\u6001
p615
I1
sV\u63a8\u5d07
p616
I1
sV\u5f20\u601d\u5fb7
p617
I1
sV\u6b63\u786e
p618
I49
sV\u52b3\u52a8\u529b\u8d44\u6e90
p619
I1
sV\u4e3b\u4efb
p620
I6
sV\u4e60\u7528
p621
I2
sV\u91cd\u5229
p622
I2
sV\u523b\u82e6
p623
I3
sV\u6c11\u4e3b\u96c6\u4e2d\u5236
p624
I1
sV\u76f4\u89c9
p625
I3
sV\u53cc\u767e
p626
I10
sV\u5370\u884c
p627
I1
sV\u516b\u80a1
p628
I1
sV\u6587\u5316\u5efa\u8bbe
p629
I2
sV\u54f2\u5b66\u5bb6
p630
I27
sV\u610f\u4e49
p631
I39
sV\u5229\u8d1e
p632
I1
sV\u4f4f\u5904
p633
I3
sV\u65e2\u6709
p634
I1
sV\u70df\u56f1
p635
I2
sV\u656c\u4f69
p636
I1
sV\u8d5e\u52a9
p637
I1
sV\u5939\u751f\u996d
p638
I1
sV\u897f\u5171\u4f53
p639
I4
sV\u75db\u82e6
p640
I3
sV\u540e\u6765\u5c45\u4e0a
p641
I2
sV\u6587\u7ae0
p642
I10
sV\u4e66\u8d8a
p643
I1
sV\u56fd\u6c11\u7ecf\u6d4e
p644
I3
sV\u7ed3\u6784
p645
I5
sV\u521d\u7ea7\u9636\u6bb5
p646
I2
sV\u65e0\u5fe7
p647
I2
sV\u7f16\u8d8a
p648
I1
sV\u53d1\u4e86
p649
I1
sV\u7535\u8111
p650
I2
sV\u7ec6\u8282
p651
I1
sV\u56fa\u5e38
p652
I1
sV\u7f8e\u597d
p653
I1
sV\u5f00\u5b66
p654
I4
sV\u5a01\u529b
p655
I1
sV\u4fe1\u533a
p656
I8
sV\u4ea7\u7269
p657
I3
sV\u6cbb\u672c
p658
I1
sV\u5b89\u9038
p659
I2
sV\u6db5\u5bb9
p660
I2
sV\u4e5f\u5c31\u662f
p661
I5
sV\u6210\u5458
p662
I1
sV\u65f6\u4e0b
p663
I1
sV\u6a21\u5b50
p664
I1
sV\u98ce\u5c18\u4ec6\u4ec6
p665
I1
sV\u5927\u4f17\u5316
p666
I4
sV\u89c2\u5ff5\u5f62\u6001
p667
I1
sV\u5931\u8bef
p668
I4
sV\u4e1a\u4f59\u515a\u6821
p669
I2
sV\u5e72\u51c0
p670
I1
sV\u6211\u7684\u670b\u53cb
p671
I2
sV\u53d1\u73b0
p672
I1
sV\u8001\u8043
p673
I1
sV\u65f6\u4ee3
p674
I21
sV\u8717\u725b
p675
I2
sV\u63a8\u5e7f
p676
I1
sV\u5148\u5f53
p677
I1
sV\u8d85\u8fc7
p678
I2
sV\u5b64\u72ec
p679
I4
sV\u8fd8\u4f1a
p680
I1
sV\u6807\u51c6
p681
I12
sV\u4eba\u4e0e\u81ea\u7136
p682
I4
sV\u4f55\u5728
p683
I2
sV\u515a\u7684\u5efa\u8bbe
p684
I4
sV\u771f\u7406
p685
I10
sV\u7535\u89c6\u5267
p686
I1
sV\u7cbe\u534e
p687
I5
sV\u65b9\u5174\u672a\u827e
p688
I1
sV\u62a5\u540d
p689
I1
sV\u5317\u4eac\u5927\u5b66\u54f2\u5b66\u7cfb
p690
I1
sV\u4f34\u4e4b\u4ee5
p691
I2
sV\u90e8\u961f
p692
I8
sV\u552f\u7269\u53f2\u89c2
p693
I1
sV\u6df7\u6c8c
p694
I1
sV\u7acb\u610f
p695
I1
sV\u515a\u8bfe
p696
I1
sV\u611f\u5230
p697
I6
sV\u53d7\u5176
p698
I1
sV\u4f59\u4eba
p699
I1
sV\u7531\u6b64\u53ca\u5f7c
p700
I1
sV\u6d88\u6781
p701
I1
sV\u4e3b\u4e49
p702
I5
sV\u5f02\u5e38
p703
I1
sV\u65e0\u5fe7\u65e0\u8651
p704
I2
sV\u793e\u4f1a\u5236\u5ea6
p705
I1
sV\u6218\u4e89
p706
I11
sV\u7a0b\u5ea6
p707
I5
sV\u601d\u60f3\u653f\u6cbb
p708
I7
sV\u53c2\u8003
p709
I2
sV\u76f8\u5bf9\u8bba
p710
I1
sV\u57f9\u517b
p711
I6
sV\u7ebd\u5e26
p712
I2
sV\u6eda\u6eda
p713
I1
sV\u6bdb\u9009
p714
I1
sV\u8be0\u91ca\u5b66
p715
I2
sV\u5730\u4f4d
p716
I16
sV\u6458\u81ea
p717
I1
sV\u4f59\u4e2a
p718
I1
sV\u7ed3\u675f
p719
I2
sV\u547d\u8fd0
p720
I8
sV\u6846\u67b6
p721
I4
sV\u62a5\u544a
p722
I2
sV\u6982\u62ec
p723
I4
sV\u667a\u8005
p724
I2
sV\u4e16\u754c\u5987\u5973\u5927\u4f1a
p725
I1
sV\u89c6\u89d2
p726
I4
sV\u6c38\u6052
p727
I4
sV\u8fdc\u666f
p728
I6
sV\u4fa7\u91cd
p729
I2
sV\u4e2a\u7701
p730
I1
sV\u5199\u4f5c
p731
I1
sV\u7ecf\u8bf4
p732
I1
sV\u8d8a\u591a
p733
I1
sV\u5bb6\u5ead
p734
I5
sV\u4e92\u4e3a
p735
I2
sV\u591a\u6837\u6027
p736
I1
sV\u5269\u4e0b
p737
I1
sV\u6bcf\u4eba
p738
I1
sV\u8fc5\u731b
p739
I1
sV\u5b81\u9759
p740
I1
sV\u4e4b\u8239
p741
I1
sV\u5386\u7a0b
p742
I1
sV\u4e13\u9898\u8ba8\u8bba
p743
I1
sV\u4e2a\u4eba\u5229\u76ca
p744
I6
sV\u4e13\u6559
p745
I1
sV\u8dd1\u5b98
p746
I1
sV\u8bf4\u51fa
p747
I1
sV\u503e\u5411
p748
I11
sV\u8d5e\u6210
p749
I1
sV\u6c5d\u4fe1
p750
I1
sV\u5916\u5ef6
p751
I1
sV\u7ba1\u8f96
p752
I2
sV\u5218\u671d\u660e
p753
I1
sV\u4e2d\u897f
p754
I43
sV\u4e4b\u821f
p755
I2
sV\u7f3a\u5c11
p756
I1
sV\u5366\u723b
p757
I5
sV\u5b66\u8bf4
p758
I2
sV\u591a\u519b
p759
I1
sV\u611f\u53d7
p760
I4
sV\u53f6\u8fde\u677e
p761
I1
sV\u5931\u671b
p762
I1
sV\u6210\u957f
p763
I2
sV\u57ce\u90a6
p764
I1
sV\u81c3\u80bf
p765
I1
sV\u529b\u6c42
p766
I2
sV\u66b4\u884c
p767
I2
sV\u751f\u52a8\u6d3b\u6cfc
p768
I1
sV\u91cd\u5370
p769
I1
sV\u5178\u793c
p770
I1
sV\u4e1a\u529b
p771
I2
sV\u89e3\u51b3
p772
I56
sV\u73b0\u4ee3\u79d1\u6280
p773
I2
sV\u8981\u7d20
p774
I1
sV\u5efa\u56fd
p775
I2
sV\u627f\u53d7
p776
I1
sV\u5426\u5b9a
p777
I6
sV\u7701\u653f\u5e9c
p778
I1
sV\u5373\u65f6
p779
I1
sV\u6b63\u5904
p780
I2
sV\u5316\u80b2
p781
I1
sV\u53c8\u662f
p782
I3
sV\u5404\u9879
p783
I1
sV\u8ddf\u4e0d\u4e0a
p784
I1
sV\u6c49\u4ee3
p785
I2
sV\u5929\u8d44
p786
I1
sV\u5e9e\u5927
p787
I1
sV\u6587\u5b57
p788
I3
sV\u4e0a\u5e1d
p789
I1
sV\u4e16\u754c\u89c2
p790
I20
sV\u667a\u6167
p791
I11
sV\u4e91\u5357\u7701
p792
I1
sV\u6597\u4e89
p793
I10
sV\u9762\u4e34
p794
I3
sV\u53ef\u9884\u6d4b\u6027
p795
I1
sV\u7ecf\u8d39
p796
I1
sV\u79d1\u5b66\u62a5
p797
I1
sV\u76f8\u5173
p798
I1
sV\u57fa\u7840\u7406\u8bba
p799
I5
sV\u4e3b\u6f6e
p800
I2
sV\u8d35\u9633\u5e02
p801
I1
sV\u4e3b\u4f53
p802
I18
sV\u641e\u597d
p803
I4
sV\u6709\u6761\u4e0d\u7d0a
p804
I1
sV\u5730\u4e3a
p805
I5
sV\u540c\u7518\u5171\u82e6
p806
I1
sV\u8c03\u67e5
p807
I6
sV\u51b3\u5b9a\u8bba
p808
I2
sV\u5c01\u5efa\u8ff7\u4fe1
p809
I2
sV\u5220\u7e41\u5c31\u7b80
p810
I1
sV\u552f\u5229\u662f\u56fe
p811
I1
sV\u897f\u65b9\u4eba
p812
I3
sV\u656c\u4ef0
p813
I1
sV\u5de5\u4e1a\u7ecf\u6d4e
p814
I2
sV\u5f20\u95fb\u5929
p815
I1
sV\u6253\u57fa\u7840
p816
I1
sV\u5c5e\u6027
p817
I2
sV\u957f\u671f
p818
I3
sV\u53ef\u4ee5\u4f7f
p819
I2
sV\u91cd\u53e0
p820
I2
sV\u4e24\u7ea7
p821
I1
sV\u9f13\u52b1
p822
I3
sV\u7ed3\u6676
p823
I2
sV\u65cb\u8f6c
p824
I6
sV\u66f4\u597d
p825
I9
sV\u4e0d\u5230
p826
I6
sV\u4f5c\u98ce
p827
I5
sV\u65d7\u5e1c
p828
I1
sV\u56fd\u5bb6\u673a\u5173
p829
I1
sV\u6765\u5230
p830
I3
sV\u4e00\u9cde\u534a\u722a
p831
I2
sV\u8bb0\u5f97
p832
I1
sV\u7528\u529b
p833
I1
sV\u73cd\u89c6
p834
I1
sV\u7b80\u7565
p835
I1
sV\u8ba4\u6e05
p836
I2
sV\u6301\u4e2d
p837
I2
sV\u63ba\u6742
p838
I2
sV\u5b8f\u4f1f
p839
I6
sV\u6628\u5929
p840
I3
sV\u6380\u8d77
p841
I1
sV\u79e9\u5e8f
p842
I4
sV\u627e\u4eba\u523b
p843
I1
sV\u8463\u5f66
p844
I1
sV\u8d1f\u9762
p845
I1
sV\u4e09\u5927
p846
I8
sV\u63a5\u73ed\u4eba
p847
I1
sV\u5b50\u5b59
p848
I5
sV\u8fd9\u4f4d
p849
I1
sV\u5f88\u96be\u8bf4
p850
I2
sV\u4f4f\u5728
p851
I1
sV\u5fc5\u8981\u6027
p852
I1
sV\u6761\u76ee
p853
I1
sV\u4e0a\u518c
p854
I1
sV\u5185\u5411\u578b
p855
I1
sV\u5317\u4eac\u7406\u5de5\u5927\u5b66
p856
I2
sV\u8bba\u70b9
p857
I1
sV\u516b\u4e94
p858
I1
sV\u5ec9\u6d01\u5949\u516c
p859
I2
sV\u7f18\u4f55
p860
I1
sV\u65e5\u524d
p861
I2
sV\u5168\u56fd\u653f\u534f
p862
I1
sV\u60c5\u592b
p863
I1
sV\u5b8c\u7f8e
p864
I2
sV\u59a5\u5584
p865
I1
sV\u552f\u6211\u8bba
p866
I2
sV\u6709\u8fd1
p867
I1
sV\u529f\u5229
p868
I3
sV\u5d14\u677c\u8bf4
p869
I1
sV\u6bd4\u9644
p870
I2
sV\u9610\u660e
p871
I1
sV\u4e1a\u5df2
p872
I1
sV\u52a1\u5b9e
p873
I2
sV\u96be\u5fd8
p874
I1
sV\u8d22\u4ea7
p875
I3
sV\u670d\u52a1
p876
I9
sV\u754c\u9650
p877
I2
sV\u7f6e\u4e8e
p878
I1
sV\u4e00\u624b
p879
I3
sV\u4e0d\u53ef\u9760\u6027
p880
I1
sV\u903b\u8f91
p881
I6
sV\u6781\u5c0f
p882
I3
sV\u8f6c\u5316
p883
I3
sV\u5170\u8003
p884
I1
sV\u674e\u4e3a
p885
I1
sV\u660e\u786e\u5316
p886
I1
sV\u8270\u5de8
p887
I3
sV\u519b\u804c
p888
I3
sV\u4e03\u4e2a
p889
I1
sV\u5bcc\u8005
p890
I3
sV\u4e0d\u5229\u4e8e
p891
I1
sV\u4e2d\u662f
p892
I1
sV\u94bb\u7814
p893
I1
sV\u65e5\u672c\u7559\u5b66
p894
I1
sV\u58ee\u5927
p895
I1
sV\u5929\u624d
p896
I2
sV\u56db\u7bc7
p897
I1
sV\u4e00\u6279
p898
I1
sV\u8d85\u8131
p899
I2
sV\u53f8\u4ee4\u5458
p900
I2
sV\u6807\u5fd7
p901
I2
sV\u8868\u8fbe
p902
I4
sV\u6d6a\u8d39
p903
I2
sV\u60f3\u5b66\u70b9
p904
I1
sV\u9a6c\u6d2a
p905
I1
sV\u6df1\u631a
p906
I2
sV\u73ed\u4e0a
p907
I1
sV\u4e2d\u533b\u836f
p908
I2
sV\u6218\u80dc
p909
I4
sV\u51b2\u51fb
p910
I1
sV\u6b63\u76f4
p911
I1
sV\u8d3e\u5e86\u6797
p912
I1
sV\u504f\u4e8e
p913
I1
sV\u4eba\u6709
p914
I1
sV\u6cb3\u5357\u7701
p915
I1
sV\u8fd1\u73b0\u4ee3
p916
I2
sV\u529f\u52b3
p917
I2
sV\u5f55\u50cf
p918
I2
sV\u8bbe\u6709
p919
I2
sV\u7c97\u66b4
p920
I2
sV\u897f\u6d0b
p921
I1
sV\u8bd1\u6587
p922
I4
sV\u5199\u5c31
p923
I1
sV\u5bf9\u7acb\u7edf\u4e00
p924
I2
sV\u9014\u5f84
p925
I4
sV\u817e\u51b2
p926
I1
sV\u4e00\u90e8\u5206
p927
I12
sV\u9646\u9b41\u5b8f
p928
I3
sV\u529e\u5b9e\u4e8b
p929
I1
sV\u4e00\u8eab\u6b63\u6c14
p930
I1
sV\u4fdd\u969c
p931
I3
sV\u8868\u8ff0
p932
I2
sV\u66f2\u6298
p933
I2
sV\u65e0\u5173
p934
I1
sV\u4e4b\u6df1
p935
I1
sV\u5b9e\u4f8b
p936
I1
sV\u529f\u52cb
p937
I1
sV\u6295\u8eab
p938
I1
sV\u5f53\u4ee3
p939
I15
sV\u51a5\u6d77
p940
I2
sV\u6709\u5229\u4e8e
p941
I3
sV\u54f2\u5b66\u754c
p942
I7
sV\u638c\u6743
p943
I1
sV\u5bfc\u5411
p944
I2
sV\u5e7f\u5dde\u5e02
p945
I1
sV\u63d0\u4f9b
p946
I9
sV\u8d77\u8349
p947
I1
sV\u7269\u5316
p948
I1
sV\u5f53\u4eca
p949
I7
sV\u6548\u7528
p950
I1
sV\u9a6c\u514b\u601d
p951
I5
sV\u573a\u6bdb
p952
I1
sV\u81ea\u7531\u5316
p953
I1
sV\u6210\u7acb
p954
I6
sV\u8270\u5de8\u6027
p955
I1
sV\u529b\u6212
p956
I4
sV\u51b3\u4e0d\u80fd
p957
I3
sV\u5343\u4f59\u4ef6
p958
I1
sV\u7ef5\u529b
p959
I2
sV\u5243\u5200
p960
I2
sV\u9ad8\u7ea7
p961
I10
sV\u6700\u5c11
p962
I1
sV\u8f9e\u6240
p963
I2
sV\u539f\u7406
p964
I5
sV\u601d\u60f3\u6559\u80b2
p965
I2
sV\u4e2d\u6765
p966
I2
sV\u521b\u65b0
p967
I11
sV\u7109\u80fd
p968
I1
sV\u603b\u5de5\u4f1a
p969
I1
sV\u540d\u6559\u6388
p970
I1
sV\u79c1\u5229
p971
I1
sV\u767e\u82b1\u9f50\u653e
p972
I3
sV\u5fe0\u4e8e
p973
I1
sV\u81ea\u6211
p974
I8
sV\u514b\u670d
p975
I5
sV\u4e4b\u8c13
p976
I3
sV\u4e2d\u56fd\u5171\u4ea7\u515a
p977
I3
sV\u4fee\u517b
p978
I3
sV\u6c5f\u82cf\u7701
p979
I1
sV\u6c38\u6052\u4e0d\u53d8
p980
I1
sV\u5ba2\u4f53
p981
I3
sV\u5b9e\u4e60
p982
I2
sV\u65e5\u65b0\u6708\u5f02
p983
I1
sV\u7267\u6b4c
p984
I1
sV\u6e90\u4e8e
p985
I2
sV\u95fb\u540d
p986
I1
sV\u534f\u4f1a
p987
I1
sV\u9700\u6c42
p988
I4
sV\u6559\u6388
p989
I6
sV\u4e4b\u8c61
p990
I2
sV\u8fd9\u4e0d
p991
I1
sV\u867d\u5409
p992
I1
sV\u8fd9\u4e00
p993
I24
sV\u9a6c\u5217\u4e3b\u4e49
p994
I10
sV\u4e2d\u6709
p995
I2
sV\u5934\u53d1
p996
I1
sV\u4e0b\u529f\u592b
p997
I2
sV\u9075\u4e49
p998
I1
sV\u884c\u4e4b\u6709\u6548
p999
I1
sV\u975e\u6bc1
p1000
I1
sV\u4e2d\u592e\u653f\u6cbb\u5c40\u5e38\u59d4
p1001
I2
sV\u632b\u6298
p1002
I2
sV\u8721\u677f
p1003
I1
sV\u66f4\u96be
p1004
I1
sV\u7269\u529b
p1005
I1
sV\u53d1\u5c55
p1006
I159
sV\u5f53\u4f5c
p1007
I3
sV\u9ec4\u6960\u68ee
p1008
I1
sV\u5982\u9c81
p1009
I1
sV\u8d35\u9633
p1010
I2
sV\u843d\u811a
p1011
I1
sV\u53d1\u6765
p1012
I1
sV\u6cbb\u6807
p1013
I1
sV\u6c38\u8fdc
p1014
I8
sV\u7bc7\u7ae0
p1015
I1
sV\u6324\u51fa
p1016
I1
sV\u4e8b\u5b9e
p1017
I5
sV\u4f60\u6b7b\u6211\u6d3b
p1018
I2
sV\u7231\u56e0\u65af\u5766
p1019
I6
sV\u6c49\u5b66\u5bb6
p1020
I1
sV\u5fc3\u810f
p1021
I4
sV\u793e\u4f1a\u7ecf\u6d4e
p1022
I4
sV\u90d1\u4e07\u8015
p1023
I3
sV\u5f3a\u52a0
p1024
I1
sV\u51e0\u4e2a
p1025
I3
sV\u4e3a\u526f
p1026
I1
sV\u4e2d\u4e16\u7eaa
p1027
I1
sV\u4e3b\u8981\u77db\u76fe
p1028
I2
sV\u7a0e\u6536
p1029
I1
sV\u9884\u8d2d
p1030
I1
sV\u7b49\u6821
p1031
I1
sV\u84dd\u56fe
p1032
I1
sV\u653f\u6cbb\u8bfe
p1033
I1
sV\u5173\u952e
p1034
I4
sV\u5e94\u6709
p1035
I1
sV\u8d5e\u626c
p1036
I2
sV\u541b\u5b50
p1037
I3
sV\u8d2b\u8005
p1038
I3
sV\u65e0\u53ef\u5948\u4f55
p1039
I1
sV\u8df3\u4ed4
p1040
I1
sV\u751f\u514b
p1041
I1
sV\u674e\u8fbe
p1042
I1
sV\u5149\u534e
p1043
I8
sV\u53ef\u53d6
p1044
I1
sV\u8fd0\u52a8
p1045
I16
sV\u8d85\u73b0\u5b9e\u4e3b\u4e49
p1046
I1
sV\u5e84\u5b50
p1047
I1
sV\u672c\u5b66
p1048
I1
sV\u5178\u578b
p1049
I1
sV\u7cbe\u795e
p1050
I75
sV\u800c\u8d77
p1051
I2
sV\u5b9e\u8df5\u6027
p1052
I2
sV\u6d59\u6c5f\u7701\u59d4
p1053
I1
sV\u575a\u6301\u4e0d\u61c8
p1054
I2
sV\u504f\u6fc0
p1055
I1
sV\u5f3a\u6653\u521d
p1056
I1
sV\u91cd\u70b9\u5de5\u7a0b
p1057
I1
sV\u7167\u6284
p1058
I2
sV\u767e\u540d
p1059
I2
sV\u7701\u59d4\u515a\u6821
p1060
I1
sV\u56db\u4e2a
p1061
I4
sV\u601d\u8def
p1062
I5
sV\u7b49\u6167
p1063
I2
sV\u7406\u8bba\u8bfe
p1064
I1
sV\u7ed3\u8bba
p1065
I5
sV\u8d1f\u8d23\u4eba
p1066
I1
sV\u89e3\u653e\u519b\u603b\u540e\u52e4\u90e8
p1067
I1
sV\u6210\u5e73
p1068
I2
sV\u4e00\u6574\u5957
p1069
I1
sV\u79d1\u5b66
p1070
I85
sV\u6279\u5224
p1071
I6
sV\u547d\u9898
p1072
I2
sV\u7acb\u8db3
p1073
I3
sV\u6587\u96c6
p1074
I2
sV\u900f\u5f7b
p1075
I2
sV\u6bcf\u5c01
p1076
I1
sV\u4e00\u6587
p1077
I1
sV\u8bd1\u672c
p1078
I1
sV\u884c\u5c38\u8d70\u8089
p1079
I2
sV\u4e2d\u56fd\u793e\u4f1a\u79d1\u5b66\u9662\u54f2\u5b66\u7814\u7a76\u6240
p1080
I1
sV\u98de\u821e
p1081
I1
sV\u7075\u6d3b
p1082
I1
sV\u4eba\u6587
p1083
I2
sV\u57f9\u8bad\u57fa\u5730
p1084
I1
sV\u79ef\u723b
p1085
I1
sV\u4ee4\u4eba\u62c5\u5fe7
p1086
I1
sV\u751f\u52a8
p1087
I3
sV\u6784\u67b6
p1088
I2
sV\u51e1\u515a
p1089
I1
sV\u6027\u8d8a
p1090
I1
sV\u4f5c\u7528
p1091
I7
sV\u8c61\u5f81
p1092
I1
sV\u9f9f\u535c
p1093
I2
sV\u91cd\u70b9\u5b66\u79d1
p1094
I1
sV\u81ea\u7ec4\u7ec7\u7406\u8bba
p1095
I1
sV\u5d07\u5c1a
p1096
I1
sV\u5218\u601d\u626c
p1097
I1
sV\u63a8\u52a8
p1098
I9
sV\u8f85\u5bfc\u6750\u6599
p1099
I1
sV\u8d8a\u6bd4\u8d8a
p1100
I1
sV\u6307\u660e
p1101
I2
sV\u7279\u8272
p1102
I66
sV\u6559\u5e08
p1103
I4
sV\u8bb2\u5ea7
p1104
I1
sV\u4e00\u5468
p1105
I1
sV\u5317\u4eac\u5e08\u8303\u5927\u5b66
p1106
I1
sV\u6559\u80b2\u65b9\u6cd5
p1107
I1
sV\u6743\u8861
p1108
I1
sV\u7cbe\u9ad3
p1109
I2
sV\u52a8\u6447
p1110
I2
sV\u5b9e\u8d28
p1111
I4
sV\u878d\u5316
p1112
I2
sV\u4fa7\u8bb0
p1113
I1
sV\u7eb3\u7532
p1114
I2
sV\u663e\u7740
p1115
I3
sV\u5b9e\u9645\u4e0a
p1116
I3
sV\u6765\u5f97
p1117
I1
sV\u6559\u80b2
p1118
I36
sV\u8fc7\u65e9
p1119
I1
sV\u6d77\u68ee\u5821
p1120
I1
sV\u59d4\u526f\u4e66\u8bb0
p1121
I1
sV\u9886\u8896
p1122
I1
sV\u4f59\u6240
p1123
I2
sV\u6709\u4eba
p1124
I2
sV\u6760\u6760
p1125
I1
sV\u751f\u4ea7\u65b9\u5f0f
p1126
I6
sV\u6df1\u6c89
p1127
I1
sV\u4fe1\u5ff5
p1128
I4
sV\u624b\u6bb5
p1129
I7
sV\u7384\u4e4b\u53c8\u7384
p1130
I1
sV\u5f3a\u6743
p1131
I3
sV\u6240\u5c5e
p1132
I1
sV\u8ff7\u4eba
p1133
I1
sV\u543e\u56fd
p1134
I2
sV\u65e2\u8981
p1135
I1
sV\u4fe1\u5fc3
p1136
I3
sV\u9ed1\u6697
p1137
I1
sV\u5efa\u7acb
p1138
I31
sV\u6587\u767d
p1139
I1
sV\u519b\u59d4
p1140
I1
sV\u7f8e\u5584
p1141
I1
sV\u5b9e\u8df5
p1142
I100
sV\u8ba1\u5212
p1143
I4
sV\u793e\u4f1a\u79d1\u5b66\u9662
p1144
I1
sV\u78e8\u5200
p1145
I2
sV\u5f20\u7956\u749c
p1146
I1
sV\u67d0\u79cd
p1147
I4
sV\u4ee5\u65ad
p1148
I1
sV\u89c9\u5bdf
p1149
I2
sV\u89e3\u91ca
p1150
I9
sV\u624e\u624e\u5b9e\u5b9e
p1151
I1
sV\u6df1\u601d
p1152
I2
sV\u738b\u8302\u6da6
p1153
I1
sV\u7ef4\u5c14\u7279
p1154
I1
sV\u5bf9\u7167
p1155
I7
sV\u552f\u4e00
p1156
I3
sV\u4e3a\u4e4b\u4e00\u53d8
p1157
I1
sV\u4e0a\u5348
p1158
I3
sV\u4e0a\u534a
p1159
I1
sV\u5f71\u89c6
p1160
I2
sV\u76ca\u5904
p1161
I2
sV\u4f18\u8d8a
p1162
I1
sV\u5f55\u97f3\u673a
p1163
I1
sV\u91cc\u7a0b\u7891\u5f0f
p1164
I1
sV\u8fa9\u8bc1
p1165
I21
sV\u6768\u5c1a\u6606
p1166
I1
sV\u7535\u89c6\u673a
p1167
I1
sV\u6761\u7406
p1168
I1
sV\u6709\u5931
p1169
I1
sV\u8574\u6db5
p1170
I5
sV\u897f\u4f53
p1171
I2
sV\u4e30\u529f\u4f1f\u7ee9
p1172
I1
sV\u5355\u4f4d
p1173
I10
sV\u53cd\u590d
p1174
I1
sV\u8fdb\u6821
p1175
I1
sV\u732a\u680f
p1176
I2
sV\u4ea4\u901a
p1177
I1
sV\u5373\u4ee5
p1178
I1
sV\u751f\u7269
p1179
I1
sV\u81ea\u7136\u79d1\u5b66
p1180
I3
sV\u4f53\u7cfb\u7ed3\u6784
p1181
I1
sV\u5f15\u5bfc
p1182
I8
sV\u6709\u52a9\u4e8e
p1183
I5
sV\u5934\u7b49
p1184
I2
sV\u4e4b\u4e2d
p1185
I2
sV\u6548\u76ca
p1186
I5
sV\u718a\u590d
p1187
I1
sV\u7262\u8bb0
p1188
I3
sV\u7ffb\u4e24\u756a
p1189
I2
sV\u515a\u652f\u90e8
p1190
I1
sV\u5207\u524a
p1191
I2
sV\u8d44\u91d1
p1192
I2
sV\u6cd5\u5219
p1193
I6
sV\u5218\u5173\u6743
p1194
I1
sV\u4e4b\u4e0b
p1195
I1
sV\u8001\u5b9e\u4eba
p1196
I1
sV\u5fb7\u884c
p1197
I2
sV\u6210\u7ee9
p1198
I2
sV\u826f\u83a0
p1199
I1
sV\u5c1a\u80fd
p1200
I2
sV\u5b9e\u4e60\u751f
p1201
I1
sV\u5171\u540c\u53d1\u5c55
p1202
I3
sV\u7406\u8bba\u7814\u7a76
p1203
I2
sV\u7cbe\u7b80
p1204
I2
sV\u6295\u8d44
p1205
I2
sV\u653e\u5f03
p1206
I1
sV\u6d4e\u5357
p1207
I2
sV\u8ba8\u8bba
p1208
I11
sV\u5236\u8861
p1209
I1
sV\u8fdc\u6bd4
p1210
I1
sV\u626c\u5f03
p1211
I1
sV\u89e3\u653e\u540e
p1212
I1
sV\u5916\u754c
p1213
I1
sV\u8270\u96be\u56f0\u82e6
p1214
I1
sV\u89c4\u8303
p1215
I1
sV\u4f20\u4e2d
p1216
I1
sV\u8fd8\u4f5c
p1217
I1
sV\u53ef\u715e
p1218
I1
sV\u751f\u4ea7\u8fc7\u7a0b
p1219
I2
sV\u5415\u9aa5
p1220
I1
sV\u5916\u529b
p1221
I1
sV\u5e02\u573a\u7ecf\u6d4e
p1222
I18
sV\u5947\u5076
p1223
I1
sV\u8d8a\u957f
p1224
I1
sV\u6388\u8bfe
p1225
I2
sV\u6210\u5957
p1226
I1
sV\u6c49\u82f1
p1227
I4
sV\u8003\u5377
p1228
I1
sV\u4e09\u4e94\u6210\u7fa4
p1229
I1
sV\u723b\u8f9e
p1230
I2
sV\u4e0d\u5e94
p1231
I1
sV\u4f20\u4e16
p1232
I1
sV\u7a81\u7834
p1233
I2
sV\u7a7a\u519b
p1234
I5
sV\u7b97\u547d
p1235
I12
sV\u601d\u6f6e
p1236
I5
sV\u4e3b\u52a8
p1237
I1
sV\u65b9\u6cd5\u8bba
p1238
I13
sV\u5065\u5168
p1239
I4
sV\u96f7\u52a0
p1240
I1
sV\u56e0\u672a
p1241
I1
sV\u5f62\u4e4b\u4e8e
p1242
I2
sV\u6f84\u6e05
p1243
I1
sV\u73b0\u4ee3\u5316
p1244
I61
sV\u5ea6\u5047
p1245
I1
sV\u5f20\u541b\u52a2
p1246
I2
sV\u5851\u9020
p1247
I1
sV\u5f02\u5316
p1248
I8
sV\u660e\u5feb
p1249
I1
sV\u52a1\u5b9e\u6c42\u771f
p1250
I1
sV\u5b66\u672f
p1251
I18
sV\u63d0\u6cd5
p1252
I2
sV\u4e2d\u65ec
p1253
I1
sV\u9759\u6b62
p1254
I4
sV\u5df2\u4ee5
p1255
I2
sV\u6293\u4f4f
p1256
I5
sV\u5355\u884c\u672c
p1257
I1
sV\u5f53\u4ee3\u4eba
p1258
I2
sV\u672c\u793e
p1259
I1
sV\u4f26\u7406\u5b66
p1260
I1
sV\u632f\u5174
p1261
I6
sV\u9996\u90fd
p1262
I3
sV\u6587\u9769
p1263
I1
sV\u6bd4\u4f8b
p1264
I1
sV\u4e2d\u6587
p1265
I2
sV\u6e05\u8c08
p1266
I1
sV\u53d8\u52a8\u4e0d\u5c45
p1267
I1
sV\u627e\u5230
p1268
I4
sV\u6700\u7ec8
p1269
I1
sV\u6210\u529f\u8005
p1270
I2
sV\u8861\u6c34
p1271
I1
sV\u4f5c\u54c1
p1272
I10
sV\u53bf\u7ea7
p1273
I1
sV\u4e3a\u65f6
p1274
I3
sV\u5f52\u548e
p1275
I2
sV\u7cbe\u5b66
p1276
I1
sV\u5171\u9752\u56e2\u5317\u4eac\u5e02\u59d4
p1277
I1
sV\u8fce\u5408
p1278
I1
sV\u613f\u671b
p1279
I7
sV\u4e3b\u89c2\u4e3b\u4e49
p1280
I1
sV\u8bef\u89e3
p1281
I2
sV\u9887\u4e3a
p1282
I1
sV\u4e3b\u89c2\u80fd\u52a8\u6027
p1283
I1
sV\u73ed\u957f
p1284
I1
sV\u7814\u7a76\u6210\u679c
p1285
I3
sV\u5b9a\u671f
p1286
I1
sV\u4e2d\u65b9
p1287
I1
sV\u6311\u5927\u6881
p1288
I1
sV\u539f\u56e0
p1289
I4
sV\u53bf\u59d4
p1290
I3
sV\u8bba\u6790
p1291
I1
sV\u653b\u51fb
p1292
I1
sV\u65b0\u4e2d\u56fd
p1293
I1
sV\u515a\u59d4\u4e66\u8bb0
p1294
I1
sV\u4e07\u53f0
p1295
I2
sV\u5b5f\u5b50
p1296
I1
sV\u4e16\u7eaa\u672b
p1297
I1
sV\u90a3\u573a
p1298
I1
sV\u4e50\u7ae0
p1299
I2
sV\u672c\u5e95
p1300
I2
sV\u56de\u5bb6
p1301
I2
sV\u9769\u547d\u8005
p1302
I1
sV\u6700\u591a
p1303
I1
sV\u6069\u683c\u65af
p1304
I5
sV\u8f6e\u8bad\u73ed
p1305
I7
sV\u4e13\u4e66
p1306
I1
sV\u4f4e\u5934
p1307
I1
sV\u5730\u65b9
p1308
I9
sV\u96f7\u950b
p1309
I2
sV\u4e00\u662f
p1310
I10
sV\u827e\u601d\u5947
p1311
I5
sV\u4e1c\u6765
p1312
I1
sV\u65c5\u6e38
p1313
I1
sV\u519b\u8425
p1314
I1
sV\u751f\u547d\u529b
p1315
I2
sV\u9ad8\u4e3e
p1316
I1
sV\u6559\u5b66\u5de5\u4f5c
p1317
I1
sV\u4e5d\u4e94
p1318
I2
sV\u7ea2\u5927
p1319
I2
sV\u653f\u6cbb
p1320
I41
sV\u6881\u56fd\u82f1
p1321
I1
sV\u672c\u7ecf
p1322
I1
sV\u65e0\u95e8
p1323
I1
sV\u5951\u7406
p1324
I2
sV\u5f62\u5f0f\u4e3b\u4e49
p1325
I3
sV\u6bd4\u5230
p1326
I1
sV\u6c34\u57ce
p1327
I1
sV\u4ece\u4eba
p1328
I2
sV\u94c1\u5e55
p1329
I1
sV\u539f\u5148
p1330
I1
sV\u4f5c\u534f
p1331
I1
sV\u5373\u4ec1
p1332
I1
sV\u4e0d\u5fd8\u4e71
p1333
I1
sV\u6709\u5f85
p1334
I5
sV\u7cca\u6d82
p1335
I2
sV\u8bed\u82e5
p1336
I1
sV\u51fa\u7248\u53d1\u884c
p1337
I2
sV\u5f97\u6765
p1338
I1
sV\u4e14\u4e0d\u8bba
p1339
I1
sV\u56de\u907f
p1340
I1
sV\u96c6\u4f53\u7ecf\u6d4e
p1341
I1
sV\u7701\u90e8\u7ea7
p1342
I3
sV\u6cb3\u5317\u7701
p1343
I1
sV\u534f\u4f5c
p1344
I1
sV\u5feb\u6377
p1345
I1
sV\u6307\u6218\u5458
p1346
I1
sV\u7528\u5904
p1347
I5
sV\u8bc4\u4ecb
p1348
I2
sV\u4f9b\u5e94
p1349
I1
sV\u5f02\u540c
p1350
I4
sV\u5eb8\u52a3
p1351
I1
sV\u65e0\u7528
p1352
I1
sV\u94c1\u9762\u65e0\u79c1
p1353
I1
sV\u5d07\u9ad8
p1354
I2
sV\u6d41\u5411
p1355
I2
sV\u859b\u6885
p1356
I2
sV\u4e0d\u597d
p1357
I1
sV\u914d\u5907
p1358
I1
sV\u4e2d\u56fd\u793e\u4f1a\u79d1\u5b66\u9662
p1359
I4
sV\u7980\u6027
p1360
I1
sV\u7236\u8f88
p1361
I1
sV\u8d4b\u4e88
p1362
I3
sV\u610f\u8bc6\u5f62\u6001
p1363
I3
sV\u4e0b\u98ce
p1364
I1
sV\u4e2d\u82f1
p1365
I11
sV\u5b66\u8005
p1366
I20
sV\u4f53\u9a8c
p1367
I7
sV\u8bf2\u4eba\u4e0d\u5026
p1368
I1
sV\u6765\u5957
p1369
I1
sV\u6c11\u4e3b
p1370
I9
sV\u5e02\u573a
p1371
I11
sV\u60c5\u4e2d
p1372
I1
sV\u6df1\u5165\u6d45\u51fa
p1373
I1
sV\u5177\u4f53\u5316
p1374
I5
sV\u5927\u4e66
p1375
I1
sV\u534e\u4eba
p1376
I1
sV\u7cbe\u529b
p1377
I2
sV\u9053\u8def
p1378
I20
sV\u65b0\u751f\u6d3b
p1379
I1
sV\u5de5\u4eba
p1380
I1
sV\u914d\u597d
p1381
I1
sV\u6b23\u6170
p1382
I1
sV\u4e07\u540d
p1383
I1
sV\u53d6\u56de
p1384
I1
sV\u53d1\u8868\u610f\u89c1
p1385
I1
sV\u541b\u5e73
p1386
I1
sV\u751f\u547d
p1387
I5
sV\u96be\u4ee5\u5fcd\u53d7
p1388
I2
sV\u8150\u5316
p1389
I2
sV\u6210\u719f
p1390
I4
sV\u5b83\u4f1a
p1391
I2
sV\u80f8\u6000
p1392
I1
sV\u62b5\u5236
p1393
I1
sV\u65f6\u4ee3\u7cbe\u795e
p1394
I1
sV\u4e1c\u65b9\u54f2\u5b66
p1395
I1
sV\u914d\u5957
p1396
I1
sV\u529e\u4e8b
p1397
I1
sV\u53ef\u80fd\u6027
p1398
I1
sV\u8fd1\u65e5
p1399
I1
sV\u4e0d\u591a
p1400
I2
sV\u8fa9\u8bc1\u552f\u7269\u4e3b\u4e49
p1401
I10
sV\u4e89\u505a
p1402
I1
sV\u8feb\u5207
p1403
I2
sV\u4e30\u539a
p1404
I1
sV\u9886\u4f1a
p1405
I5
sV\u7ecf\u6d4e\u5b66
p1406
I4
sV\u603b\u63fd
p1407
I1
sV\u65e5\u81fb\u5b8c\u5584
p1408
I1
sV\u6b21\u5730
p1409
I2
sV\u5b8b\u8bcd
p1410
I1
sV\u4e00\u671f
p1411
I1
sV\u6297\u5927
p1412
I4
sV\u7edd\u8ff9
p1413
I2
sV\u5404\u522b
p1414
I2
sV\u957f\u6c99
p1415
I1
sV\u4e0d\u4e45\u524d
p1416
I1
sV\u65e0\u548e
p1417
I3
sV\u9ad8\u5c14\u57fa
p1418
I1
sV\u4e00\u672c
p1419
I3
sV\u5de5\u4f5c
p1420
I60
sV\u897f\u5b66\u4e1c\u6e10
p1421
I7
sV\u5341\u4e2a
p1422
I1
sV\u4ece\u8fd1
p1423
I1
sV\u56fd\u9645\u56fd\u5185
p1424
I2
sV\u7a33\u5b9a
p1425
I12
sV\u8fdf\u949d
p1426
I4
sV\u667a\u7167
p1427
I2
sV\u671f\u672b
p1428
I1
sV\u5206\u5272
p1429
I2
sV\u6b6a\u66f2
p1430
I1
sV\u81ea\u7531\u4e3b\u4e49
p1431
I1
sV\u76f8\u5bb9
p1432
I1
sV\u9ad8\u8fdc
p1433
I1
sV\u81ea\u52a8\u5316
p1434
I5
sV\u65b9\u65b9\u9762\u9762
p1435
I1
sV\u7a92\u606f
p1436
I3
sV\u653f\u7814\u5ba4
p1437
I1
sV\u5f62\u800c\u4e0a\u8005
p1438
I1
sV\u5207\u5408
p1439
I1
sV\u5386\u53f2\u89c2
p1440
I1
sV\u4e00\u6761
p1441
I2
sV\u6838\u5fc3
p1442
I9
sV\u878d\u5408
p1443
I9
sV\u53ef\u9760
p1444
I2
sV\u5e74\u7b2c
p1445
I1
sV\u7406\u89e3
p1446
I17
sV\u7ec4\u4e3a
p1447
I1
sV\u6ce8\u91cd
p1448
I2
sV\u4fa8\u5982
p1449
I1
sV\u5438\u53d6
p1450
I4
sV\u7edf\u8ba1
p1451
I4
sV\u8fa9\u8bc1\u552f\u7269\u8bba
p1452
I1
sV\u9707\u64bc
p1453
I1
sV\u65b0\u9896
p1454
I2
sV\u7cfb\u7edf
p1455
I23
sV\u793e\u4f1a\u5b9e\u8df5
p1456
I13
sV\u4ebf\u53f0
p1457
I1
sV\u5e26\u6765
p1458
I5
sV\u65f6\u65f6
p1459
I1
sV\u7cfb\u5217\u8868
p1460
I2
sV\u51e1\u56fd
p1461
I1
sV\u5254\u9664
p1462
I1
sV\u5927\u4f17
p1463
I5
sV\u6709\u5e78
p1464
I1
sV\u56fd\u6c11
p1465
I5
sV\u8d3e\u5c14\u65af
p1466
I1
sV\u5171\u540c\u70b9
p1467
I1
sV\u515a\u6027
p1468
I3
sV\u4fc3\u819d\u4ea4\u8c08
p1469
I1
sV\u5927\u4f1a
p1470
I2
sV\u5212\u6e05
p1471
I1
sV\u903b\u5404\u65af
p1472
I2
sV\u5584\u4e3a
p1473
I1
sV\u54c1\u5fb7
p1474
I2
sV\u6709\u4e09\u5c42
p1475
I1
sV\u96c6\u601d\u5e7f\u76ca
p1476
I1
sV\u4f59\u6570
p1477
I1
sV\u9002\u5408
p1478
I1
sV\u653f\u8d44
p1479
I1
sV\u4ece\u4f55
p1480
I1
sV\u5927\u592b
p1481
I2
sV\u4e2d\u5366\u8c61
p1482
I1
sV\u6218\u6597\u529b
p1483
I1
sV\u6d41\u4f20
p1484
I1
sV\u5e03\u5b81
p1485
I16
sV\u63a5\u53d7\u7cfb\u7edf
p1486
I1
sV\u51fa\u7248\u793e
p1487
I3
sV\u5927\u6f6e
p1488
I1
sV\u94a2\u94c1
p1489
I1
sV\u5bfc\u5e08
p1490
I1
sV\u8015\u8018
p1491
I2
sV\u4ee5\u4eba\u4e3a\u672c
p1492
I1
sV\u5927\u8fa9\u8bba
p1493
I1
sV\u5343\u53e4
p1494
I2
sV\u5351\u9119
p1495
I2
sV\u540c\u80de
p1496
I2
sV\u5e26\u6709
p1497
I4
sV\u5357\u4eac\u5e02
p1498
I2
sV\u5168\u795e\u8d2f\u6ce8
p1499
I2
sV\u516d\u795e\u65e0\u4e3b
p1500
I1
sV\u4e94\u5341
p1501
I1
sV\u5584\u4e8e
p1502
I4
sV\u6210\u5c31
p1503
I4
sV\u7f57\u534e
p1504
I2
sV\u6211\u56fd
p1505
I35
sV\u5bfc\u81f4
p1506
I3
sV\u5982\u7a0b
p1507
I1
sV\u6587\u5c71\u4f1a\u6d77
p1508
I1
sV\u6d3e\u522b
p1509
I2
sV\u5b54\u5b50
p1510
I3
sV\u53bb\u7c97\u53d6\u7cbe
p1511
I1
sV\u897f\u65b9\u54f2\u5b66
p1512
I18
sV\u4ea4\u6d41
p1513
I4
sV\u89c6\u91ce
p1514
I1
sV\u5e08\u751f
p1515
I2
sV\u4f20\u6559\u58eb
p1516
I3
sV\u542f\u8fea
p1517
I2
sV\u5353\u8d8a
p1518
I2
sV\u7206\u70b8
p1519
I2
sV\u5174\u8d77
p1520
I1
sV\u533a\u522b
p1521
I3
sV\u76f4\u81f3
p1522
I1
sV\u610f\u5473
p1523
I1
sV\u91c7\u83ca
p1524
I1
sV\u9009\u62e9
p1525
I1
sV\u65e0\u5730\u81ea\u5bb9
p1526
I1
sV\u6821\u957f
p1527
I4
sV\u4f4e\u52a3
p1528
I2
sV\u5c06\u519b
p1529
I11
sV\u4e66\u658b
p1530
I10
sV\u51ef\u4e30
p1531
I1
sV\u5e94\u80fd
p1532
I4
sV\u6297\u65e5\u6551\u4ea1
p1533
I1
sV\u4ee5\u5999\u6027
p1534
I2
sV\u751f\u4ea7\u603b\u503c
p1535
I3
sV\u5bf9\u7acb\u7269
p1536
I1
sV\u6210\u529f
p1537
I1
sV\u8fd9\u53e5\u8bdd
p1538
I2
sV\u91cd\u8981\u6027
p1539
I1
sV\u4f0a\u58c1
p1540
I1
sV\u6b7b\u7ed3
p1541
I2
sV\u54f2\u5b66\u53f2
p1542
I6
sV\u957f\u4fdd
p1543
I1
sV\u957f\u8fdc
p1544
I1
sV\u6709\u56db\u6212
p1545
I1
sV\u8270\u82e6\u594b\u6597
p1546
I2
sV\u771f\u5b9e
p1547
I1
sV\u897f\u8bd1
p1548
I3
sV\u94fa\u5929\u76d6\u5730
p1549
I1
sV\u70e7\u7ed3\u5382
p1550
I1
sV\u8ba1\u5212\u6027
p1551
I1
sV\u5168\u5c40
p1552
I8
sV\u5171\u9752\u56e2
p1553
I2
sV\u5f20\u5b9d\u745e
p1554
I1
sV\u8bef\u4f1a
p1555
I2
sV\u884c\u653f\u90e8\u95e8
p1556
I2
sV\u8d77\u59cb
p1557
I1
sV\u4f18\u79c0
p1558
I8
sV\u7a46\u59dc
p1559
I2
sV\u529e\u6cd5
p1560
I2
sV\u91ce\u86ee
p1561
I6
sV\u6839\u57fa
p1562
I2
sV\u6b22\u805a\u4e00\u5802
p1563
I1
sV\u7535\u89c6
p1564
I1
sV\u89c4\u5f8b
p1565
I19
sV\u5177\u5907
p1566
I1
sV\u5320\u5fc3
p1567
I2
sV\u5e7f\u4e1c
p1568
I2
sV\u5927\u80c6
p1569
I2
sV\u8d75\u5e73
p1570
I1
sV\u5b66\u4e60\u8d2f\u5f7b
p1571
I1
sV\u4e66\u76ae
p1572
I1
sV\u6587\u660e\u5efa\u8bbe
p1573
I4
sV\u82f1\u4e2d
p1574
I3
sV\u4e30\u5bcc\u591a\u5f69
p1575
I2
sV\u7cbe\u5e72
p1576
I1
sV\u7b2c\u516b
p1577
I1
sV\u6e05\u534e\u5927\u5b66
p1578
I2
sV\u949f\u9633\u80dc
p1579
I2
sV\u4e00\u4e8b\u65e0\u6210
p1580
I1
sV\u89e3\u653e\u519b
p1581
I1
sV\u7b2c\u4e09\u4ea7\u4e1a
p1582
I1
sV\u843d\u5230\u5b9e\u5904
p1583
I1
sV\u5386\u53f2
p1584
I58
sV\u51e0\u5341
p1585
I3
sV\u62db\u6536
p1586
I1
sV\u7814\u7a76\u5ba4
p1587
I1
sV\u5916\u5728
p1588
I4
sV\u5960\u7acb
p1589
I1
sV\u65e0\u5f02\u4e8e
p1590
I2
sV\u4f5c\u51fa
p1591
I13
sV\u54f2\u4eba
p1592
I1
sV\u6570\u662f
p1593
I2
sV\u5148\u54f2
p1594
I3
sV\u4e0e\u4f1a\u8005
p1595
I1
sV\u63d0\u8981
p1596
I2
sV\u535c\u95ee
p1597
I3
sV\u65e0\u79c1\u5949\u732e
p1598
I2
sV\u82cf\u8054
p1599
I3
sV\u5c71\u4e1c
p1600
I4
sV\u4e2a\u4eba\u4e3b\u4e49
p1601
I3
sV\u4e2a\u5f03
p1602
I1
sV\u590d\u53e4
p1603
I1
sV\u4ea6\u5373
p1604
I3
sV\u53c2\u89c1
p1605
I4
sV\u5b9d\u5e93
p1606
I2
sV\u611f\u5b98
p1607
I2
sV\u57fa\u7840
p1608
I57
sV\u624b\u4e2d
p1609
I2
sV\u56fd\u4eba
p1610
I2
sV\u5b9e\u884c
p1611
I4
sV\u4e00\u4efd
p1612
I1
sV\u7247\u8a00\u53ea\u8bed
p1613
I1
sV\u5f00\u521b
p1614
I1
sV\u51e0\u5e74\u6765
p1615
I1
sV\u5076\u50cf
p1616
I2
sV\u4e0d\u4e00\u800c\u8db3
p1617
I1
sV\u884c\u4e3a\u89c4\u8303
p1618
I2
sV\u6587\u53f7
p1619
I1
sV\u5e74\u5185
p1620
I1
sV\u79d1\u7814
p1621
I4
sV\u53ef\u7528
p1622
I1
sV\u4ed3\u5e93
p1623
I1
sV\u7406\u8bba
p1624
I174
sV\u4e00\u652f
p1625
I5
sV\u5408\u7528
p1626
I4
sV\u79d1\u5b66\u7814\u7a76
p1627
I2
sV\u8f66\u8f6e
p1628
I1
sV\u8bfb\u8005
p1629
I5
sV\u79d1\u7814\u6210\u679c
p1630
I2
sV\u552f\u7269\u8fa9\u8bc1\u6cd5
p1631
I20
sV\u7b79\u5212
p1632
I1
sV\u4e07\u7269
p1633
I4
sV\u5e7f\u6536
p1634
I1
sV\u5978\u592b
p1635
I1
sV\u8db3\u591f
p1636
I1
sV\u5224\u522b
p1637
I2
sV\u7194\u94f8
p1638
I1
sV\u8ba4\u8bc6\u8bba
p1639
I2
sV\u8fdc\u8fdc
p1640
I1
sV\u4eba\u80fd
p1641
I1
sV\u9080\u601d\u5947
p1642
I1
sV\u968f\u4eba
p1643
I1
sV\u65e5\u7535
p1644
I12
sV\u65f6\u673a
p1645
I2
sV\u516d\u4e2d\u5168\u4f1a
p1646
I3
sV\u6323\u624e
p1647
I1
sV\u4e1c\u90e8
p1648
I2
sV\u65b0\u534e\u4e66\u5e97
p1649
I1
sV\u63d0\u7eb2\u6308\u9886
p1650
I1
sV\u8981\u7528
p1651
I2
sV\u57fa\u672c\u77e5\u8bc6
p1652
I2
sV\u7545\u9500
p1653
I2
sV\u5bcc\u6709
p1654
I1
sV\u5ffd\u89c6
p1655
I5
sV\u5728\u540e
p1656
I1
sV\u6d77\u5185\u5916
p1657
I1
sV\u4e0b\u7b14
p1658
I1
sV\u571f\u5730\u9769\u547d\u6218\u4e89
p1659
I1
sV\u7cbe\u5fc3
p1660
I2
sV\u65f6\u671f
p1661
I19
sV\u8d8a\u5199
p1662
I1
sV\u7206\u53d1
p1663
I2
sV\u671b\u800c\u5374\u6b65
p1664
I1
sV\u4eba\u6027
p1665
I3
sV\u52bf\u5dee
p1666
I2
sV\u8003\u5bdf
p1667
I4
sV\u5dee\u8ddd
p1668
I3
sV\u56fd\u4e2d
p1669
I1
sV\u5982\u5b9e
p1670
I6
sV\u5f00\u529e
p1671
I2
sV\u5f62\u800c\u4e0b\u8005
p1672
I1
sV\u76db\u8870
p1673
I1
sV\u968f\u4e4b
p1674
I4
sV\u5ba2\u89c2
p1675
I20
sV\u6062\u590d
p1676
I3
sV\u9655\u5317
p1677
I2
sV\u77e5\u8bc6
p1678
I51
sV\u653f\u4f53
p1679
I1
sV\u6559\u80b2\u8005
p1680
I2
sV\u5f62\u4e0a
p1681
I2
sV\u4e3b\u6743
p1682
I2
sV\u800c\u5e94
p1683
I1
sV\u94a5\u5319
p1684
I1
sV\u552f\u5fc3\u4e3b\u4e49
p1685
I3
sV\u63ed\u793a
p1686
I6
sV\u65e2\u4ee5
p1687
I1
sV\u7ecf\u6d4e\u5efa\u8bbe
p1688
I1
sV\u90e8\u7f72
p1689
I1
sV\u7f6a\u6076
p1690
I2
sV\u4f9d\u6258
p1691
I1
sV\u4f55\u5e73
p1692
I1
sV\u4f55\u5e72
p1693
I1
sV\u7cbe\u5f69
p1694
I1
sV\u65b9\u5f3a
p1695
I1
sV\u5148\u53d7
p1696
I2
sV\u5206\u914d
p1697
I1
sV\u60c5\u7ed3
p1698
I1
sV\u4e0a\u767e
p1699
I3
sV\u529e\u4e8b\u673a\u6784
p1700
I1
sV\u53db\u7136
p1701
I2
sV\u65b9\u5f0f
p1702
I26
sV\u559c\u7231
p1703
I1
sV\u8fce\u9001
p1704
I1
sV\u8bba\u7740
p1705
I1
sV\u4e1a\u52a1
p1706
I2
sV\u504f\u89c1
p1707
I1
sV\u5b66\u4e60\u4f1a
p1708
I1
sV\u4e0e\u5e74\u4ff1\u589e
p1709
I2
sV\u65e0\u9650
p1710
I1
sV\u8bba\u575b
p1711
I1
sV\u7b26\u5408
p1712
I4
sV\u6587\u732e
p1713
I1
sV\u7269\u7406
p1714
I1
sV\u8d3e\u6c38
p1715
I2
sV\u6587\u5b66
p1716
I1
sV\u5b89\u5b9a\u56e2\u7ed3
p1717
I3
sV\u611f\u89c9
p1718
I12
sV\u5fc3\u5883
p1719
I2
sV\u52a0\u5feb
p1720
I2
sV\u4e3b\u52a8\u6743
p1721
I2
sV\u7231\u597d\u8005
p1722
I1
sV\u60c5\u611f
p1723
I4
sV\u56fd\u5185\u5916
p1724
I1
sV\u5c71\u4e1c\u7701\u59d4
p1725
I3
sV\u7406\u8bba\u6559\u80b2
p1726
I2
sV\u6761\u4ef6
p1727
I25
sV\u8fa9\u62a4
p1728
I2
sV\u6df1\u4e00\u6b65
p1729
I1
sV\u707e\u53d8
p1730
I1
sV\u6743\u5229
p1731
I1
sV\u7ecf\u9a8c
p1732
I16
sV\u7cfb\u5217
p1733
I11
sV\u53bb\u5e74
p1734
I1
sV\u8d3e\u8c0a
p1735
I1
sV\u79c1\u6b32
p1736
I2
sV\u6c11\u5175\u8425
p1737
I1
sV\u609f\u6027
p1738
I2
sV\u53c2\u52a0\u8005
p1739
I1
sV\u5c3c\u53e4\u62c9
p1740
I1
sV\u5e72\u90e8
p1741
I46
sV\u4f1a\u957f
p1742
I3
sV\u7ec4\u5370
p1743
I1
sV\u8c03\u67e5\u7814\u7a76
p1744
I3
sV\u5929\u7a7a
p1745
I1
sV\u731b\u5fd7
p1746
I1
sV\u6df1\u6076\u75db\u7edd
p1747
I2
sV\u5730\u59d4
p1748
I1
sV\u901a\u4f8b
p1749
I1
sV\u7cdf\u7c95
p1750
I2
sV\u8282\u594f
p1751
I2
sV\u671b\u800c\u751f\u754f
p1752
I1
sV\u9a6c\u6587\u745e
p1753
I1
sV\u7bc7\u6587\u7ae0
p1754
I1
sV\u8868\u9762
p1755
I1
sV\u9a6c\u96c5\u53ef\u592b\u65af\u57fa
p1756
I1
sV\u5148\u8981
p1757
I1
sV\u79cd\u7c7b
p1758
I1
sV\u8f6e\u8bad
p1759
I6
sV\u7f16\u5ba1
p1760
I1
sV\u4f4e\u4e0b
p1761
I1
sV\u91cf\u5b50\u529b\u5b66
p1762
I3
sV\u4e3b\u9898
p1763
I8
sV\u84cd\u8349
p1764
I2
sV\u5b9e\u5728
p1765
I6
sV\u5173\u6ce8
p1766
I1
sV\u5bf9\u8bdd
p1767
I2
sV\u529b\u5b66
p1768
I1
sV\u725b\u6d25
p1769
I3
sV\u53c2\u8bad
p1770
I1
sV\u5171\u4ea7\u4e3b\u4e49
p1771
I3
sV\u5fc3\u58f0
p1772
I1
sV\u75be\u75c5
p1773
I1
sV\u56e2\u7ed3
p1774
I2
sV\u653f\u6cbb\u54f2\u5b66
p1775
I1
sV\u8ff0\u8bc4
p1776
I3
sV\u519b\u957f
p1777
I3
sV\u6b63\u4ee5
p1778
I1
sV\u5174\u53d1
p1779
I1
sV\u6743\u529b
p1780
I5
sV\u4e94\u4e2a
p1781
I1
sV\u5206\u6e05
p1782
I2
sV\u7acb\u573a
p1783
I5
sV\u65e9\u65e5
p1784
I1
sV\u727a\u7272
p1785
I3
sV\u83ab\u8fc7\u4e8e
p1786
I1
sV\u5934\u5341\u5e74
p1787
I1
sV\u5c06\u5c31
p1788
I1
sV\u4e8c\u8005
p1789
I4
sV\u4e1c\u7bf1
p1790
I1
sV\u641e\u4e71
p1791
I1
sV\u624b\u518c
p1792
I2
sV\u6d17\u5237
p1793
I1
sV\u53d1\u6587
p1794
I1
sV\u5d29\u6e83
p1795
I2
sV\u7410\u788e
p1796
I1
sV\u7701\u957f
p1797
I2
sV\u4e2d\u56fd\u4eba\u6c11\u5927\u5b66
p1798
I1
sV\u9a6c\u5217
p1799
I6
sV\u66f4\u4f1a
p1800
I1
sV\u5b8f\u89c2\u8c03\u63a7
p1801
I7
sV\u5b63\u7fa1\u6797
p1802
I2
sV\u5bf9\u6b64
p1803
I1
sV\u68c0\u9a8c
p1804
I7
sV\u4f5c\u8fc7
p1805
I2
sV\u81ea\u613f
p1806
I1
sV\u98ce\u683c
p1807
I5
sV\u548c\u5e73
p1808
I6
sV\u4e4b\u95f4
p1809
I5
sV\u8f6c\u6362
p1810
I1
sV\u4ea7\u4e1a\u7ed3\u6784
p1811
I2
sV\u4e0d\u653e
p1812
I1
sV\u6625\u98ce
p1813
I1
sV\u5d1b\u8d77
p1814
I1
sV\u817e\u98de
p1815
I1
sV\u6cbb\u519b
p1816
I3
sV\u624b\u91cc
p1817
I1
sV\u8eb2\u5165
p1818
I1
sV\u6682\u65f6
p1819
I3
sV\u4e09\u4e2a
p1820
I5
sV\u5c0f\u519b
p1821
I1
sV\u53d6\u5229
p1822
I2
sV\u665a\u5e74
p1823
I1
sV\u67aa\u6746\u5b50
p1824
I1
sV\u4e2d\u5eb8
p1825
I1
sV\u6b7b\u80e1\u540c
p1826
I1
sV\u65b0\u89c2\u5ff5
p1827
I1
sV\u63a7\u5236
p1828
I3
sV\u56f4\u7ed5
p1829
I4
sV\u51b3\u7b56
p1830
I6
sV\u5174\u65fa\u53d1\u8fbe
p1831
I1
sV\u519b\u5907
p1832
I2
sV\u7f8e\u4e3d
p1833
I1
sV\u6d88\u878d
p1834
I2
sV\u7ecf\u9a8c\u8bba
p1835
I1
sV\u4ef7\u503c
p1836
I26
sV\u8bb2\u6388
p1837
I2
sV\u56fe\u4e66
p1838
I1
sV\u4e9f\u9700
p1839
I1
sV\u4e43\u662f
p1840
I1
sV\u5236\u5ea6
p1841
I16
sV\u589e\u957f
p1842
I56
sV\u548c\u7f8e
p1843
I2
sV\u5e72\u51fa
p1844
I1
sV\u5409\u51f6
p1845
I9
sV\u6559\u5bfc
p1846
I1
sV\u7f8e\u4e11
p1847
I2
sV\u7d2b\u5fae\u6597\u6570
p1848
I1
sV\u5e74\u6765
p1849
I6
sV\u9ad8\u7b49\u5b66\u6821
p1850
I3
sV\u6eb6\u89e3
p1851
I1
sV\u5360\u5366
p1852
I16
sV\u827a\u672f\u5bb6
p1853
I4
sV\u5176\u5bab
p1854
I1
sV\u5ba3\u4f20\u5de5\u4f5c
p1855
I1
sV\u8c03\u52a8
p1856
I1
sV\u5b66\u672f\u754c
p1857
I2
sV\u540c\u7c7b
p1858
I4
sV\u5206\u8ff0
p1859
I2
sV\u53f6\u8302
p1860
I1
sV\u7ec4\u7ec7\u8005
p1861
I1
sV\u4e3b\u6301\u4eba
p1862
I2
sV\u5145\u6ee1
p1863
I3
sV\u5e0c\u671b
p1864
I5
sV\u5411\u5f80
p1865
I2
sV\u60b2\u82e6
p1866
I1
sV\u90b9\u5e9a
p1867
I1
sV\u524d\u63d0
p1868
I4
sV\u5747\u8861
p1869
I4
sV\u8303\u7574
p1870
I14
sV\u7ba1\u7406
p1871
I2
sV\u5360\u535c
p1872
I3
sV\u5c0f\u89c6
p1873
I1
sV\u56e0\u7d20
p1874
I3
sV\u4e2d\u5fc3
p1875
I12
sV\u9636\u7ea7
p1876
I6
sV\u8bba\u8d44\u6392\u8f88
p1877
I1
sV\u597d\u5947\u5fc3
p1878
I2
sV\u51fa\u56fd
p1879
I1
sV\u5148\u884c
p1880
I6
sV\u795e\u610f
p1881
I1
sV\u7cae\u98df
p1882
I1
sV\u516c\u5143\u524d
p1883
I1
sV\u5fc3\u5916
p1884
I2
sV\u79f0\u804c
p1885
I1
sV\u767e\u5bb6\u4e89\u9e23
p1886
I4
sV\u7406\u7531
p1887
I2
sV\u52a8\u5458
p1888
I2
sV\u6c88\u6c34
p1889
I1
sV\u5987\u5973
p1890
I3
sV\u53d1\u8d77
p1891
I1
sV\u5916\u8868
p1892
I2
sV\u6e05\u9664
p1893
I2
sV\u4ee5\u7ecf\u6d4e
p1894
I2
sV\u6559\u5b66
p1895
I4
sV\u6d0b\u6d0b\u5f97\u610f
p1896
I2
sV\u793e\u4f1a\u95ee\u9898
p1897
I1
sV\u5949\u732e
p1898
I5
sV\u4ed4\u7ec6
p1899
I1
sV\u6df1\u5965
p1900
I2
sV\u4ebf\u4e07\u4eba\u6c11
p1901
I1
sV\u63aa\u65bd
p1902
I7
sV\u8840\u8089
p1903
I1
sV\u4e00\u7bc7
p1904
I2
sV\u9886\u53d7
p1905
I3
sV\u73af\u5883
p1906
I6
sV\u8bf4\u670d
p1907
I1
sV\u5f62\u52bf\u653f\u7b56
p1908
I1
sV\u597d\u50cf
p1909
I1
sV\u516b\u9762
p1910
I1
sV\u6625\u79cb
p1911
I1
sV\u8131\u79bb
p1912
I1
sV\u603b\u540e\u52e4\u90e8
p1913
I2
sV\u5de5\u5382
p1914
I1
sV\u674e\u957f\u798f
p1915
I1
sV\u7b80\u6377
p1916
I1
sV\u9ed1\u683c\u5c14
p1917
I2
sV\u4f20\u7edf\u6587\u5316
p1918
I5
sV\u7efc\u5408
p1919
I4
sV\u52a0\u5de5
p1920
I3
sV\u8a00\u8c08
p1921
I1
sV\u8ffd\u8d76\u578b
p1922
I4
sV\u5fae\u8584
p1923
I2
sV\u8d2b\u5bcc
p1924
I5
sV\u8bda\u631a
p1925
I2
sV\u6ee1\u8154\u70ed\u60c5
p1926
I1
sV\u666f\u6e90
p1927
I1
sV\u6587\u4ef6
p1928
I8
sV\u5929\u4eba\u5408\u4e00
p1929
I2
sV\u4e8b\u60c5
p1930
I1
sV\u798f\u5efa\u7701
p1931
I1
sV\u5b66\u5e9c
p1932
I2
sV\u4e3b\u4e49\u8005
p1933
I1
sV\u6fc0\u8d77
p1934
I1
sV\u674e\u745e
p1935
I1
sV\u7406\u8bba\u754c
p1936
I1
sV\u8fa9\u8bc1\u6cd5
p1937
I17
sV\u7528\u6743
p1938
I1
sV\u51b2\u52a8
p1939
I2
sV\u5145\u8db3
p1940
I1
sV\u7eaa\u5143
p1941
I1
sV\u53d1\u5c55\u53f2
p1942
I3
sV\u52e4\u52e4\u6073\u6073
p1943
I1
sV\u4e09\u6167
p1944
I2
sV\u8d31\u4e1a
p1945
I1
sV\u5bbd\u5bb9
p1946
I2
sV\u7269\u7406\u5b66
p1947
I1
sV\u5f31\u8005
p1948
I4
sV\u6807\u5f15\u8bcd
p1949
I2
sV\u6539\u8fc7\u8fc1\u5584
p1950
I1
sV\u9762\u5bf9
p1951
I7
sV\u4e0a\u8bfe
p1952
I1
sV\u5f00\u8f66
p1953
I1
sV\u65e9\u671f
p1954
I2
sV\u521b\u5efa
p1955
I4
sV\u7b54\u5e94
p1956
I1
sV\u5f52\u771f
p1957
I2
sV\u4fe1\u670d
p1958
I2
sV\u8f9c\u9e3f\u94ed
p1959
I1
sV\u51fa\u751f
p1960
I1
sV\u65e0\u6bd4
p1961
I1
sV\u6446\u5728
p1962
I1
sV\u4e00\u9879
p1963
I4
sV\u81ea\u7136\u529b
p1964
I1
sV\u8fd1\u6bb5
p1965
I1
sV\u6e34\u671b
p1966
I1
sV\u5f97\u798f
p1967
I1
sV\u9ec4\u91c7
p1968
I1
sV\u5185\u5fc3
p1969
I5
sV\u5341\u4e00\u5c4a\u4e09\u4e2d\u5168\u4f1a
p1970
I4
sV\u5c40\u9650
p1971
I1
sV\u9f99\u5411
p1972
I1
sV\u5f62\u8c61
p1973
I1
sV\u7ecf\u6d4e
p1974
I109
sV\u517c\u8bc4
p1975
I1
sV\u6559\u804c\u5de5
p1976
I1
sV\u89c4\u7ae0\u5236\u5ea6
p1977
I1
sV\u653f\u6cbb\u90e8
p1978
I3
sV\u666e\u904d\u8054\u7cfb
p1979
I2
sV\u5267\u70c8
p1980
I2
sV\u77e2\u5fd7\u4e0d\u6e1d
p1981
I1
sV\u516c\u8bf8\u540c\u597d
p1982
I1
sV\u5b8c\u6574
p1983
I2
sV\u6839\u8bba
p1984
I2
sV\u4e24\u8bba
p1985
I6
sV\u7edf\u5408
p1986
I2
sV\u4e0d\u673d
p1987
I1
sV\u7c97\u7cd9
p1988
I2
sV\u4e00\u5927
p1989
I1
sV\u7e41\u8363
p1990
I10
sV\u5de7\u6f14
p1991
I2
sV\u6545\u5168
p1992
I1
sV\u4ee3\u8868\u6027
p1993
I1
sV\u5112\u5b66
p1994
I1
sV\u51e0\u4f4d
p1995
I1
sV\u540c\u5fd7
p1996
I110
sV\u9762\u5b50
p1997
I1
sV\u81ea\u6cbb\u533a
p1998
I1
sV\u6587\u4e2d
p1999
I1
sV\u5bd3\u6240
p2000
I1
sV\u7ecf\u6d4e\u5de5\u4f5c
p2001
I2
sV\u72ed\u7a84
p2002
I1
sV\u6c11\u95f4
p2003
I3
sV\u903b\u8f91\u601d\u7ef4
p2004
I1
sV\u5929\u771f\u65e0\u90aa
p2005
I2
sV\u5ba3\u4f20
p2006
I6
sV\u7ae5\u53ef
p2007
I2
sV\u4e3b\u5bfc
p2008
I4
sV\u6587\u5316\u4f20\u64ad
p2009
I1
sV\u6709\u7279\u8272
p2010
I2
sV\u6284\u4e0a
p2011
I1
sV\u5de5\u5177
p2012
I46
sV\u5f62\u52bf
p2013
I5
sV\u519b\u4e50\u961f
p2014
I2
sV\u5b8b\u5e73
p2015
I7
sV\u539f\u6599
p2016
I1
sV\u6f14\u5316
p2017
I3
sV\u6df1\u5316
p2018
I5
sV\u4fee\u6b64
p2019
I1
sV\u53c2\u8003\u6587\u732e
p2020
I2
sV\u8d23\u4efb\u5236
p2021
I1
sV\u501f\u52a9
p2022
I3
sV\u7b80\u8981
p2023
I6
sV\u6b27\u7f8e
p2024
I1
sV\u652f\u67f1
p2025
I3
sV\u53d1\u660e
p2026
I3
sV\u4e07\u4e16
p2027
I1
sV\u6307\u5f15
p2028
I6
sV\u5f88\u5fd9
p2029
I2
sV\u4eba\u624d
p2030
I4
sV\u6781\u6709
p2031
I1
sV\u4e4b\u5668
p2032
I1
sV\u6167\u6839
p2033
I1
sV\u8f66\u52a1\u6bb5
p2034
I1
sV\u7531\u7701
p2035
I1
sV\u76d1\u7763
p2036
I1
sV\u9610\u53d1
p2037
I6
sV\u6574\u5408
p2038
I10
sV\u5076\u7136\u6027
p2039
I6
sV\u526f\u4e3b\u4efb
p2040
I2
sV\u6ed1\u8f6e
p2041
I3
sV\u6307\u793a
p2042
I5
sV\u9636\u5c42
p2043
I1
sV\u8d76\u8d85
p2044
I2
sV\u4e4b\u9645
p2045
I1
sV\u8fa8\u6790
p2046
I2
sV\u4e0b\u6708
p2047
I1
sV\u7aa5\u89c1
p2048
I2
sV\u8bba\u8bc1
p2049
I1
sV\u706b\u70ed
p2050
I2
sV\u597d\u515a
p2051
I1
sV\u8fdc\u53e4
p2052
I2
sV\u73b0\u8c61
p2053
I10
sV\u6784\u5efa
p2054
I13
sV\u5168\u6c11\u65cf
p2055
I2
sV\u7ecf\u6d4e\u53d1\u5c55
p2056
I7
sV\u53d1\u8fbe\u56fd\u5bb6
p2057
I4
sV\u5e73\u66b4
p2058
I1
sV\u5fc5\u8981\u6761\u4ef6
p2059
I1
sV\u96c6\u4f53
p2060
I8
sV\u8bba\u8bed
p2061
I1
sV\u9aa8\u5e72
p2062
I4
sV\u7b80\u610f
p2063
I1
sV\u63d2\u5165
p2064
I2
sV\u4eb2\u5207
p2065
I1
sV\u52a3\u52bf
p2066
I2
sV\u64a4\u9500
p2067
I1
sV\u706b\u5019
p2068
I3
sV\u865a\u8363
p2069
I2
sV\u77e5\u97f3
p2070
I1
sV\u6b21\u8981
p2071
I1
sV\u4e2d\u56fd\u5f0f
p2072
I3
sV\u811a\u8e0f\u5b9e\u5730
p2073
I1
sV\u5927\u5112
p2074
I1
sV\u957f\u5219
p2075
I1
sV\u7279\u5b9a
p2076
I1
sV\u8d2f\u5f7b
p2077
I18
sV\u7275\u52a8
p2078
I1
sV\u7406\u5728
p2079
I1
sV\u5e26\u5934
p2080
I4
sV\u4e66\u9875
p2081
I1
sV\u907f\u7978
p2082
I1
sV\u5317\u4eac\u79d1\u6280\u5927\u5b66
p2083
I1
sV\u4eba\u6587\u4e3b\u4e49
p2084
I2
sV\u4e00\u79cd
p2085
I55
sV\u591a\u671f
p2086
I1
sV\u89e3\u653e
p2087
I2
sV\u4eba\u7c7b
p2088
I79
sV\u8d2c\u635f
p2089
I1
sV\u4e07\u4e8b
p2090
I2
sV\u6a21\u4eff
p2091
I2
sV\u96be\u80fd\u53ef\u8d35
p2092
I1
sV\u641e\u6d3b
p2093
I1
sV\u961f\u4f0d\u5efa\u8bbe
p2094
I1
sV\u5b64\u7acb
p2095
I6
sV\u6f14\u53d8
p2096
I1
sV\u9b3c\u795e
p2097
I2
sV\u4fee\u8ba2
p2098
I1
sV\u843d\u5b9e
p2099
I12
sV\u8d8a\u6df1
p2100
I1
sV\u6c5f\u6cfd\u6c11
p2101
I25
sV\u4e00\u7edf\u5929\u4e0b
p2102
I1
sV\u4e00\u4e5d\u4e5d\u4e09\u5e74
p2103
I1
sV\u7814\u7a76\u5de5\u4f5c
p2104
I1
sV\u5e9f\u65e7
p2105
I1
sV\u5e73\u8861
p2106
I1
sV\u5174\u4ea1
p2107
I1
sV\u767e\u4e07
p2108
I1
sV\u611f\u609f
p2109
I4
sV\u540c\u5b66
p2110
I4
sV\u4f20\u5165
p2111
I1
sV\u8089\u4f53
p2112
I2
sV\u7c97\u5236\u6ee5\u9020
p2113
I1
sV\u68a6\u6e38\u8005
p2114
I1
sV\u5efa\u8bbe\u6210\u5c31
p2115
I1
sV\u5c45\u5b89\u601d\u5371
p2116
I1
sV\u601d\u60f3\u5bb6
p2117
I1
sV\u674e\u9274
p2118
I1
sV\u65b0\u610f
p2119
I3
sV\u5f00\u653e\u6027
p2120
I1
sV\u57fa\u5c42
p2121
I2
sV\u56fe\u817e
p2122
I1
sV\u8f85\u5bfc
p2123
I5
sV\u9677\u4e8e
p2124
I1
sV\u5c40\u90e8
p2125
I4
sV\u8bfb\u4e66\u73ed
p2126
I3
sV\u5962\u4f88
p2127
I2
sV\u79ef\u6781\u5206\u5b50
p2128
I1
sV\u515a\u653f
p2129
I2
sV\u4e8b\u5b9e\u4e0a
p2130
I3
sV\u9605\u8bfb
p2131
I3
sV\u795b\u9664
p2132
I2
sV\u515c\u552e
p2133
I1
sV\u8d1f\u8d23\u7ec4\u7ec7
p2134
I1
sV\u8f6c\u8f7d
p2135
I8
sV\u4f5c\u597d
p2136
I1
sV\u91cd\u6e29
p2137
I2
sV\u5168\u515a
p2138
I6
sV\u653f\u6cbb\u7406\u8bba
p2139
I1
sV\u6d3b\u8840\u5316\u7600
p2140
I1
sV\u82e6\u6d77
p2141
I1
sV\u7cbe\u795e\u6587\u660e
p2142
I16
sV\u81ea\u7531
p2143
I9
sV\u5355\u51ed
p2144
I2
sV\u54f2\u5b66\u89c2
p2145
I4
sV\u9020\u5c31
p2146
I4
sV\u5408\u4e4e
p2147
I1
sV\u5fae\u5f31
p2148
I2
sV\u515a\u59d4
p2149
I12
sV\u611f\u60c5
p2150
I12
sV\u7701\u59d4
p2151
I9
sV\u8e0a\u8dc3
p2152
I1
sV\u6559\u6750
p2153
I1
sV\u9ad8\u77bb\u8fdc\u77a9
p2154
I2
sV\u6167\u6f14
p2155
I4
sV\u8bfe\u9898\u7814\u7a76
p2156
I1
sV\u8fd0\u6f14
p2157
I1
sV\u4f34\u968f
p2158
I4
sV\u535a\u53e4
p2159
I2
sV\u4e4b\u5149
p2160
I2
sV\u6750\u6599
p2161
I3
sV\u8131\u9500
p2162
I1
sV\u5b89\u5176\u8eab
p2163
I1
sV\u6b66\u88c5
p2164
I11
sV\u9886\u5bfc\u51b3\u7b56
p2165
I1
sV\u5b66\u98ce
p2166
I2
sV\u81ea\u89c9\u6027
p2167
I2
sV\u987e\u95ee
p2168
I1
sV\u90d1\u5dde
p2169
I1
sV\u8868\u73b0
p2170
I22
sV\u9635\u5730
p2171
I1
sV\u56db\u5341
p2172
I1
sV\u5ba3\u4f20\u90e8
p2173
I1
sV\u7814\u8ba8
p2174
I4
sV\u6839\u6df1
p2175
I1
sV\u6323\u8131
p2176
I1
sV\u5269\u4f59
p2177
I2
sV\u53e4\u4eca
p2178
I1
sV\u5371\u5bb3
p2179
I2
sV\u603b\u90e8
p2180
I2
sV\u8f6c\u4fe1
p2181
I7
sV\u673a\u6784
p2182
I2
sV\u672c\u662f
p2183
I1
sV\u5df2\u51fa
p2184
I1
sV\u9ad8\u79d1\u6280
p2185
I3
sV\u7231\u56fd\u4e3b\u4e49
p2186
I3
sV\u56de\u73af
p2187
I1
sV\u63d0\u53ca
p2188
I1
sV\u5305\u5bb9
p2189
I6
sV\u8868\u7387
p2190
I1
sV\u8868\u9762\u6587\u7ae0
p2191
I1
sV\u7ed9\u4e88
p2192
I1
sV\u7559\u4e0b
p2193
I6
sV\u76f8\u622e
p2194
I2
sV\u62db\u5f15
p2195
I2
sV\u539f\u52a8\u529b
p2196
I1
sV\u738b\u752b
p2197
I1
sV\u8270\u8f9b
p2198
I2
sV\u4e70\u5b98
p2199
I1
sV\u4e3e\u6b65\u7ef4\u8270
p2200
I1
sV\u9093\u5c0f\u5e73\u6587\u9009
p2201
I3
sV\u6284\u88ad
p2202
I2
sV\u7ec8\u4e8e
p2203
I2
sV\u592b\u4eba
p2204
I2
sV\u4e0d\u613f
p2205
I4
sV\u53d1\u81ea
p2206
I1
sV\u4e00\u90e8\u4e66
p2207
I1
sV\u6708\u521d
p2208
I1
sV\u519b\u5175\u79cd
p2209
I1
sV\u6709\u673a
p2210
I5
sV\u8bf8\u591a
p2211
I2
sV\u738b\u9510
p2212
I2
sV\u65e0\u8d56
p2213
I2
sV\u60a0\u7136
p2214
I1
sV\u98ce\u6c14
p2215
I1
sV\u786e\u7acb
p2216
I9
sV\u4f9b\u4e0d\u5e94\u6c42
p2217
I1
sV\u7279\u6b8a\u6027
p2218
I1
sV\u7269\u4ef7
p2219
I1
sV\u5149\u8f89
p2220
I3
sV\u72b6\u51b5
p2221
I2
sV\u6a21\u6837
p2222
I1
sV\u5c01\u4fe1
p2223
I1
sV\u4e2d\u5b66
p2224
I10
sV\u51fa\u7248
p2225
I12
sV\u4f18\u826f
p2226
I1
sV\u56de\u5230
p2227
I1
sV\u5360\u5f97
p2228
I1
sV\u5230\u8fbe
p2229
I2
sV\u82cf\u5b81
p2230
I2
sV\u751f\u6daf
p2231
I1
sV\u5b9e\u7269
p2232
I1
sV\u6446\u6b63
p2233
I1
sV\u6df1\u5ea6
p2234
I1
sV\u4e0d\u60dc
p2235
I2
sV\u535a\u5927\u7cbe\u6df1
p2236
I1
sV\u7edf\u4e00
p2237
I23
sV\u4e2d\u56fd\u5e7f\u64ad\u7535\u89c6\u51fa\u7248\u793e
p2238
I1
sV\u9053\u7406
p2239
I9
sV\u5929\u540c
p2240
I1
sV\u5408\u4f5c
p2241
I6
sV\u8fd9\u65b9\u9762
p2242
I1
sV\u66f4\u80dc\u4e8e
p2243
I1
sV\u65b9\u9488\u653f\u7b56
p2244
I3
sV\u53cd\u601d
p2245
I4
sV\u6587\u8981
p2246
I1
sV\u5176\u5fb7
p2247
I1
sV\u5b66\u79d1
p2248
I8
sV\u7f3a\u4e4f
p2249
I3
sV\u5708\u5708\u70b9\u70b9
p2250
I1
sV\u7ecf\u6d4e\u6548\u76ca
p2251
I3
sV\u5434\u51b7\u897f
p2252
I1
sV\u542f\u53d1\u6027
p2253
I1
sV\u7d27\u5bc6
p2254
I6
sV\u5b9a\u5c45
p2255
I3
sV\u8f7b\u89c6
p2256
I2
sV\u534a\u4e2a
p2257
I2
sV\u79bb\u4e0d\u5f00
p2258
I1
sV\u8b66\u89c9
p2259
I3
sV\u7ef4\u62a4
p2260
I2
sV\u6731\u4f2f
p2261
I4
sV\u7530\u56ed
p2262
I1
sV\u9752\u5c11\u5e74
p2263
I1
sV\u5230\u4f1a
p2264
I1
sV\u5218\u4e9a\u697c
p2265
I2
sV\u72ed\u5c0f
p2266
I1
sV\u672c\u6708
p2267
I1
sV\u8ff7\u7cca
p2268
I2
sV\u6000\u7591
p2269
I1
sV\u4fdd\u8bc1
p2270
I8
sV\u5e73\u5747\u4e3b\u4e49
p2271
I1
sV\u6536\u83b7
p2272
I1
sV\u51b3\u5fc3
p2273
I1
sV\u5e73\u5e38\u4eba
p2274
I2
sV\u4eba\u6743
p2275
I2
sV\u8fc7\u7a0b
p2276
I37
sV\u53d1\u626c\u5149\u5927
p2277
I2
sV\u4e13\u5bb6\u5b66\u8005
p2278
I1
sV\u751f\u6d3b
p2279
I33
sV\u51fa\u7248\u754c
p2280
I1
sV\u9762\u4e0a
p2281
I2
sV\u672c\u672c
p2282
I1
sV\u6210\u679c
p2283
I10
sV\u79d1\u6280
p2284
I6
sV\u529b\u5ea6
p2285
I2
sV\u4e0d\u6052
p2286
I1
sV\u8a00\u8bba
p2287
I1
sV\u5c55\u5f00
p2288
I4
sV\u53c2\u8003\u6d88\u606f
p2289
I1
sV\u6d41\u6d3e
p2290
I3
sV\u82f1\u9551
p2291
I1
sV\u53ea\u80fd
p2292
I6
sV\u827a\u672f
p2293
I13
sV\u56db\u5217
p2294
I2
sV\u5168\u519b
p2295
I6
sV\u5b89\u6392
p2296
I3
sV\u63a2\u8ba8
p2297
I4
sV\u9a6c\u514b\u601d\u4e3b\u4e49
p2298
I96
sV\u8c61\u662f
p2299
I1
sV\u53ef\u4fdd
p2300
I1
sV\u9ad8\u7d20\u8d28
p2301
I4
sV\u8d44\u672c\u4e3b\u4e49
p2302
I3
sV\u54f2\u5b66\u601d\u8003
p2303
I1
sV\u672c\u6765
p2304
I1
sV\u52aa\u529b
p2305
I20
sV\u79cd\u79cd
p2306
I1
sV\u5e7d\u9ed8
p2307
I2
sV\u8058\u8bf7
p2308
I1
sV\u738b\u5411
p2309
I1
sV\u77db\u76fe\u8bba
p2310
I2
sV\u767d\u6c42\u6069
p2311
I1
sV\u5927\u7740
p2312
I1
sV\u8001\u540c\u5fd7
p2313
I1
sV\u4ed8\u5370
p2314
I1
sV\u5148\u8fdb
p2315
I4
sV\u793e\u4f1a\u53d1\u5c55
p2316
I7
sV\u738b\u5efa\u6c11
p2317
I1
sV\u590f\u866b
p2318
I1
sV\u793e\u4f1a\u5b66
p2319
I3
sV\u7b80\u660e\u627c\u8981
p2320
I1
sV\u653b\u8bfb
p2321
I1
sV\u6211\u4efb
p2322
I1
sV\u8be5\u4e66
p2323
I14
sV\u738b\u97ec
p2324
I1
sV\u65b0\u6c11\u4e3b\u4e3b\u4e49\u9769\u547d
p2325
I2
sV\u6211\u4ee5
p2326
I2
sV\u51e0\u6bb5
p2327
I1
sV\u80e1\u987b
p2328
I1
sV\u65e0\u8fb9
p2329
I1
sV\u5fc5\u4fee\u8bfe
p2330
I1
sV\u6297\u6218
p2331
I2
sV\u96be\u9898
p2332
I10
sV\u5b57\u6765
p2333
I1
sV\u5931\u9677
p2334
I1
sV\u5e7f\u5dde\u519b\u533a\u7a7a\u519b
p2335
I1
sV\u6539\u9769\u5f00\u653e
p2336
I18
sV\u4ed6\u4f5c
p2337
I1
sV\u5ba3\u8a00
p2338
I1
sV\u660e\u4e86
p2339
I2
sV\u6548\u7387
p2340
I2
sV\u6240\u60f3
p2341
I4
sV\u594b\u53d1\u56fe\u5f3a
p2342
I1
sV\u5965\u79d8
p2343
I6
sV\u4e0b\u51b3\u5fc3
p2344
I1
sV\u751f\u4ea7
p2345
I13
sV\u521b\u9020\u7269
p2346
I2
sV\u884c\u8fdb
p2347
I2
sV\u5f62\u800c\u4e0a\u5b66
p2348
I35
sV\u4e00\u5c42
p2349
I2
sV\u800c\u6765
p2350
I1
sV\u4e3b\u7ebf
p2351
I2
sV\u5f55\u97f3
p2352
I2
sV\u542c\u53d6
p2353
I1
sV\u5206\u88c2
p2354
I6
sV\u659f\u914c
p2355
I1
sV\u51c0\u5316
p2356
I3
sV\u5b89\u800c
p2357
I1
sV\u5218\u4e1c
p2358
I2
sV\u56f0\u96be
p2359
I3
sV\u6e05\u9192
p2360
I1
sV\u6709\u8d56\u4e8e
p2361
I1
sV\u82f1\u56fd
p2362
I8
sV\u62d8\u6ce5
p2363
I1
sV\u4e24\u4f1a
p2364
I1
sV\u8303\u6587\u6f9c
p2365
I1
sV\u4e3b\u89c2\u6027
p2366
I2
sV\u5bb6\u4f20
p2367
I1
sV\u7269\u7406\u5b66\u5bb6
p2368
I2
sV\u6587\u5b66\u827a\u672f
p2369
I1
sV\u9c81\u8fc5
p2370
I1
sV\u5df2\u65e0\u8d27
p2371
I1
sV\u519c\u6751
p2372
I6
sV\u63d0\u51fa
p2373
I38
sV\u4e8c\u662f
p2374
I8
sV\u70e7\u707c
p2375
I1
sV\u6d88\u8017
p2376
I2
sV\u8d1f\u8d23\u5236
p2377
I2
sV\u8c61\u6570
p2378
I1
sV\u505a\u597d
p2379
I1
sV\u7cfb\u7edf\u6027
p2380
I1
sV\u9001\u8fd8
p2381
I1
sV\u53d1\u6e90\u5730
p2382
I2
sV\u4f59\u5e74\u6765
p2383
I1
sV\u5143\u4ea8
p2384
I1
sV\u552f\u7269
p2385
I2
sV\u5389\u58f0
p2386
I1
sV\u5e7f\u9614
p2387
I2
sV\u5927\u81ea\u7136
p2388
I3
sV\u8d2f\u7a7f
p2389
I2
sV\u6c47\u62a5
p2390
I1
sV\u7cbe\u660e
p2391
I1
sV\u8d2b\u7a77
p2392
I1
sV\u6ecb\u751f
p2393
I2
sV\u59d4\u5458\u4f1a
p2394
I1
sV\u5168\u5fc3\u5168\u610f
p2395
I7
sV\u539f\u8bdd
p2396
I1
sV\u5229\u5df2
p2397
I3
sV\u53e4\u8463
p2398
I1
sV\u7269\u8d28
p2399
I17
sV\u6297\u62d2
p2400
I1
sV\u793e\u79d1\u8054
p2401
I1
sV\u4f55\u6765
p2402
I2
sV\u521b\u4f5c
p2403
I18
sV\u6ecb\u957f
p2404
I1
sV\u4e3b\u5e2d
p2405
I30
sV\u4eba\u4e16\u95f4
p2406
I1
sV\u63d0\u9192
p2407
I2
sV\u4e89\u8bba
p2408
I4
sV\u52e4\u594b
p2409
I1
sV\u5df2\u53bb
p2410
I1
sV\u601d\u60f3\u754c
p2411
I3
sV\u5404\u7701
p2412
I1
sV\u5185\u5bb9
p2413
I17
sV\u6218\u7ebf
p2414
I2
sV\u5bfc\u8a00
p2415
I2
sV\u589e\u52a0
p2416
I3
sV\u6b63\u9014
p2417
I1
sV\u672c\u4f53\u8bba
p2418
I6
sV\u597d\u51e0
p2419
I3
sV\u672c\u6587
p2420
I6
sV\u77ed\u6587
p2421
I1
sV\u4e13\u957f
p2422
I2
sV\u51e0\u5e74
p2423
I1
sV\u4e24\u70b9\u8bba
p2424
I3
sV\u98de\u821f
p2425
I1
sV\u4efb\u7ee7\u6108
p2426
I4
sV\u5360\u7528
p2427
I2
sV\u6742\u9648
p2428
I1
sV\u8bc1\u660e
p2429
I5
sV\u5632\u5f04
p2430
I2
sV\u5206\u884c\u4e1a
p2431
I1
sV\u6570\u5341
p2432
I1
sV\u5143\u4f1f
p2433
I1
sV\u9762\u7eb1
p2434
I1
sV\u8bb0\u8005
p2435
I15
sV\u6295\u5165
p2436
I3
sV\u53d1\u8a00\u6743
p2437
I1
sV\u5fc3\u5f97
p2438
I1
sV\u63a8\u8fdb
p2439
I5
sV\u793e\u4f1a
p2440
I82
sV\u5218\u4f69
p2441
I2
sV\u4e4b\u5206
p2442
I2
sV\u6545\u4e8b\u65b0\u7f16
p2443
I1
sV\u65b9\u4e1c\u7f8e
p2444
I2
sV\u517b\u6599
p2445
I1
sV\u8bfb\u4e66\u70ed
p2446
I2
sV\u6c38\u5eb7
p2447
I1
sV\u6267\u6559
p2448
I1
sV\u5ba1\u7f8e
p2449
I2
sV\u793e\u4f1a\u79d1\u5b66
p2450
I46
sV\u4e3a\u671f
p2451
I1
sV\u6cdb\u6ee5
p2452
I1
sV\u53ef\u8d35
p2453
I3
sV\u8ba9\u6c11\u613f
p2454
I2
sV\u5b66\u672f\u8ba8\u8bba
p2455
I2
sV\u4e24\u4e2a
p2456
I12
sV\u56f4\u5899
p2457
I2
sV\u6b64\u4e66
p2458
I1
sV\u5bfc\u8bba
p2459
I2
sV\u547c\u5524
p2460
I2
sV\u63d0\u5021
p2461
I7
sV\u5426\u8ba4
p2462
I2
sV\u6302\u9760
p2463
I1
sV\u7701\u529b
p2464
I2
sV\u6d3b\u52a8
p2465
I26
sV\u8bba\u8ff0
p2466
I27
sV\u53d1\u626c
p2467
I5
sV\u9ad8\u7b49\u6559\u80b2\u51fa\u7248\u793e
p2468
I2
sV\u52a8\u529b
p2469
I3
sV\u9003\u8d70
p2470
I2
sV\u9f13\u821e
p2471
I2
sV\u4e24\u4e09
p2472
I1
sV\u4e2d\u592e
p2473
I8
sV\u65e0\u4ece
p2474
I1
sV\u6587\u8bba
p2475
I1
sV\u4f9d\u5366\u8c61
p2476
I1
sV\u79bb\u5f00
p2477
I1
sV\u8d85\u5e38
p2478
I1
sV\u5170\u95ee
p2479
I1
sV\u6210\u6548
p2480
I1
sV\u77e5\u5316
p2481
I2
sV\u666e\u9002\u6027
p2482
I1
sV\u592a\u6781
p2483
I2
sV\u6c11\u5175
p2484
I1
sV\u56fd\u9632
p2485
I3
sV\u7740\u624b
p2486
I1
sV\u5168\u65b0
p2487
I2
sV\u7edf\u6cbb\u533a
p2488
I1
sV\u6211\u51b3
p2489
I1
sV\u6279\u8bc4
p2490
I6
sV\u6392\u65a5
p2491
I2
sV\u4eba\u751f\u89c2
p2492
I8
sV\u9093\u5e7f\u6885
p2493
I1
sV\u798f\u7978
p2494
I1
sV\u6839\u6df1\u8482\u56fa
p2495
I2
sV\u5b54\u5b5f
p2496
I2
sV\u8282\u7ea6
p2497
I6
sV\u4e2d\u4f53\u897f\u7528
p2498
I2
sV\u4e3e\u529e
p2499
I7
sV\u7279\u5f81
p2500
I9
sV\u4ee4\u4eba\u9f13\u821e
p2501
I1
sV\u4e1c\u897f\u90e8
p2502
I2
sV\u6307\u5bfc
p2503
I36
sV\u6b63\u89c6
p2504
I2
sV\u4ece\u5546
p2505
I1
sV\u65e0\u4e0d
p2506
I3
sV\u90a2\u4e16\u5fe0
p2507
I1
sV\u751f\u4ea7\u529b
p2508
I8
sV\u8bb2\u8bdd
p2509
I16
sV\u610f\u5fd7
p2510
I6
sV\u5f15\u4eba\u6ce8\u76ee
p2511
I1
sV\u9274\u522b\u529b
p2512
I1
sV\u7d27\u8feb\u6027
p2513
I1
sV\u9009\u5b66
p2514
I2
sV\u8054\u5408
p2515
I5
sV\u4e4b\u52e4
p2516
I1
sV\u5bf9\u8c61
p2517
I4
sV\u652f\u6301
p2518
I5
sV\u8fd1\u4ee3
p2519
I7
sV\u4e24\u4eba
p2520
I1
sV\u8fdb\u4e00\u6b65
p2521
I10
sV\u65e0\u6127\u4e8e
p2522
I1
sV\u6b3a\u9a97\u6027
p2523
I1
sV\u5f71\u54cd
p2524
I14
sV\u6240\u611f
p2525
I2
sV\u7ffb\u5929\u8986\u5730
p2526
I1
sV\u5b66\u5b50
p2527
I1
sV\u559c\u5176\u6587
p2528
I1
sV\u4e3b\u7f16
p2529
I1
sV\u5efa\u6784
p2530
I4
sV\u6311\u6218
p2531
I3
sV\u5357\u4eac
p2532
I1
sV\u9ec4\u94a2
p2533
I1
sV\u7e41\u4e3a
p2534
I1
sV\u56fd\u9645
p2535
I15
sV\u4fc3\u4f7f
p2536
I1
sV\u72ec\u5230
p2537
I2
sV\u5de7\u8a00
p2538
I1
sV\u4e3a\u4eba\u6c11\u670d\u52a1
p2539
I8
sV\u4e66\u7c4d
p2540
I3
sV\u5b66\u672f\u89c2\u70b9
p2541
I5
sV\u56f0\u60d1
p2542
I3
sV\u5206\u6587\u4e0d\u53d6
p2543
I1
sV\u5e38\u663e\u5947
p2544
I1
sV\u6d1e\u5bdf
p2545
I2
sV\u95ee\u5b66\u4e8e
p2546
I1
sV\u6743\u5a01
p2547
I2
sV\u6df1\u539a
p2548
I3
sV\u81ea\u5b66
p2549
I1
sV\u7eb2\u8981
p2550
I4
sV\u804c\u79f0
p2551
I1
sV\u73b0\u6709
p2552
I1
sV\u5f20\u6c38
p2553
I1
sV\u5c38\u4e8e
p2554
I1
sV\u4e2a\u522b\u4eba
p2555
I1
sV\u5434\u5bb6
p2556
I1
sV\u7535\u5f71
p2557
I1
sV\u674e\u745e\u73af
p2558
I1
sV\u5386\u53f2\u552f\u7269\u8bba
p2559
I1
sV\u79d8\u4e66\u957f
p2560
I1
sV\u6b23\u559c
p2561
I1
sV\u5b9e\u4e8b\u6c42\u662f
p2562
I19
sV\u51fa\u9f50
p2563
I1
sV\u758f\u52d2
p2564
I1
sV\u8d70\u5411
p2565
I10
sV\u7ba1\u7406\u4f53\u5236
p2566
I1
sV\u6ca6\u4e3a
p2567
I1
sV\u9274\u6212
p2568
I1
sV\u5bb3\u6015
p2569
I1
sV\u5f53\u5e74
p2570
I1
sV\u9ed1\u8272
p2571
I3
sV\u725b\u6d25\u5927\u5b66
p2572
I4
sV\u6760\u6746
p2573
I2
sV\u7b5b\u9009
p2574
I1
sV\u89c6\u5bdf
p2575
I1
sV\u7b2c\u56db
p2576
I2
sV\u6458\u5f55
p2577
I1
sV\u9694\u7edd
p2578
I1
sV\u4f7f\u6bdb
p2579
I1
sV\u6001\u5ea6
p2580
I8
sV\u9ad8\u5c4b\u5efa\u74f4
p2581
I1
sV\u6587\u827a\u5de5\u4f5c\u8005
p2582
I2
sV\u5343\u65b9\u767e\u8ba1
p2583
I2
sV\u9002\u65f6
p2584
I1
sV\u5e74\u524d
p2585
I2
sV\u7acb\u5fd7
p2586
I1
sV\u603b\u7684
p2587
I1
sV\u76f8\u4e92
p2588
I16
sV\u8bfe\u5802
p2589
I2
sV\u5bf9\u4e0d\u4e0a
p2590
I1
sV\u8d23\u4efb\u611f
p2591
I5
sV\u5243\u6389
p2592
I1
sV\u9769\u547d
p2593
I20
sV\u540d\u6b63
p2594
I1
sV\u4e98\u53e4\u672a\u6709
p2595
I1
sV\u5e76\u8f68
p2596
I1
sV\u62d6\u6ce5\u5e26\u6c34
p2597
I1
sV\u6977\u672c
p2598
I1
sV\u94bb\u51ff
p2599
I1
sV\u6587\u6458
p2600
I1
sV\u4e94\u662f
p2601
I1
sV\u62bd\u8c61
p2602
I2
sV\u5c71\u897f
p2603
I1
sV\u6bcd\u4eb2
p2604
I2
sV\u539f\u6587
p2605
I4
sV\u6cb9\u5370
p2606
I2
sV\u751f\u8005
p2607
I2
sV\u8870\u843d
p2608
I1
sV\u4e00\u52a0
p2609
I2
sV\u56fd\u5916
p2610
I1
sV\u5b54\u745b
p2611
I1
sV\u800c\u8981
p2612
I1
sV\u5ea7\u8c08
p2613
I6
sV\u6c88\u9633\u519b\u533a
p2614
I1
sV\u7cca\u996d
p2615
I1
sV\u6559\u80b2\u5bb6
p2616
I1
sV\u5b66\u7406
p2617
I3
sV\u7ec4\u5bf9
p2618
I1
sV\u4e2d\u56fd
p2619
I190
sV\u5236\u5b9a
p2620
I4
sV\u5e76\u4f5c
p2621
I1
sV\u5e74\u4ee3
p2622
I2
sV\u5224\u65ad
p2623
I5
sV\u56fd\u9645\u653f\u6cbb
p2624
I1
sV\u6d2a\u6c34
p2625
I1
sV\u751f\u4ea7\u529b\u6807\u51c6
p2626
I3
sV\u6742\u5fd7\u793e
p2627
I2
sV\u8d3a\u4fe1
p2628
I1
sV\u8349\u6848
p2629
I1
sV\u51fa\u5e2d\u4f1a\u8bae
p2630
I1
sV\u60f3\u50cf
p2631
I6
sV\u5272\u65ad
p2632
I2
sV\u5b98\u6c11
p2633
I5
sV\u8bfe\u9898
p2634
I3
sV\u962e\u7ae0\u7ade
p2635
I1
sV\u7cbe\u795e\u751f\u6d3b
p2636
I2
sV\u5b66\u5458
p2637
I5
sV\u4eba\u5747
p2638
I4
sV\u81ea\u53d1
p2639
I2
sV\u8f83\u5f3a
p2640
I2
sV\u8d35\u9633\u94c1\u8def\u5206\u5c40
p2641
I1
sV\u542f\u793a
p2642
I2
sV\u4e09\u662f
p2643
I4
sV\u5de8\u7740
p2644
I2
sV\u878d\u901a
p2645
I8
sV\u5708\u5730
p2646
I4
sV\u660e\u767d
p2647
I5
sV\u5206\u6790
p2648
I18
sV\u68c0\u67e5
p2649
I1
sV\u91cd\u8d22
p2650
I2
sV\u6539\u6b63
p2651
I1
sV\u524d\u6bb5
p2652
I1
sV\u5e94\u673a
p2653
I2
sV\u9510\u5229
p2654
I3
sV\u51e0\u767e\u4e07
p2655
I1
sV\u9093\u5c0f\u5e73\u7406\u8bba
p2656
I9
sV\u4f53\u4f1a
p2657
I6
sV\u4e0b\u6d41
p2658
I2
sV\u5e74\u8f7b
p2659
I2
sV\u8bb2\u8bb2
p2660
I1
sV\u7ecf\u5386
p2661
I5
sV\u653f\u59d4
p2662
I4
sV\u8fdc\u79bb
p2663
I2
sV\u80fd\u529b
p2664
I13
sV\u7384\u5999
p2665
I1
sV\u5bf9\u6297
p2666
I23
sV\u4e00\u5343
p2667
I2
sV\u6559\u6761\u4e3b\u4e49
p2668
I2
sV\u770b\u8fc7
p2669
I1
sV\u7b80\u8bc4
p2670
I2
sV\u7814\u7a76\u4f1a
p2671
I9
sV\u4e00\u534a
p2672
I1
sV\u6674\u6717
p2673
I1
sV\u6881\u6f31\u6e9f
p2674
I2
sV\u5b57\u6570
p2675
I1
sV\u82e6\u607c
p2676
I1
sV\u4e94\u67f3
p2677
I1
sV\u5b87\u5b99
p2678
I8
sV\u5b8c\u5907
p2679
I1
sV\u8695\u8327
p2680
I1
sV\u51fa\u8584\u4e66
p2681
I1
sV\u5197\u5458
p2682
I1
sV\u4f1a\u8bae
p2683
I5
sV\u5165\u4e8e
p2684
I1
sV\u4e00\u5366
p2685
I1
sV\u5c42\u6b21
p2686
I2
sV\u56db\u767e
p2687
I1
sV\u8bb2\u8bfe
p2688
I11
sV\u540d\u8a89
p2689
I1
sV\u674e\u653f\u9053
p2690
I1
sV\u6f14\u594f
p2691
I1
sV\u5468\u514b\u7389
p2692
I1
sV\u793e\u4f1a\u8d23\u4efb
p2693
I2
sV\u5371\u9669
p2694
I1
sV\u53ea\u6c42
p2695
I2
sV\u60cb\u60dc
p2696
I2
sV\u79ef\u6781\u6027
p2697
I1
sV\u72b9\u8c6b
p2698
I1
sV\u6709\u6c42\u4e8e
p2699
I1
sV\u9009\u9898
p2700
I1
sV\u519b\u519b
p2701
I1
sV\u738b\u8fdb\u559c
p2702
I1
sV\u9ad8\u4e2d\u7ea7
p2703
I4
sV\u5168\u6bb5
p2704
I1
sV\u4e2d\u534e\u6c11\u65cf
p2705
I3
sV\u62db\u724c
p2706
I1
sV\u5eb7\u59c6
p2707
I1
sV\u533a\u7684
p2708
I1
sV\u6df1\u523b
p2709
I14
sV\u56fd\u9632\u79d1\u5de5\u59d4
p2710
I1
sV\u4e00\u73af
p2711
I1
sV\u6954\u5b50
p2712
I2
sV\u5b66\u751f
p2713
I23
sV\u8fdc\u5927
p2714
I2
sV\u8270\u82e6
p2715
I1
sV\u5c16\u5175
p2716
I2
sV\u4e2d\u56fd\u5927\u767e\u79d1\u5168\u4e66\u51fa\u7248\u793e
p2717
I1
sV\u4e09\u6761
p2718
I2
sV\u7701\u5c5e
p2719
I1
sV\u7406\u8bba\u5b66\u4e60
p2720
I1
sV\u89c1\u5229\u5fd8\u4e49
p2721
I1
sV\u63d0\u7eb2
p2722
I2
sV\u8c08\u8bdd
p2723
I1
sV\u758f\u5bfc
p2724
I1
sV\u542b\u6709
p2725
I1
sV\u9648\u4e2d
p2726
I1
sV\u4e13\u5bb6
p2727
I1
sV\u6b66\u88c5\u90e8
p2728
I5
sV\u6821\u9886\u5bfc
p2729
I1
sV\u5927\u5b66
p2730
I2
sV\u515a\u5458
p2731
I8
sV\u73cd\u60dc
p2732
I1
sV\u57fa\u672c\u529f
p2733
I1
sV\u9662\u957f
p2734
I2
sV\u5e7b\u706d
p2735
I2
sV\u7fd4\u5b9e
p2736
I2
sV\u6307\u6807
p2737
I1
sV\u53f0\u9636
p2738
I1
sV\u653f\u6cbb\u5bb6
p2739
I3
sV\u9886\u5bfc
p2740
I34
sV\u4e0d\u8c0b
p2741
I2
sV\u5174\u8da3
p2742
I1
sV\u5927\u52a8\u809d\u706b
p2743
I1
sV\u52fe\u52d2
p2744
I1
sV\u4e1d\u6beb
p2745
I1
sV\u4eba\u5fc3\u6240\u5411
p2746
I1
sV\u7279\u522b
p2747
I15
sV\u56fd\u5bb6
p2748
I36
sV\u552f\u7269\u4e3b\u4e49
p2749
I21
sV\u5c0f\u5b66
p2750
I1
sV\u81ea\u7136
p2751
I25
sV\u8eab\u5b89\u800c
p2752
I1
sV\u6765\u4fe1
p2753
I1
sV\u53d1\u6325
p2754
I4
sV\u4eba\u58eb
p2755
I1
sV\u6cbb\u5b66
p2756
I1
sV\u539f\u6709
p2757
I1
sV\u54ea\u4e00\u4f4d
p2758
I1
sV\u9009\u96c6
p2759
I3
sV\u8f9e\u5178
p2760
I3
sV\u503c\u5f97
p2761
I8
sV\u539f\u5219
p2762
I26
sV\u4e2d\u82f1\u6587
p2763
I1
sV\u8bfb\u4e00\u8bfb
p2764
I1
sV\u4ea7\u4e1a
p2765
I4
sV\u591a\u4efd
p2766
I1
sV\u575a\u6301\u515a
p2767
I1
sV\u6c47\u62a5\u4f1a
p2768
I4
sV\u6267\u884c
p2769
I5
sV\u56db\u4e66
p2770
I1
sV\u6548\u679c
p2771
I2
sV\u4e0b\u4e2a
p2772
I3
sV\u810a\u9ad3
p2773
I2
sV\u6c42\u5168\u8d23\u5907
p2774
I1
sV\u5927\u90e8\u5206
p2775
I1
sV\u7f16\u5199
p2776
I4
sV\u5b9a\u5176\u4ea4
p2777
I1
sV\u89c4\u5212
p2778
I2
sV\u7701\u59d4\u4e66\u8bb0
p2779
I1
sV\u5b97\u6559
p2780
I7
sV\u5de5\u4f5c\u8005
p2781
I14
sV\u53ea\u4f5c
p2782
I2
sV\u7406\u8bba\u524d\u6cbf
p2783
I1
sV\u5185\u5728
p2784
I6
sV\u4ee5\u56db\u9879
p2785
I1
sV\u73bb\u5c14
p2786
I2
sV\u65e5\u8005
p2787
I1
sV\u8881\u6728
p2788
I1
sV\u57fa\u7840\u5efa\u8bbe
p2789
I1
sV\u59cb\u7ec8
p2790
I5
sV\u91cd\u4e49
p2791
I2
sV\u4e2d\u592e\u519b\u59d4
p2792
I1
sV\u4ea4\u4e86
p2793
I1
sV\u8bfe\u7a0b
p2794
I2
sV\u8d4f\u7f5a
p2795
I2
sV\u591a\u4eba
p2796
I5
sV\u5f6a\u70b3\u53f2\u518c
p2797
I1
sV\u53ef\u6076
p2798
I2
sV\u56e2\u5458
p2799
I1
sV\u707f\u70c2
p2800
I2
sV\u6613\u8005
p2801
I1
sV\u65f6\u523b
p2802
I1
sV\u4eba\u7528
p2803
I1
sV\u7269\u6781\u5fc5\u53cd
p2804
I1
sV\u8fc7\u9519
p2805
I2
sV\u7f3a\u61be
p2806
I1
sV\u8d56\u5c14
p2807
I1
sV\u4e1a\u4f59
p2808
I2
sV\u4fee\u8f9e\u5b66
p2809
I1
sV\u7740\u4f5c
p2810
I28
sV\u56f0\u6270
p2811
I4
sV\u89c2\u5bdf
p2812
I4
sV\u5730\u533a
p2813
I7
sV\u4faf\u6811\u680b
p2814
I1
sV\u5168\u9762\u6027
p2815
I1
sV\u7ecf\u4e0d\u4f4f
p2816
I1
sV\u53f0\u957f
p2817
I1
sV\u539f\u5b50\u5f39
p2818
I3
sV\u6839\u672c\u6027
p2819
I2
sV\u4eba\u751f
p2820
I2
sV\u975e\u5747\u8861
p2821
I4
sV\u5404\u65b9
p2822
I1
sV\u4e00\u70b9
p2823
I2
sV\u8eaf\u58f3
p2824
I1
sV\u65e0\u4ea7\u9636\u7ea7
p2825
I2
sV\u6c14\u9981
p2826
I2
sV\u4e0d\u5fd8\u5371
p2827
I1
sV\u5404\u65cf
p2828
I4
sV\u5e15\u7c73\u5c14\u9ad8\u539f
p2829
I1
sV\u51e0\u6761
p2830
I1
sV\u8d44\u4ea7\u9636\u7ea7
p2831
I1
sV\u53cc\u5411
p2832
I1
sV\u8015\u5730
p2833
I1
sV\u8fd1\u5341
p2834
I1
sV\u53d1\u4fe1
p2835
I18
sV\u5b66\u9662
p2836
I9
sV\u53ef\u60dc
p2837
I1
sV\u6559\u80b2\u957f
p2838
I1
sV\u6587\u660e
p2839
I25
sV\u529b\u91cf
p2840
I15
sV\u628a\u5b66
p2841
I2
sV\u91cd\u4efb
p2842
I3
sV\u4e4b\u7ffc
p2843
I1
sV\u601d\u7ef4
p2844
I41
sV\u529f\u80fd
p2845
I2
sV\u4e13\u9898
p2846
I2
sV\u4e00\u90e8
p2847
I8
sV\u5b97\u65e8
p2848
I3
sV\u591a\u4e3a
p2849
I1
sV\u8ffd\u6c42
p2850
I6
sV\u97e9\u4f5c\u9ece
p2851
I1
sV\u603b\u540e
p2852
I3
sV\u6f5c\u5fc3
p2853
I1
sV\u66b4\u541b
p2854
I2
sV\u793c\u8bb0
p2855
I1
sV\u96c6\u56e2\u519b
p2856
I3
sV\u96c5\u5404
p2857
I1
sV\u4e24\u70b9
p2858
I2
sV\u552f\u5fc3
p2859
I2
sV\u5de6\u4f20
p2860
I2
sV\u6df1\u9083
p2861
I1
sV\u9769\u547d\u6218\u4e89
p2862
I1
sV\u4e49\u548c
p2863
I1
sV\u5386\u53f2\u6027
p2864
I3
sV\u5f6d\u771f
p2865
I1
sV\u54f2\u7b49
p2866
I2
sV\u8d77\u70b9
p2867
I3
sV\u9662\u6821
p2868
I3
sV\u4e9a\u91cc\u58eb\u591a\u5fb7
p2869
I1
sV\u4ee5\u5b9e
p2870
I2
sV\u5f3a\u8005
p2871
I4
sV\u751f\u6d3b\u65b9\u5f0f
p2872
I2
sV\u65e0\u7269
p2873
I2
sV\u597d\u5904
p2874
I1
sV\u54f2\u5b66
p2875
I384
sV\u94c1\u5408\u91d1
p2876
I1
sV\u5728\u804c
p2877
I1
sV\u8d70\u5411\u4e16\u754c
p2878
I1
sV\u8bfb\u540e
p2879
I2
sV\u8d2d\u4e70
p2880
I1
sV\u73b0\u9636\u6bb5
p2881
I1
sV\u51fa\u53d1\u70b9
p2882
I1
sV\u4fe1\u4e2d
p2883
I1
sV\u5199\u8fc7
p2884
I1
sV\u6df1\u5165\u4eba\u5fc3
p2885
I1
sV\u51fa\u51e0\u9879
p2886
I1
sV\u4e50\u8da3
p2887
I1
sV\u653f\u6cbb\u5904
p2888
I1
sV\u770b\u505a
p2889
I6
sV\u8fde\u7ef5\u4e0d\u7edd
p2890
I1
sV\u5b8c\u7a3f
p2891
I1
sV\u589e\u5f3a
p2892
I4
sV\u7406\u5ff5
p2893
I4
sV\u5199\u4fe1
p2894
I1
sV\u4e00\u516b
p2895
I1
sV\u4e2d\u7528
p2896
I2
sV\u5374\u662f
p2897
I5
sV\u53d8\u76f8
p2898
I1
sV\u8d44\u6e90\u73af\u5883
p2899
I4
sV\u5a5a\u59fb
p2900
I4
sV\u6bd4\u55bb
p2901
I1
sV\u6d89\u53ca
p2902
I3
sV\u6765\u6e90
p2903
I1
sV\u522b\u6709\u6d1e\u5929
p2904
I1
sV\u53ef\u618e
p2905
I2
sV\u594f\u51fa
p2906
I1
sV\u9636\u7ea7\u6597\u4e89
p2907
I3
sV\u4e2d\u592e\u515a\u6821
p2908
I2
sV\u8d39\u7528
p2909
I1
sV\u8f6e\u6d41
p2910
I1
sV\u4e00\u518d
p2911
I2
sV\u4fe1\u4ef0
p2912
I2
sV\u591a\u4f59
p2913
I1
sV\u80e1\u95f9
p2914
I2
sV\u5438\u6536
p2915
I2
sV\u903b\u8f91\u63a8\u7406
p2916
I1
sV\u65e5\u81f3
p2917
I1
sV\u7ec8\u751f
p2918
I1
sV\u5e38\u6709
p2919
I1
sV\u6c11\u4e3b\u4e3b\u4e49
p2920
I2
sV\u5f53\u597d
p2921
I3
sV\u66f4\u662f
p2922
I3
sV\u65b0\u4eba
p2923
I1
sV\u653f\u7b56
p2924
I8
sV\u63a8\u8350
p2925
I3
sV\u6539\u89c2
p2926
I1
sV\u6df1\u9020
p2927
I1
sV\u6025\u9700
p2928
I1
sV\u5f53\u4ee3\u4e2d\u56fd\u51fa\u7248\u793e
p2929
I2
sV\u6613\u61c2
p2930
I1
sV\u4f20\u7edf
p2931
I23
sV\u51cf\u5c11
p2932
I4
sV\u5efa\u8bae
p2933
I4
sV\u516c\u800c\u5fd8\u79c1
p2934
I1
sV\u5f52\u7eb3
p2935
I1
sV\u7956\u5148
p2936
I5
sV\u8521\u5584\u6b66
p2937
I1
sV\u5efa\u8bbe
p2938
I138
sV\u679d\u7e41
p2939
I1
sV\u8270\u6df1
p2940
I1
sV\u7ecf\u5178
p2941
I5
sV\u4e0b\u8fb9
p2942
I1
sV\u4e0d\u6e05
p2943
I2
sV\u6216\u8005\u8bf4
p2944
I5
sV\u51ac\u65e5
p2945
I1
sV\u604b\u60c5
p2946
I1
sV\u81ea\u79c1\u81ea\u5229
p2947
I1
sV\u9762\u524d
p2948
I2
sV\u98ce\u8303
p2949
I1
sV\u5171\u4ea7\u515a\u4eba
p2950
I1
sV\u6982\u5ff5
p2951
I11
sV\u5206\u6563
p2952
I1
sV\u4eba\u5458
p2953
I3
sV\u4e09\u652f
p2954
I1
sV\u6bd2\u54c1\u95ee\u9898
p2955
I1
sV\u552f\u7269\u8bba
p2956
I2
sV\u804c\u5de5
p2957
I5
sV\u57f9\u8bad
p2958
I5
sV\u5927\u7eb2
p2959
I3
sV\u53bf\u957f
p2960
I2
sV\u79c1\u6709
p2961
I2
sV\u7d20\u8d28
p2962
I11
sV\u5b8b\u5b66\u6625
p2963
I1
sV\u5256\u6790
p2964
I4
sV\u9093\u5c0f\u5e73
p2965
I78
sV\u901d\u4e16
p2966
I1
sV\u53e4\u4eba
p2967
I2
sV\u6050\u60e7
p2968
I1
sV\u8bc4\u4ef7
p2969
I4
sV\u4eba\u53bb
p2970
I2
sV\u81f4\u529b\u4e8e
p2971
I1
sV\u7ecf\u6d4e\u4f53\u5236
p2972
I7
sV\u53d1\u5c55\u6218\u7565
p2973
I12
sV\u4e4b\u5904
p2974
I1
sV\u4e2d\u56fd\u7ecf\u6d4e
p2975
I1
sV\u9ad8\u5ea6
p2976
I16
sV\u77db\u76fe
p2977
I21
sV\u5e26\u56de
p2978
I1
sV\u5ba3\u4f20\u6559\u80b2
p2979
I2
sV\u4e00\u9633
p2980
I3
sV\u6e0a\u85ae
p2981
I2
sV\u4e4b\u5916
p2982
I2
sV\u4e00\u9634
p2983
I3
sV\u6587\u60e0
p2984
I1
sV\u7b14\u8005
p2985
I2
sV\u65b9\u6cd5
p2986
I39
sV\u751f\u529b\u519b
p2987
I1
sV\u6821\u6b63
p2988
I1
sV\u5e03\u5c40
p2989
I2
sV\u679c\u5b9e
p2990
I2
sV\u975e\u9ed1
p2991
I2
sV\u666f\u6292\u5c55
p2992
I2
sV\u56de\u7b54
p2993
I2
sV\u53e4\u4ee3
p2994
I7
sV\u4eba\u53e3
p2995
I2
sV\u51fa\u7b3c
p2996
I1
sV\u611f\u6027
p2997
I6
sV\u56db\u5ddd
p2998
I1
sV\u5341\u56db
p2999
I8
sV\u5168\u4e66
p3000
I2
sV\u7c97\u7565
p3001
I1
sV\u7075\u9b42
p3002
I2
sV\u53c2\u52a0
p3003
I22
sV\u4ece\u6765\u4e0d
p3004
I1
sV\u6c5f\u82cf\u7701\u793e\u79d1\u9662
p3005
I1
sV\u6c1b\u56f4
p3006
I1
sV\u4ec5\u6b64
p3007
I1
sV\u6797\u5f6a
p3008
I3
sV\u51fa\u53d1
p3009
I7
sV\u5f0a\u7aef
p3010
I1
sV\u6de1\u5316
p3011
I2
sV\u843d\u540e
p3012
I2
sV\u4e00\u767e
p3013
I1
sV\u51b2\u7a81
p3014
I4
sV\u5362\u4e4b\u8d85
p3015
I1
sV\u4ee4\u4eba
p3016
I2
sV\u6279\u6ce8
p3017
I1
sV\u7eaa\u5ff5
p3018
I1
sV\u95ea\u73b0
p3019
I2
sV\u5938\u5927
p3020
I1
sV\u662f\u975e
p3021
I3
sV\u6c14\u52bf\u78c5\u7934
p3022
I1
sV\u533b\u5b66
p3023
I1
sV\u9b4f\u4fca\u7ae0
p3024
I2
sV\u5173\u6000
p3025
I1
sV\u5b9d\u8d35
p3026
I1
sV\u56fd\u52a1\u9662
p3027
I3
sV\u6b66\u8b66\u90e8\u961f
p3028
I2
sV\u7ee7\u627f
p3029
I7
sV\u5f3a\u8feb
p3030
I6
sV\u56fd\u9645\u5171\u4ea7\u4e3b\u4e49\u8fd0\u52a8
p3031
I1
sV\u4ee5\u6570
p3032
I2
sV\u83b7\u53d6
p3033
I1
sV\u521b\u9020
p3034
I43
sV\u80fd\u7701
p3035
I1
sV\u8d28\u91cf
p3036
I9
sV\u5341\u4e8c\u5927
p3037
I6
sV\u6797\u8bed\u5802
p3038
I1
sV\u5927\u5e08
p3039
I1
sV\u91d1\u53f0
p3040
I1
sV\u7eb5\u961f
p3041
I2
sV\u624b\u5de5
p3042
I7
sV\u5305\u62ec
p3043
I6
sV\u5f03\u6587
p3044
I1
sV\u6cb3\u5357\u7701\u59d4\u7ec4\u7ec7\u90e8
p3045
I1
sV\u5149\u6656
p3046
I1
sV\u65e0\u6570
p3047
I2
sV\u6587\u724d\u4e3b\u4e49
p3048
I3
sV\u8d2f\u901a
p3049
I1
sV\u5076\u7136
p3050
I1
sV\u6e56\u5357
p3051
I2
sV\u884c\u653f
p3052
I2
sV\u5c1d\u5230
p3053
I1
sV\u672c\u4e66
p3054
I11
sV\u4e00\u4e66
p3055
I10
sV\u4e0d\u53ef\u601d\u8bae
p3056
I1
sV\u662f\u5728
p3057
I9
sV\u5206\u6279
p3058
I2
sV\u7acb\u7b49
p3059
I1
sV\u9ad8\u7ea7\u4eba\u624d
p3060
I1
sV\u5c71\u4e1c\u7701
p3061
I2
sV\u8521\u5bb6\u950b
p3062
I2
sV\u53d1\u89c9
p3063
I4
sV\u4e8b\u4e1a
p3064
I13
sV\u61ca\u4e27
p3065
I1
sV\u897f\u4f20
p3066
I6
sV\u628a\u63e1
p3067
I18
sV\u9009\u8bfb
p3068
I1
sV\u5112\u5bb6
p3069
I1
sV\u8bf4\u8bdd
p3070
I1
sV\u4f7f\u4eba
p3071
I6
sV\u8bde\u751f
p3072
I1
sV\u5357\u7586\u519b\u533a
p3073
I1
sV\u5929\u5730
p3074
I3
sV\u4e2d\u534e
p3075
I2
sV\u8ff7\u5931
p3076
I2
sV\u65e0\u80fd\u4e3a\u529b
p3077
I2
sV\u653f\u5de5
p3078
I2
sV\u5185\u5bb9\u5305\u62ec
p3079
I1
sV\u70ed\u529b
p3080
I1
sV\u82e5\u5e72
p3081
I6
sV\u8d75\u5409\u60e0
p3082
I2
sV\u76ee\u6807
p3083
I22
sV\u5927\u5b66\u751f
p3084
I10
sV\u5929\u771f
p3085
I1
sV\u53d4\u5b59
p3086
I1
sV\u8d22\u5bcc
p3087
I11
sV\u533a\u5206
p3088
I2
sV\u8bba\u6587
p3089
I3
sV\u6218\u7565
p3090
I21
sV\u547d\u7406
p3091
I1
sV\u4e1c\u9662
p3092
I1
sV\u6240\u8bf4
p3093
I2
sV\u4eba\u529b
p3094
I1
sV\u79d1\u5b66\u5bb6
p3095
I7
sV\u76f8\u6bd4
p3096
I1
sV\u589e\u591a
p3097
I1
sV\u6bdb\u6cfd\u4e1c\u601d\u60f3
p3098
I8
sV\u5dee\u5f02
p3099
I8
sV\u4f18\u8d8a\u6027
p3100
I1
sV\u5468\u5e74
p3101
I2
sV\u953b\u70bc
p3102
I1
sV\u624e\u6839
p3103
I2
sV\u601d\u5947
p3104
I15
sV\u98de\u884c
p3105
I1
sV\u6b32\u6c42
p3106
I1
sV\u53d1\u8868
p3107
I8
sV\u8bfb\u7269
p3108
I3
sV\u8d8b\u52bf
p3109
I2
sV\u4ea4\u878d
p3110
I6
sV\u65e5\u6708
p3111
I6
sV\u52e4\u52c9
p3112
I1
sV\u5178\u8303
p3113
I1
sV\u6811\u679d
p3114
I2
sV\u4ecb\u7ecd
p3115
I9
sV\u4fee\u6539
p3116
I4
sV\u7b80\u8ff0
p3117
I1
sV\u6309\u52b3\u5206\u914d
p3118
I1
sV\u7247\u9762
p3119
I9
sV\u4e3b\u5ba2\u89c2
p3120
I2
sV\u611f\u89e6
p3121
I2
sV\u5b70\u662f\u5b70\u975e
p3122
I1
sV\u8bb2\u6f14
p3123
I1
sV\u5370\u53d1
p3124
I1
sV\u66b4\u529b
p3125
I13
sV\u5236\u7ea6
p3126
I2
sV\u4ea7\u4e1a\u53d1\u5c55
p3127
I2
sV\u7ec4\u7ec7
p3128
I29
sV\u79cb\u5929
p3129
I1
sV\u8fdd\u6cd5\u4e71\u7eaa
p3130
I1
sV\u8001\u5b50
p3131
I8
sV\u793c\u8d24
p3132
I1
sV\u5e08\u8303\u5b66\u9662
p3133
I1
sV\u65f6\u95f4
p3134
I10
sV\u4eab\u4e50\u4e3b\u4e49
p3135
I2
sV\u6731\u8f89\u519b
p3136
I1
sV\u8fde\u7bc7\u7d2f\u724d
p3137
I1
sV\u6bdb\u6cfd\u4e1c
p3138
I45
sV\u5185\u90e8
p3139
I2
sV\u8d70\u51fa
p3140
I8
sV\u5510\u660e\u6e90
p3141
I1
sV\u63d0\u9ad8
p3142
I16
sV\u515a\u653f\u9886\u5bfc
p3143
I2
sV\u515a\u8981
p3144
I1
sV\u6307\u51fa
p3145
I30
sV\u7269\u8d28\u6587\u660e
p3146
I5
sV\u4fed\u6734
p3147
I2
sV\u6539\u8fdb
p3148
I5
sV\u4e2d\u53f6
p3149
I2
sV\u9762\u5411
p3150
I1
sV\u6df1\u5c42\u6b21
p3151
I1
sV\u4e16\u7eaa\u4e4b\u4ea4
p3152
I4
sV\u8d1f\u8d23
p3153
I2
sV\u80dc\u5229
p3154
I3
sV\u4eba\u7269
p3155
I1
sV\u519c\u6c11
p3156
I1
sV\u636e\u7701
p3157
I1
sV\u5d14\u81ea\u94ce
p3158
I1
sV\u62dc\u91d1\u4e3b\u4e49
p3159
I2
sV\u5fc3\u6ee1\u610f\u8db3
p3160
I2
sV\u77e5\u8bc6\u5206\u5b50
p3161
I1
sV\u5b9e\u9a8c
p3162
I1
sV\u672c\u4f53
p3163
I16
sV\u9f99\u5b50
p3164
I1
sV\u4ed6\u5e94
p3165
I1
sV\u7ec8\u6781
p3166
I2
sV\u4e00\u57df
p3167
I1
sV\u60f3\u5230
p3168
I1
sV\u91cd\u89c6
p3169
I17
sV\u4e71\u8bf4
p3170
I2
sV\u7389\u73b2
p3171
I1
sV\u4e4b\u98ce
p3172
I1
sV\u79d1\u5b66\u4e3b\u4e49
p3173
I2
sV\u6c38\u5b58
p3174
I1
sV\u5229\u76ca
p3175
I25
sV\u65af\u4eba
p3176
I1
sV\u5230\u6765
p3177
I2
sV\u822a\u6807
p3178
I1
sV\u4e2d\u53bb
p3179
I1
sV\u96be\u70b9
p3180
I1
sV\u6307\u5bfc\u601d\u60f3
p3181
I2
sV\u5217\u5b81
p3182
I2
sV\u529d\u529d
p3183
I1
sV\u8ba4\u77e5
p3184
I13
sV\u519b\u961f
p3185
I6
sV\u521b\u529e
p3186
I3
sV\u4e00\u540d
p3187
I1
sV\u5229\u7528
p3188
I3
sV\u8c08\u8c08
p3189
I1
sV\u9884\u89c1\u6027
p3190
I1
sV\u674e\u5927\u948a
p3191
I1
sV\u5b54\u592b\u5b50
p3192
I1
sV\u505a\u4e9b
p3193
I1
sV\u7d20\u517b
p3194
I2
sV\u4ee5\u5176
p3195
I1
sV\u8fd9\u5957
p3196
I1
sV\u4f8b\u8bc1
p3197
I1
sV\u706b\u73e0
p3198
I1
sV\u961f\u4f0d
p3199
I12
sV\u6df7\u540c
p3200
I1
sV\u8fd1\u671f
p3201
I1
sV\u5bd3\u4e8e
p3202
I2
sV\u89c1\u51e0\u800c\u4f5c
p3203
I1
sV\u5185\u5bb9\u5168\u9762
p3204
I2
sV\u4eba\u4ee3\u4f1a
p3205
I1
sV\u53c2\u9884
p3206
I2
sV\u52fe\u753b
p3207
I2
sV\u5ba3\u626c
p3208
I3
sV\u62ff\u8d77
p3209
I1
sV\u5fae\u89c2
p3210
I1
sV\u65b0\u89c2\u70b9
p3211
I2
sV\u5730\u57df
p3212
I4
sV\u83ab\u540d
p3213
I1
sV\u5c0a\u91cd
p3214
I4
sV\u793e\u4f1a\u5206\u5de5
p3215
I2
sV\u738b\u5fb7
p3216
I3
sV\u4fe1\u606f
p3217
I3
sV\u7cbe\u54c1
p3218
I2
sV\u5347\u534e
p3219
I2
sV\u654c\u4eba
p3220
I8
sV\u540e\u5907\u529b\u91cf
p3221
I3
sV\u54f2\u5b66\u601d\u60f3
p3222
I26
sV\u653f\u5e9c
p3223
I2
sV\u664b\u5347
p3224
I1
sV\u859b\u9a79
p3225
I1
sV\u8bd7\u4eba
p3226
I1
sV\u4e24\u671f
p3227
I1
sV\u6362\u53d6
p3228
I1
sV\u5ed3\u6e05
p3229
I1
sV\u6587\u827a\u5bb6
p3230
I11
sV\u5982\u83b7\u81f3\u5b9d
p3231
I1
sV\u6709\u8bc6\u4e4b\u58eb
p3232
I1
sV\u6e56\u5357\u7701\u59d4
p3233
I1
sV\u4e00\u65f6\u671f
p3234
I1
sV\u6587\u5316
p3235
I86
sV\u9053\u5fb7
p3236
I11
sV\u8fd1\u4e9b\u5e74
p3237
I1
sV\u9ad8\u5c1a
p3238
I4
sV\u6559\u5458
p3239
I2
sV\u5730\u770b
p3240
I1
sV\u53d8\u5316
p3241
I14
sV\u6ca1\u5f00
p3242
I1
sV\u4f55\u4f1f
p3243
I2
sV\u80a9\u8d1f
p3244
I1
sV\u504f\u9887
p3245
I1
sV\u5f62\u5f0f
p3246
I17
sV\u8fdb\u5316\u8bba
p3247
I1
sV\u6587\u827a
p3248
I18
sV\u9009\u4e3e\u5236\u5ea6
p3249
I2
sV\u7126\u88d5\u7984
p3250
I13
sV\u522e\u53bb
p3251
I1
sV\u5317\u4eac\u5927\u5b66
p3252
I4
sV\u539f\u59cb\u4eba
p3253
I6
sV\u516c\u53f8
p3254
I2
sV\u9080\u8bf7
p3255
I2
sV\u7cbe\u795e\u56e0\u7d20
p3256
I2
sV\u8d35\u5dde\u7701
p3257
I2
sV\u7cfb\u7edf\u5de5\u7a0b
p3258
I1
sV\u6c34\u4e73\u4ea4\u878d
p3259
I1
sV\u6218\u58eb
p3260
I3
sV\u5f52\u5bbf
p3261
I5
sV\u90e8\u95e8
p3262
I8
sV\u7269\u8d28\u751f\u6d3b
p3263
I2
sV\u6cb3\u5317\u7701\u59d4
p3264
I1
sV\u5176\u5fc3
p3265
I1
sV\u5453\u8bed
p3266
I1
sV\u91cd\u590d
p3267
I1
sV\u660e\u6670
p3268
I1
sV\u897f\u5b66
p3269
I5
sV\u4e09\u8005
p3270
I3
sV\u9017\u7559
p3271
I2
sV\u53d1\u8a00\u4eba
p3272
I1
sV\u5f18\u626c
p3273
I3
sV\u60a3\u75c5
p3274
I2
sV\u6f14\u7ece
p3275
I2
sV\u9093\u9009
p3276
I1
sV\u4e1b\u4e66
p3277
I4
sV\u5927\u5c40
p3278
I2
sV\u5143\u66f2
p3279
I1
sV\u662f\u7531
p3280
I3
sV\u4e24\u5c42
p3281
I1
sV\u6613\u6570
p3282
I1
sV\u72ec\u7acb
p3283
I1
sV\u8d3a\u656c\u4e4b
p3284
I1
sV\u4ee5\u52bf\u538b\u4eba
p3285
I1
sV\u4f5c\u8005
p3286
I28
sV\u5730\u5316
p3287
I1
sV\u653f\u534f\u59d4\u5458
p3288
I1
sV\u5feb\u901f
p3289
I2
sV\u72ed\u9698
p3290
I1
sV\u82f1\u7f8e
p3291
I2
sV\u9762\u7684
p3292
I1
sV\u6574\u987f
p3293
I1
sV\u8d2d\u4e66
p3294
I1
sV\u5b87\u5b99\u89c2
p3295
I1
sV\u8bed\u51ac
p3296
I1
sV\u5e74\u4e94\u5377
p3297
I1
sV\u6127\u759a
p3298
I1
sV\u719f\u89c6\u65e0\u7779
p3299
I1
sV\u8fd9\u9879
p3300
I4
sV\u8f6c\u578b\u671f
p3301
I1
sV\u4e2d\u5171
p3302
I3
sV\u4f5b\u5b66
p3303
I2
sV\u901f\u5ea6
p3304
I7
sV\u80af\u5b9a
p3305
I1
sV\u603b\u91cf
p3306
I2
sV\u575a\u64cd
p3307
I1
sV\u9ab0\u5b50
p3308
I1
sV\u6240\u8981
p3309
I1
sV\u9886\u5bfc\u5e72\u90e8
p3310
I20
sV\u95e8\u5e02\u90e8
p3311
I3
sV\u53ef\u8bfb\u6027
p3312
I1
sV\u505a\u8fc7
p3313
I1
sV\u6b63\u89c4\u5316
p3314
I1
sV\u4e2d\u592e\u7ea2\u519b
p3315
I2
sV\u6297\u4e89
p3316
I3
sV\u8425\u517b
p3317
I2
sV\u5927\u653f\u65b9\u9488
p3318
I1
sV\u5bbd\u5927\u4e3a\u6000
p3319
I2
sV\u60f3\u7740
p3320
I1
sV\u4e2d\u897f\u6587\u5316
p3321
I5
sV\u552f\u540d\u8bba
p3322
I1
sV\u5ef6\u5b89\u6587\u827a\u5ea7\u8c08\u4f1a
p3323
I2
sV\u4e13\u7740
p3324
I7
sV\u535a\u58eb
p3325
I13
sV\u826f\u77e5
p3326
I2
sV\u8c08\u8d77
p3327
I4
sV\u5149\u660e\u65e5\u62a5
p3328
I3
sV\u7b80\u4ecb
p3329
I2
sV\u4eba\u6c11\u65e5\u62a5
p3330
I1
sV\u5341\u4e09\u7ecf
p3331
I1
sV\u6d88\u89e3
p3332
I1
sV\u4e8c\u4e09
p3333
I1
sV\u5b59\u5bb6
p3334
I1
sV\u4f46\u8fd1
p3335
I1
sV\u5218\u8fc5
p3336
I1
sV\u901e\u82f1\u96c4
p3337
I1
sV\u6fc0\u60c5
p3338
I1
sV\u5954\u8d74
p3339
I1
sV\u4e94\u4e2d\u5168\u4f1a
p3340
I5
sV\u5021\u5bfc
p3341
I1
sV\u5b59\u5b50
p3342
I1
sV\u840c\u82bd
p3343
I2
sV\u5b66\u672f\u4ea4\u6d41
p3344
I7
sV\u8003\u8bd5
p3345
I1
sV\u4e1c\u6e10
p3346
I1
sV\u65b0\u534e\u793e
p3347
I13
sV\u7ecf\u6d4e\u89c2
p3348
I1
sV\u56db\u9879
p3349
I1
sV\u5c0f\u7ec4
p3350
I2
sV\u738b\u9e4f
p3351
I2
sV\u672c\u8d28
p3352
I17
sV\u5f90\u624d\u539a
p3353
I1
sV\u4e0e\u4f1a
p3354
I15
sV\u65e5\u5fc3\u8bf4
p3355
I1
sV\u4e2d\u56fd\u5316
p3356
I1
sV\u51c6\u786e
p3357
I3
sV\u4e24\u4e2a\u57fa\u672c\u70b9
p3358
I4
sV\u6dee\u5357\u5b50
p3359
I1
sV\u9ad8\u7b49\u9662\u6821
p3360
I3
sV\u5ba2\u89c2\u6027
p3361
I3
sV\u519c\u4e1a
p3362
I5
sV\u5fc5\u7136\u6027
p3363
I10
sV\u6cb3\u9cc5
p3364
I1
sV\u8d3a\u664b
p3365
I1
sV\u53d1\u5c55\u524d\u666f
p3366
I1
sV\u56fd\u9632\u5927\u5b66
p3367
I5
sV\u96be\u5165
p3368
I1
sV\u53d6\u51b3\u4e8e
p3369
I1
sV\u5bbd\u9614
p3370
I1
sV\u79f0\u4e3a
p3371
I2
sV\u521b\u89c1
p3372
I1
sV\u9a7b\u5730
p3373
I1
sV\u5fd7\u540c\u9053\u5408\u8005
p3374
I2
sV\u9a76\u5411
p3375
I1
sV\u706b\u5c71
p3376
I1
sV\u52b3\u52a8
p3377
I14
sV\u6000\u5ff5
p3378
I2
sV\u9610\u91ca
p3379
I4
sV\u8c61\u7259\u5854
p3380
I1
sV\u4e4b\u9ad8
p3381
I1
sV\u52a0\u901f
p3382
I2
sV\u7b03\u4fe1
p3383
I1
sV\u773c\u5149
p3384
I2
s.