(lp0
(dp1
Vclassfilename
p2
VC32-Agriculture0002.txt
p3
sVreal_class
p4
Vagriculture
p5
sVpre_class2
p6
Vagriculture
p7
sa(dp8
g2
VC32-Agriculture0003.txt
p9
sg4
g5
sg6
g7
sa(dp10
g2
VC32-Agriculture0005.txt
p11
sg4
g5
sg6
g7
sa(dp12
g2
VC32-Agriculture0007.txt
p13
sg4
g5
sg6
g7
sa(dp14
g2
VC32-Agriculture0009.txt
p15
sg4
g5
sg6
g7
sa(dp16
g2
VC32-Agriculture0011.txt
p17
sg4
g5
sg6
g7
sa(dp18
g2
VC32-Agriculture0013.txt
p19
sg4
g5
sg6
g7
sa(dp20
g2
VC32-Agriculture0015.txt
p21
sg4
g5
sg6
g7
sa(dp22
g2
VC32-Agriculture0017.txt
p23
sg4
g5
sg6
g7
sa(dp24
g2
VC32-Agriculture0019.txt
p25
sg4
g5
sg6
g7
sa(dp26
g2
VC32-Agriculture0021.txt
p27
sg4
g5
sg6
g7
sa(dp28
g2
VC32-Agriculture0023.txt
p29
sg4
g5
sg6
g7
sa(dp30
g2
VC32-Agriculture0025.txt
p31
sg4
g5
sg6
g7
sa(dp32
g2
VC32-Agriculture0027.txt
p33
sg4
g5
sg6
g7
sa(dp34
g2
VC32-Agriculture0029.txt
p35
sg4
g5
sg6
g7
sa(dp36
g2
VC32-Agriculture0031.txt
p37
sg4
g5
sg6
Veconomy
p38
sa(dp39
g2
VC32-Agriculture0033.txt
p40
sg4
g5
sg6
g7
sa(dp41
g2
VC32-Agriculture0035.txt
p42
sg4
g5
sg6
g7
sa(dp43
g2
VC32-Agriculture0037.txt
p44
sg4
g5
sg6
g7
sa(dp45
g2
VC32-Agriculture0039.txt
p46
sg4
g5
sg6
g7
sa(dp47
g2
VC32-Agriculture0041.txt
p48
sg4
g5
sg6
g7
sa(dp49
g2
VC32-Agriculture0043.txt
p50
sg4
g5
sg6
g7
sa(dp51
g2
VC32-Agriculture0045.txt
p52
sg4
g5
sg6
g7
sa(dp53
g2
VC32-Agriculture0047.txt
p54
sg4
g5
sg6
g7
sa(dp55
g2
VC32-Agriculture0049.txt
p56
sg4
g5
sg6
g7
sa(dp57
g2
VC32-Agriculture0051.txt
p58
sg4
g5
sg6
g7
sa(dp59
g2
VC32-Agriculture0053.txt
p60
sg4
g5
sg6
g7
sa(dp61
g2
VC32-Agriculture0055.txt
p62
sg4
g5
sg6
g7
sa(dp63
g2
VC32-Agriculture0057.txt
p64
sg4
g5
sg6
g7
sa(dp65
g2
VC32-Agriculture0059.txt
p66
sg4
g5
sg6
g7
sa(dp67
g2
VC34-Economy0002.txt
p68
sg4
Veconomy
p69
sg6
g38
sa(dp70
g2
VC34-Economy0003.txt
p71
sg4
g69
sg6
g38
sa(dp72
g2
VC34-Economy0004.txt
p73
sg4
g69
sg6
g38
sa(dp74
g2
VC34-Economy0006.txt
p75
sg4
g69
sg6
g7
sa(dp76
g2
VC34-Economy0008.txt
p77
sg4
g69
sg6
g38
sa(dp78
g2
VC34-Economy0010.txt
p79
sg4
g69
sg6
g38
sa(dp80
g2
VC34-Economy0012.txt
p81
sg4
g69
sg6
g38
sa(dp82
g2
VC34-Economy0014.txt
p83
sg4
g69
sg6
g38
sa(dp84
g2
VC34-Economy0016.txt
p85
sg4
g69
sg6
g38
sa(dp86
g2
VC34-Economy0018.txt
p87
sg4
g69
sg6
g38
sa(dp88
g2
VC34-Economy0020.txt
p89
sg4
g69
sg6
g38
sa(dp90
g2
VC34-Economy0022.txt
p91
sg4
g69
sg6
g38
sa(dp92
g2
VC34-Economy0024.txt
p93
sg4
g69
sg6
g38
sa(dp94
g2
VC34-Economy0026.txt
p95
sg4
g69
sg6
g38
sa(dp96
g2
VC34-Economy0028.txt
p97
sg4
g69
sg6
g38
sa(dp98
g2
VC34-Economy0030.txt
p99
sg4
g69
sg6
g38
sa(dp100
g2
VC34-Economy0032.txt
p101
sg4
g69
sg6
g38
sa(dp102
g2
VC34-Economy0034.txt
p103
sg4
g69
sg6
g38
sa(dp104
g2
VC34-Economy0036.txt
p105
sg4
g69
sg6
g38
sa(dp106
g2
VC34-Economy0038.txt
p107
sg4
g69
sg6
g38
sa(dp108
g2
VC34-Economy0040.txt
p109
sg4
g69
sg6
g38
sa(dp110
g2
VC34-Economy0042.txt
p111
sg4
g69
sg6
g7
sa(dp112
g2
VC34-Economy0044.txt
p113
sg4
g69
sg6
g38
sa(dp114
g2
VC34-Economy0046.txt
p115
sg4
g69
sg6
g38
sa(dp116
g2
VC34-Economy0048.txt
p117
sg4
g69
sg6
Vpolitics
p118
sa(dp119
g2
VC34-Economy0050.txt
p120
sg4
g69
sg6
g118
sa(dp121
g2
VC34-Economy0052.txt
p122
sg4
g69
sg6
g118
sa(dp123
g2
VC34-Economy0054.txt
p124
sg4
g69
sg6
g38
sa(dp125
g2
VC34-Economy0056.txt
p126
sg4
g69
sg6
g118
sa(dp127
g2
VC34-Economy0058.txt
p128
sg4
g69
sg6
g118
sa(dp129
g2
VC31-Enviornment0002.txt
p130
sg4
Venviornment
p131
sg6
Vsports
p132
sa(dp133
g2
VC31-Enviornment0003.txt
p134
sg4
g131
sg6
Venviornment
p135
sa(dp136
g2
VC31-Enviornment0005.txt
p137
sg4
g131
sg6
g135
sa(dp138
g2
VC31-Enviornment0007.txt
p139
sg4
g131
sg6
g135
sa(dp140
g2
VC31-Enviornment0009.txt
p141
sg4
g131
sg6
g135
sa(dp142
g2
VC31-Enviornment0011.txt
p143
sg4
g131
sg6
g135
sa(dp144
g2
VC31-Enviornment0013.txt
p145
sg4
g131
sg6
g135
sa(dp146
g2
VC31-Enviornment0015.txt
p147
sg4
g131
sg6
g7
sa(dp148
g2
VC31-Enviornment0017.txt
p149
sg4
g131
sg6
g7
sa(dp150
g2
VC31-Enviornment0019.txt
p151
sg4
g131
sg6
g135
sa(dp152
g2
VC31-Enviornment0021.txt
p153
sg4
g131
sg6
g135
sa(dp154
g2
VC31-Enviornment0023.txt
p155
sg4
g131
sg6
g135
sa(dp156
g2
VC31-Enviornment0025.txt
p157
sg4
g131
sg6
g135
sa(dp158
g2
VC31-Enviornment0027.txt
p159
sg4
g131
sg6
g135
sa(dp160
g2
VC31-Enviornment0029.txt
p161
sg4
g131
sg6
g135
sa(dp162
g2
VC31-Enviornment0031.txt
p163
sg4
g131
sg6
g135
sa(dp164
g2
VC31-Enviornment0033.txt
p165
sg4
g131
sg6
g135
sa(dp166
g2
VC31-Enviornment0035.txt
p167
sg4
g131
sg6
g135
sa(dp168
g2
VC31-Enviornment0037.txt
p169
sg4
g131
sg6
g135
sa(dp170
g2
VC31-Enviornment0039.txt
p171
sg4
g131
sg6
g135
sa(dp172
g2
VC31-Enviornment0041.txt
p173
sg4
g131
sg6
g135
sa(dp174
g2
VC31-Enviornment0043.txt
p175
sg4
g131
sg6
g135
sa(dp176
g2
VC31-Enviornment0045.txt
p177
sg4
g131
sg6
g135
sa(dp178
g2
VC31-Enviornment0046.txt
p179
sg4
g131
sg6
g135
sa(dp180
g2
VC31-Enviornment0048.txt
p181
sg4
g131
sg6
g135
sa(dp182
g2
VC31-Enviornment0050.txt
p183
sg4
g131
sg6
g135
sa(dp184
g2
VC31-Enviornment0052.txt
p185
sg4
g131
sg6
g135
sa(dp186
g2
VC31-Enviornment0054.txt
p187
sg4
g131
sg6
g135
sa(dp188
g2
VC31-Enviornment0056.txt
p189
sg4
g131
sg6
g135
sa(dp190
g2
VC31-Enviornment0058.txt
p191
sg4
g131
sg6
g135
sa(dp192
g2
VC38-Politics0001.txt
p193
sg4
Vpolitics
p194
sg6
g118
sa(dp195
g2
VC38-Politics0002.txt
p196
sg4
g194
sg6
g118
sa(dp197
g2
VC38-Politics0004.txt
p198
sg4
g194
sg6
g118
sa(dp199
g2
VC38-Politics0006.txt
p200
sg4
g194
sg6
g118
sa(dp201
g2
VC38-Politics0008.txt
p202
sg4
g194
sg6
g118
sa(dp203
g2
VC38-Politics0010.txt
p204
sg4
g194
sg6
g118
sa(dp205
g2
VC38-Politics0012.txt
p206
sg4
g194
sg6
g118
sa(dp207
g2
VC38-Politics0014.txt
p208
sg4
g194
sg6
g118
sa(dp209
g2
VC38-Politics0016.txt
p210
sg4
g194
sg6
g118
sa(dp211
g2
VC38-Politics0019.txt
p212
sg4
g194
sg6
g118
sa(dp213
g2
VC38-Politics0021.txt
p214
sg4
g194
sg6
g118
sa(dp215
g2
VC38-Politics0023.txt
p216
sg4
g194
sg6
g118
sa(dp217
g2
VC38-Politics0025.txt
p218
sg4
g194
sg6
g118
sa(dp219
g2
VC38-Politics0027.txt
p220
sg4
g194
sg6
g118
sa(dp221
g2
VC38-Politics0029.txt
p222
sg4
g194
sg6
g118
sa(dp223
g2
VC38-Politics0031.txt
p224
sg4
g194
sg6
g118
sa(dp225
g2
VC38-Politics0033.txt
p226
sg4
g194
sg6
g118
sa(dp227
g2
VC38-Politics0035.txt
p228
sg4
g194
sg6
g118
sa(dp229
g2
VC38-Politics0037.txt
p230
sg4
g194
sg6
g132
sa(dp231
g2
VC38-Politics0039.txt
p232
sg4
g194
sg6
g118
sa(dp233
g2
VC38-Politics0041.txt
p234
sg4
g194
sg6
g118
sa(dp235
g2
VC38-Politics0043.txt
p236
sg4
g194
sg6
g118
sa(dp237
g2
VC38-Politics0045.txt
p238
sg4
g194
sg6
g118
sa(dp239
g2
VC38-Politics0047.txt
p240
sg4
g194
sg6
g118
sa(dp241
g2
VC38-Politics0049.txt
p242
sg4
g194
sg6
g118
sa(dp243
g2
VC38-Politics0051.txt
p244
sg4
g194
sg6
g118
sa(dp245
g2
VC38-Politics0053.txt
p246
sg4
g194
sg6
g118
sa(dp247
g2
VC38-Politics0055.txt
p248
sg4
g194
sg6
g118
sa(dp249
g2
VC38-Politics0057.txt
p250
sg4
g194
sg6
g118
sa(dp251
g2
VC38-Politics0059.txt
p252
sg4
g194
sg6
g118
sa(dp253
g2
VC39-Sports0001.txt
p254
sg4
Vsports
p255
sg6
g132
sa(dp256
g2
VC39-Sports0003.txt
p257
sg4
g255
sg6
g132
sa(dp258
g2
VC39-Sports0005.txt
p259
sg4
g255
sg6
g132
sa(dp260
g2
VC39-Sports0007.txt
p261
sg4
g255
sg6
g132
sa(dp262
g2
VC39-Sports0009.txt
p263
sg4
g255
sg6
g132
sa(dp264
g2
VC39-Sports0011.txt
p265
sg4
g255
sg6
g132
sa(dp266
g2
VC39-Sports0013.txt
p267
sg4
g255
sg6
g132
sa(dp268
g2
VC39-Sports0015.txt
p269
sg4
g255
sg6
g132
sa(dp270
g2
VC39-Sports0017.txt
p271
sg4
g255
sg6
g132
sa(dp272
g2
VC39-Sports0019.txt
p273
sg4
g255
sg6
g132
sa(dp274
g2
VC39-Sports0021.txt
p275
sg4
g255
sg6
g132
sa(dp276
g2
VC39-Sports0023.txt
p277
sg4
g255
sg6
g132
sa(dp278
g2
VC39-Sports0025.txt
p279
sg4
g255
sg6
g132
sa(dp280
g2
VC39-Sports0027.txt
p281
sg4
g255
sg6
g132
sa(dp282
g2
VC39-Sports0029.txt
p283
sg4
g255
sg6
g132
sa(dp284
g2
VC39-Sports0031.txt
p285
sg4
g255
sg6
g132
sa(dp286
g2
VC39-Sports0033.txt
p287
sg4
g255
sg6
g132
sa(dp288
g2
VC39-Sports0035.txt
p289
sg4
g255
sg6
g132
sa(dp290
g2
VC39-Sports0037.txt
p291
sg4
g255
sg6
g132
sa(dp292
g2
VC39-Sports0039.txt
p293
sg4
g255
sg6
g132
sa(dp294
g2
VC39-Sports0041.txt
p295
sg4
g255
sg6
g132
sa(dp296
g2
VC39-Sports0043.txt
p297
sg4
g255
sg6
g132
sa(dp298
g2
VC39-Sports0045.txt
p299
sg4
g255
sg6
g132
sa(dp300
g2
VC39-Sports0047.txt
p301
sg4
g255
sg6
g132
sa(dp302
g2
VC39-Sports0049.txt
p303
sg4
g255
sg6
g132
sa(dp304
g2
VC39-Sports0051.txt
p305
sg4
g255
sg6
g132
sa(dp306
g2
VC39-Sports0053.txt
p307
sg4
g255
sg6
g132
sa(dp308
g2
VC39-Sports0055.txt
p309
sg4
g255
sg6
g132
sa(dp310
g2
VC39-Sports0057.txt
p311
sg4
g255
sg6
g132
sa(dp312
g2
VC39-Sports0059.txt
p313
sg4
g255
sg6
g132
sa.