(lp0
(dp1
Vclassfilename
p2
VC3-Art0002.txt
p3
sVreal_class
p4
Vart
p5
sVpre_class2
p6
Vhistory
p7
sa(dp8
g2
VC3-Art0003.txt
p9
sg4
g5
sg6
Vart
p10
sa(dp11
g2
VC3-Art0005.txt
p12
sg4
g5
sg6
g10
sa(dp13
g2
VC3-Art0007.txt
p14
sg4
g5
sg6
g10
sa(dp15
g2
VC3-Art0009.txt
p16
sg4
g5
sg6
g10
sa(dp17
g2
VC3-Art0011.txt
p18
sg4
g5
sg6
g10
sa(dp19
g2
VC3-Art0013.txt
p20
sg4
g5
sg6
g10
sa(dp21
g2
VC3-Art0015.txt
p22
sg4
g5
sg6
g10
sa(dp23
g2
VC3-Art0017.txt
p24
sg4
g5
sg6
g10
sa(dp25
g2
VC3-Art0019.txt
p26
sg4
g5
sg6
g10
sa(dp27
g2
VC5-Education001.txt
p28
sg4
Veducation
p29
sg6
Vliterature
p30
sa(dp31
g2
VC5-Education003.txt
p32
sg4
g29
sg6
Veducation
p33
sa(dp34
g2
VC5-Education004.txt
p35
sg4
g29
sg6
g33
sa(dp36
g2
VC5-Education006.txt
p37
sg4
g29
sg6
g30
sa(dp38
g2
VC5-Education008.txt
p39
sg4
g29
sg6
g33
sa(dp40
g2
VC5-Education010.txt
p41
sg4
g29
sg6
g7
sa(dp42
g2
VC5-Education012.txt
p43
sg4
g29
sg6
g33
sa(dp44
g2
VC5-Education014.txt
p45
sg4
g29
sg6
g33
sa(dp46
g2
VC5-Education016.txt
p47
sg4
g29
sg6
g33
sa(dp48
g2
VC5-Education018.txt
p49
sg4
g29
sg6
g10
sa(dp50
g2
VC7-History001.txt
p51
sg4
Vhistory
p52
sg6
g7
sa(dp53
g2
VC7-History002.txt
p54
sg4
g52
sg6
g7
sa(dp55
g2
VC7-History004.txt
p56
sg4
g52
sg6
g7
sa(dp57
g2
VC7-History006.txt
p58
sg4
g52
sg6
g7
sa(dp59
g2
VC7-History008.txt
p60
sg4
g52
sg6
g7
sa(dp61
g2
VC7-History010.txt
p62
sg4
g52
sg6
g7
sa(dp63
g2
VC7-History012.txt
p64
sg4
g52
sg6
g7
sa(dp65
g2
VC7-History014.txt
p66
sg4
g52
sg6
g7
sa(dp67
g2
VC7-History016.txt
p68
sg4
g52
sg6
g7
sa(dp69
g2
VC7-History018.txt
p70
sg4
g52
sg6
g7
sa(dp71
g2
VC4-Literature01.txt
p72
sg4
Vliterature
p73
sg6
g7
sa(dp74
g2
VC4-Literature03.txt
p75
sg4
g73
sg6
g30
sa(dp76
g2
VC4-Literature04.txt
p77
sg4
g73
sg6
g30
sa(dp78
g2
VC4-Literature06.txt
p79
sg4
g73
sg6
g7
sa(dp80
g2
VC4-Literature08.txt
p81
sg4
g73
sg6
g30
sa(dp82
g2
VC4-Literature10.txt
p83
sg4
g73
sg6
g7
sa(dp84
g2
VC4-Literature12.txt
p85
sg4
g73
sg6
g33
sa(dp86
g2
VC4-Literature14.txt
p87
sg4
g73
sg6
g10
sa(dp88
g2
VC4-Literature16.txt
p89
sg4
g73
sg6
g33
sa(dp90
g2
VC4-Literature18.txt
p91
sg4
g73
sg6
g10
sa(dp92
g2
VC6-Philosophy01.txt
p93
sg4
Vphilosophy
p94
sg6
Vphilosophy
p95
sa(dp96
g2
VC6-Philosophy02.txt
p97
sg4
g94
sg6
g7
sa(dp98
g2
VC6-Philosophy04.txt
p99
sg4
g94
sg6
g10
sa(dp100
g2
VC6-Philosophy06.txt
p101
sg4
g94
sg6
g95
sa(dp102
g2
VC6-Philosophy08.txt
p103
sg4
g94
sg6
g95
sa(dp104
g2
VC6-Philosophy10.txt
p105
sg4
g94
sg6
g95
sa(dp106
g2
VC6-Philosophy12.txt
p107
sg4
g94
sg6
g7
sa(dp108
g2
VC6-Philosophy14.txt
p109
sg4
g94
sg6
g10
sa(dp110
g2
VC6-Philosophy16.txt
p111
sg4
g94
sg6
g95
sa(dp112
g2
VC6-Philosophy18.txt
p113
sg4
g94
sg6
g95
sa.