(lp0
(dp1
Vclassfilename
p2
VC32-Agriculture0002.txt
p3
sVreal_class
p4
Vagriculture
p5
sVpre_class2
p6
Vagriculture
p7
sa(dp8
g2
VC32-Agriculture0003.txt
p9
sg4
g5
sg6
g7
sa(dp10
g2
VC32-Agriculture0005.txt
p11
sg4
g5
sg6
g7
sa(dp12
g2
VC32-Agriculture0007.txt
p13
sg4
g5
sg6
g7
sa(dp14
g2
VC32-Agriculture0009.txt
p15
sg4
g5
sg6
g7
sa(dp16
g2
VC32-Agriculture0011.txt
p17
sg4
g5
sg6
g7
sa(dp18
g2
VC32-Agriculture0013.txt
p19
sg4
g5
sg6
g7
sa(dp20
g2
VC32-Agriculture0015.txt
p21
sg4
g5
sg6
g7
sa(dp22
g2
VC32-Agriculture0017.txt
p23
sg4
g5
sg6
g7
sa(dp24
g2
VC32-Agriculture0019.txt
p25
sg4
g5
sg6
g7
sa(dp26
g2
VC32-Agriculture0021.txt
p27
sg4
g5
sg6
g7
sa(dp28
g2
VC32-Agriculture0023.txt
p29
sg4
g5
sg6
g7
sa(dp30
g2
VC32-Agriculture0025.txt
p31
sg4
g5
sg6
g7
sa(dp32
g2
VC32-Agriculture0027.txt
p33
sg4
g5
sg6
g7
sa(dp34
g2
VC32-Agriculture0029.txt
p35
sg4
g5
sg6
g7
sa(dp36
g2
VC32-Agriculture0031.txt
p37
sg4
g5
sg6
Veconomy
p38
sa(dp39
g2
VC32-Agriculture0033.txt
p40
sg4
g5
sg6
g7
sa(dp41
g2
VC32-Agriculture0035.txt
p42
sg4
g5
sg6
g7
sa(dp43
g2
VC32-Agriculture0037.txt
p44
sg4
g5
sg6
g7
sa(dp45
g2
VC32-Agriculture0039.txt
p46
sg4
g5
sg6
g7
sa(dp47
g2
VC32-Agriculture0041.txt
p48
sg4
g5
sg6
g7
sa(dp49
g2
VC32-Agriculture0043.txt
p50
sg4
g5
sg6
g7
sa(dp51
g2
VC32-Agriculture0045.txt
p52
sg4
g5
sg6
g7
sa(dp53
g2
VC32-Agriculture0047.txt
p54
sg4
g5
sg6
g7
sa(dp55
g2
VC32-Agriculture0049.txt
p56
sg4
g5
sg6
g7
sa(dp57
g2
VC32-Agriculture0051.txt
p58
sg4
g5
sg6
g7
sa(dp59
g2
VC32-Agriculture0053.txt
p60
sg4
g5
sg6
g7
sa(dp61
g2
VC32-Agriculture0055.txt
p62
sg4
g5
sg6
g7
sa(dp63
g2
VC32-Agriculture0057.txt
p64
sg4
g5
sg6
g7
sa(dp65
g2
VC32-Agriculture0059.txt
p66
sg4
g5
sg6
g7
sa(dp67
g2
VC32-Agriculture0061.txt
p68
sg4
g5
sg6
g7
sa(dp69
g2
VC32-Agriculture0063.txt
p70
sg4
g5
sg6
g7
sa(dp71
g2
VC32-Agriculture0064.txt
p72
sg4
g5
sg6
g7
sa(dp73
g2
VC32-Agriculture0066.txt
p74
sg4
g5
sg6
g7
sa(dp75
g2
VC32-Agriculture0068.txt
p76
sg4
g5
sg6
g7
sa(dp77
g2
VC32-Agriculture0070.txt
p78
sg4
g5
sg6
g7
sa(dp79
g2
VC32-Agriculture0072.txt
p80
sg4
g5
sg6
g7
sa(dp81
g2
VC32-Agriculture0074.txt
p82
sg4
g5
sg6
g7
sa(dp83
g2
VC32-Agriculture0076.txt
p84
sg4
g5
sg6
g7
sa(dp85
g2
VC32-Agriculture0078.txt
p86
sg4
g5
sg6
g7
sa(dp87
g2
VC32-Agriculture0080.txt
p88
sg4
g5
sg6
g7
sa(dp89
g2
VC32-Agriculture0082.txt
p90
sg4
g5
sg6
g7
sa(dp91
g2
VC32-Agriculture0084.txt
p92
sg4
g5
sg6
g7
sa(dp93
g2
VC32-Agriculture0086.txt
p94
sg4
g5
sg6
g7
sa(dp95
g2
VC32-Agriculture0088.txt
p96
sg4
g5
sg6
g7
sa(dp97
g2
VC32-Agriculture0090.txt
p98
sg4
g5
sg6
g7
sa(dp99
g2
VC32-Agriculture0092.txt
p100
sg4
g5
sg6
g7
sa(dp101
g2
VC32-Agriculture0094.txt
p102
sg4
g5
sg6
g7
sa(dp103
g2
VC32-Agriculture0096.txt
p104
sg4
g5
sg6
g7
sa(dp105
g2
VC32-Agriculture0098.txt
p106
sg4
g5
sg6
g7
sa(dp107
g2
VC32-Agriculture0100.txt
p108
sg4
g5
sg6
g7
sa(dp109
g2
VC32-Agriculture0102.txt
p110
sg4
g5
sg6
g7
sa(dp111
g2
VC32-Agriculture0104.txt
p112
sg4
g5
sg6
g7
sa(dp113
g2
VC32-Agriculture0106.txt
p114
sg4
g5
sg6
g7
sa(dp115
g2
VC32-Agriculture0108.txt
p116
sg4
g5
sg6
g7
sa(dp117
g2
VC32-Agriculture0110.txt
p118
sg4
g5
sg6
g7
sa(dp119
g2
VC32-Agriculture0112.txt
p120
sg4
g5
sg6
g7
sa(dp121
g2
VC32-Agriculture0114.txt
p122
sg4
g5
sg6
g7
sa(dp123
g2
VC32-Agriculture0116.txt
p124
sg4
g5
sg6
g7
sa(dp125
g2
VC32-Agriculture0118.txt
p126
sg4
g5
sg6
g7
sa(dp127
g2
VC32-Agriculture0120.txt
p128
sg4
g5
sg6
g7
sa(dp129
g2
VC32-Agriculture0123.txt
p130
sg4
g5
sg6
g7
sa(dp131
g2
VC32-Agriculture0125.txt
p132
sg4
g5
sg6
g7
sa(dp133
g2
VC32-Agriculture0127.txt
p134
sg4
g5
sg6
g7
sa(dp135
g2
VC32-Agriculture0129.txt
p136
sg4
g5
sg6
g7
sa(dp137
g2
VC32-Agriculture0131.txt
p138
sg4
g5
sg6
g7
sa(dp139
g2
VC32-Agriculture0133.txt
p140
sg4
g5
sg6
g7
sa(dp141
g2
VC32-Agriculture0135.txt
p142
sg4
g5
sg6
g7
sa(dp143
g2
VC32-Agriculture0137.txt
p144
sg4
g5
sg6
g7
sa(dp145
g2
VC32-Agriculture0139.txt
p146
sg4
g5
sg6
g7
sa(dp147
g2
VC32-Agriculture0141.txt
p148
sg4
g5
sg6
g7
sa(dp149
g2
VC32-Agriculture0143.txt
p150
sg4
g5
sg6
g7
sa(dp151
g2
VC32-Agriculture0145.txt
p152
sg4
g5
sg6
g7
sa(dp153
g2
VC32-Agriculture0147.txt
p154
sg4
g5
sg6
g7
sa(dp155
g2
VC32-Agriculture0149.txt
p156
sg4
g5
sg6
g7
sa(dp157
g2
VC32-Agriculture0151.txt
p158
sg4
g5
sg6
g7
sa(dp159
g2
VC32-Agriculture0153.txt
p160
sg4
g5
sg6
g7
sa(dp161
g2
VC32-Agriculture0155.txt
p162
sg4
g5
sg6
g7
sa(dp163
g2
VC32-Agriculture0157.txt
p164
sg4
g5
sg6
g7
sa(dp165
g2
VC32-Agriculture0159.txt
p166
sg4
g5
sg6
g7
sa(dp167
g2
VC32-Agriculture0161.txt
p168
sg4
g5
sg6
g7
sa(dp169
g2
VC32-Agriculture0163.txt
p170
sg4
g5
sg6
g7
sa(dp171
g2
VC32-Agriculture0165.txt
p172
sg4
g5
sg6
g7
sa(dp173
g2
VC32-Agriculture0167.txt
p174
sg4
g5
sg6
g7
sa(dp175
g2
VC32-Agriculture0169.txt
p176
sg4
g5
sg6
g7
sa(dp177
g2
VC32-Agriculture0171.txt
p178
sg4
g5
sg6
g7
sa(dp179
g2
VC32-Agriculture0173.txt
p180
sg4
g5
sg6
g7
sa(dp181
g2
VC32-Agriculture0175.txt
p182
sg4
g5
sg6
g7
sa(dp183
g2
VC32-Agriculture0177.txt
p184
sg4
g5
sg6
g7
sa(dp185
g2
VC32-Agriculture0179.txt
p186
sg4
g5
sg6
g7
sa(dp187
g2
VC32-Agriculture0181.txt
p188
sg4
g5
sg6
g7
sa(dp189
g2
VC32-Agriculture0183.txt
p190
sg4
g5
sg6
g7
sa(dp191
g2
VC32-Agriculture0185.txt
p192
sg4
g5
sg6
g7
sa(dp193
g2
VC32-Agriculture0187.txt
p194
sg4
g5
sg6
g7
sa(dp195
g2
VC32-Agriculture0189.txt
p196
sg4
g5
sg6
g7
sa(dp197
g2
VC32-Agriculture0191.txt
p198
sg4
g5
sg6
g7
sa(dp199
g2
VC32-Agriculture0193.txt
p200
sg4
g5
sg6
g7
sa(dp201
g2
VC32-Agriculture0195.txt
p202
sg4
g5
sg6
g7
sa(dp203
g2
VC32-Agriculture0197.txt
p204
sg4
g5
sg6
g38
sa(dp205
g2
VC32-Agriculture0199.txt
p206
sg4
g5
sg6
g7
sa(dp207
g2
VC34-Economy0002.txt
p208
sg4
Veconomy
p209
sg6
g38
sa(dp210
g2
VC34-Economy0003.txt
p211
sg4
g209
sg6
g38
sa(dp212
g2
VC34-Economy0004.txt
p213
sg4
g209
sg6
g38
sa(dp214
g2
VC34-Economy0006.txt
p215
sg4
g209
sg6
g7
sa(dp216
g2
VC34-Economy0008.txt
p217
sg4
g209
sg6
g38
sa(dp218
g2
VC34-Economy0010.txt
p219
sg4
g209
sg6
g38
sa(dp220
g2
VC34-Economy0012.txt
p221
sg4
g209
sg6
g38
sa(dp222
g2
VC34-Economy0014.txt
p223
sg4
g209
sg6
g38
sa(dp224
g2
VC34-Economy0016.txt
p225
sg4
g209
sg6
g38
sa(dp226
g2
VC34-Economy0018.txt
p227
sg4
g209
sg6
g38
sa(dp228
g2
VC34-Economy0020.txt
p229
sg4
g209
sg6
g38
sa(dp230
g2
VC34-Economy0022.txt
p231
sg4
g209
sg6
g38
sa(dp232
g2
VC34-Economy0024.txt
p233
sg4
g209
sg6
g38
sa(dp234
g2
VC34-Economy0026.txt
p235
sg4
g209
sg6
g38
sa(dp236
g2
VC34-Economy0028.txt
p237
sg4
g209
sg6
g38
sa(dp238
g2
VC34-Economy0030.txt
p239
sg4
g209
sg6
g38
sa(dp240
g2
VC34-Economy0032.txt
p241
sg4
g209
sg6
g38
sa(dp242
g2
VC34-Economy0034.txt
p243
sg4
g209
sg6
g38
sa(dp244
g2
VC34-Economy0036.txt
p245
sg4
g209
sg6
g38
sa(dp246
g2
VC34-Economy0038.txt
p247
sg4
g209
sg6
g38
sa(dp248
g2
VC34-Economy0040.txt
p249
sg4
g209
sg6
g38
sa(dp250
g2
VC34-Economy0042.txt
p251
sg4
g209
sg6
g7
sa(dp252
g2
VC34-Economy0044.txt
p253
sg4
g209
sg6
g38
sa(dp254
g2
VC34-Economy0046.txt
p255
sg4
g209
sg6
g38
sa(dp256
g2
VC34-Economy0048.txt
p257
sg4
g209
sg6
Vpolitics
p258
sa(dp259
g2
VC34-Economy0050.txt
p260
sg4
g209
sg6
g258
sa(dp261
g2
VC34-Economy0052.txt
p262
sg4
g209
sg6
g258
sa(dp263
g2
VC34-Economy0054.txt
p264
sg4
g209
sg6
g38
sa(dp265
g2
VC34-Economy0056.txt
p266
sg4
g209
sg6
g258
sa(dp267
g2
VC34-Economy0058.txt
p268
sg4
g209
sg6
g258
sa(dp269
g2
VC34-Economy0060.txt
p270
sg4
g209
sg6
g38
sa(dp271
g2
VC34-Economy0062.txt
p272
sg4
g209
sg6
g38
sa(dp273
g2
VC34-Economy0064.txt
p274
sg4
g209
sg6
g38
sa(dp275
g2
VC34-Economy0066.txt
p276
sg4
g209
sg6
g258
sa(dp277
g2
VC34-Economy0068.txt
p278
sg4
g209
sg6
g258
sa(dp279
g2
VC34-Economy0070.txt
p280
sg4
g209
sg6
g38
sa(dp281
g2
VC34-Economy0073.txt
p282
sg4
g209
sg6
g38
sa(dp283
g2
VC34-Economy0075.txt
p284
sg4
g209
sg6
g38
sa(dp285
g2
VC34-Economy0077.txt
p286
sg4
g209
sg6
g38
sa(dp287
g2
VC34-Economy0079.txt
p288
sg4
g209
sg6
g38
sa(dp289
g2
VC34-Economy0081.txt
p290
sg4
g209
sg6
g38
sa(dp291
g2
VC34-Economy0083.txt
p292
sg4
g209
sg6
g7
sa(dp293
g2
VC34-Economy0085.txt
p294
sg4
g209
sg6
g38
sa(dp295
g2
VC34-Economy0087.txt
p296
sg4
g209
sg6
g38
sa(dp297
g2
VC34-Economy0089.txt
p298
sg4
g209
sg6
g38
sa(dp299
g2
VC34-Economy0091.txt
p300
sg4
g209
sg6
g38
sa(dp301
g2
VC34-Economy0093.txt
p302
sg4
g209
sg6
g38
sa(dp303
g2
VC34-Economy0095.txt
p304
sg4
g209
sg6
g258
sa(dp305
g2
VC34-Economy0097.txt
p306
sg4
g209
sg6
g38
sa(dp307
g2
VC34-Economy0099.txt
p308
sg4
g209
sg6
g38
sa(dp309
g2
VC34-Economy0101.txt
p310
sg4
g209
sg6
g38
sa(dp311
g2
VC34-Economy0103.txt
p312
sg4
g209
sg6
g38
sa(dp313
g2
VC34-Economy0105.txt
p314
sg4
g209
sg6
g38
sa(dp315
g2
VC34-Economy0107.txt
p316
sg4
g209
sg6
g38
sa(dp317
g2
VC34-Economy0109.txt
p318
sg4
g209
sg6
g38
sa(dp319
g2
VC34-Economy0111.txt
p320
sg4
g209
sg6
g38
sa(dp321
g2
VC34-Economy0113.txt
p322
sg4
g209
sg6
g38
sa(dp323
g2
VC34-Economy0115.txt
p324
sg4
g209
sg6
g38
sa(dp325
g2
VC34-Economy0117.txt
p326
sg4
g209
sg6
g258
sa(dp327
g2
VC34-Economy0119.txt
p328
sg4
g209
sg6
g38
sa(dp329
g2
VC34-Economy0121.txt
p330
sg4
g209
sg6
g38
sa(dp331
g2
VC34-Economy0123.txt
p332
sg4
g209
sg6
g38
sa(dp333
g2
VC34-Economy0125.txt
p334
sg4
g209
sg6
g38
sa(dp335
g2
VC34-Economy0127.txt
p336
sg4
g209
sg6
g258
sa(dp337
g2
VC34-Economy0129.txt
p338
sg4
g209
sg6
g38
sa(dp339
g2
VC34-Economy0131.txt
p340
sg4
g209
sg6
g38
sa(dp341
g2
VC34-Economy0133.txt
p342
sg4
g209
sg6
g38
sa(dp343
g2
VC34-Economy0135.txt
p344
sg4
g209
sg6
g38
sa(dp345
g2
VC34-Economy0136.txt
p346
sg4
g209
sg6
g38
sa(dp347
g2
VC34-Economy0138.txt
p348
sg4
g209
sg6
g38
sa(dp349
g2
VC34-Economy0140.txt
p350
sg4
g209
sg6
g38
sa(dp351
g2
VC34-Economy0142.txt
p352
sg4
g209
sg6
g38
sa(dp353
g2
VC34-Economy0144.txt
p354
sg4
g209
sg6
g38
sa(dp355
g2
VC34-Economy0146.txt
p356
sg4
g209
sg6
g38
sa(dp357
g2
VC34-Economy0148.txt
p358
sg4
g209
sg6
g258
sa(dp359
g2
VC34-Economy0150.txt
p360
sg4
g209
sg6
g38
sa(dp361
g2
VC34-Economy0152.txt
p362
sg4
g209
sg6
g38
sa(dp363
g2
VC34-Economy0154.txt
p364
sg4
g209
sg6
g258
sa(dp365
g2
VC34-Economy0156.txt
p366
sg4
g209
sg6
g38
sa(dp367
g2
VC34-Economy0158.txt
p368
sg4
g209
sg6
g38
sa(dp369
g2
VC34-Economy0160.txt
p370
sg4
g209
sg6
g258
sa(dp371
g2
VC34-Economy0162.txt
p372
sg4
g209
sg6
g7
sa(dp373
g2
VC34-Economy0164.txt
p374
sg4
g209
sg6
g258
sa(dp375
g2
VC34-Economy0166.txt
p376
sg4
g209
sg6
g258
sa(dp377
g2
VC34-Economy0168.txt
p378
sg4
g209
sg6
g38
sa(dp379
g2
VC34-Economy0170.txt
p380
sg4
g209
sg6
g38
sa(dp381
g2
VC34-Economy0172.txt
p382
sg4
g209
sg6
g258
sa(dp383
g2
VC34-Economy0174.txt
p384
sg4
g209
sg6
g258
sa(dp385
g2
VC34-Economy0176.txt
p386
sg4
g209
sg6
Vsports
p387
sa(dp388
g2
VC34-Economy0178.txt
p389
sg4
g209
sg6
g38
sa(dp390
g2
VC34-Economy0180.txt
p391
sg4
g209
sg6
g38
sa(dp392
g2
VC34-Economy0182.txt
p393
sg4
g209
sg6
g38
sa(dp394
g2
VC34-Economy0184.txt
p395
sg4
g209
sg6
g38
sa(dp396
g2
VC34-Economy0186.txt
p397
sg4
g209
sg6
g38
sa(dp398
g2
VC34-Economy0190.txt
p399
sg4
g209
sg6
g38
sa(dp400
g2
VC34-Economy0192.txt
p401
sg4
g209
sg6
g38
sa(dp402
g2
VC34-Economy0196.txt
p403
sg4
g209
sg6
g258
sa(dp404
g2
VC34-Economy0198.txt
p405
sg4
g209
sg6
g38
sa(dp406
g2
VC34-Economy0200.txt
p407
sg4
g209
sg6
g258
sa(dp408
g2
VC34-Economy0204.txt
p409
sg4
g209
sg6
g258
sa(dp410
g2
VC31-Enviornment0002.txt
p411
sg4
Venviornment
p412
sg6
g387
sa(dp413
g2
VC31-Enviornment0003.txt
p414
sg4
g412
sg6
Venviornment
p415
sa(dp416
g2
VC31-Enviornment0005.txt
p417
sg4
g412
sg6
g415
sa(dp418
g2
VC31-Enviornment0007.txt
p419
sg4
g412
sg6
g415
sa(dp420
g2
VC31-Enviornment0009.txt
p421
sg4
g412
sg6
g415
sa(dp422
g2
VC31-Enviornment0011.txt
p423
sg4
g412
sg6
g415
sa(dp424
g2
VC31-Enviornment0013.txt
p425
sg4
g412
sg6
g415
sa(dp426
g2
VC31-Enviornment0015.txt
p427
sg4
g412
sg6
g7
sa(dp428
g2
VC31-Enviornment0017.txt
p429
sg4
g412
sg6
g7
sa(dp430
g2
VC31-Enviornment0019.txt
p431
sg4
g412
sg6
g415
sa(dp432
g2
VC31-Enviornment0021.txt
p433
sg4
g412
sg6
g415
sa(dp434
g2
VC31-Enviornment0023.txt
p435
sg4
g412
sg6
g415
sa(dp436
g2
VC31-Enviornment0025.txt
p437
sg4
g412
sg6
g415
sa(dp438
g2
VC31-Enviornment0027.txt
p439
sg4
g412
sg6
g415
sa(dp440
g2
VC31-Enviornment0029.txt
p441
sg4
g412
sg6
g415
sa(dp442
g2
VC31-Enviornment0031.txt
p443
sg4
g412
sg6
g415
sa(dp444
g2
VC31-Enviornment0033.txt
p445
sg4
g412
sg6
g415
sa(dp446
g2
VC31-Enviornment0035.txt
p447
sg4
g412
sg6
g415
sa(dp448
g2
VC31-Enviornment0037.txt
p449
sg4
g412
sg6
g415
sa(dp450
g2
VC31-Enviornment0039.txt
p451
sg4
g412
sg6
g415
sa(dp452
g2
VC31-Enviornment0041.txt
p453
sg4
g412
sg6
g415
sa(dp454
g2
VC31-Enviornment0043.txt
p455
sg4
g412
sg6
g415
sa(dp456
g2
VC31-Enviornment0045.txt
p457
sg4
g412
sg6
g415
sa(dp458
g2
VC31-Enviornment0046.txt
p459
sg4
g412
sg6
g415
sa(dp460
g2
VC31-Enviornment0048.txt
p461
sg4
g412
sg6
g415
sa(dp462
g2
VC31-Enviornment0050.txt
p463
sg4
g412
sg6
g415
sa(dp464
g2
VC31-Enviornment0052.txt
p465
sg4
g412
sg6
g415
sa(dp466
g2
VC31-Enviornment0054.txt
p467
sg4
g412
sg6
g415
sa(dp468
g2
VC31-Enviornment0056.txt
p469
sg4
g412
sg6
g415
sa(dp470
g2
VC31-Enviornment0058.txt
p471
sg4
g412
sg6
g415
sa(dp472
g2
VC31-Enviornment0060.txt
p473
sg4
g412
sg6
g415
sa(dp474
g2
VC31-Enviornment0062.txt
p475
sg4
g412
sg6
g38
sa(dp476
g2
VC31-Enviornment0064.txt
p477
sg4
g412
sg6
g38
sa(dp478
g2
VC31-Enviornment0066.txt
p479
sg4
g412
sg6
g415
sa(dp480
g2
VC31-Enviornment0068.txt
p481
sg4
g412
sg6
g415
sa(dp482
g2
VC31-Enviornment0070.txt
p483
sg4
g412
sg6
g415
sa(dp484
g2
VC31-Enviornment0072.txt
p485
sg4
g412
sg6
g415
sa(dp486
g2
VC31-Enviornment0074.txt
p487
sg4
g412
sg6
g415
sa(dp488
g2
VC31-Enviornment0078.txt
p489
sg4
g412
sg6
g415
sa(dp490
g2
VC31-Enviornment0080.txt
p491
sg4
g412
sg6
g415
sa(dp492
g2
VC31-Enviornment0082.txt
p493
sg4
g412
sg6
g415
sa(dp494
g2
VC31-Enviornment0084.txt
p495
sg4
g412
sg6
g415
sa(dp496
g2
VC31-Enviornment0086.txt
p497
sg4
g412
sg6
g415
sa(dp498
g2
VC31-Enviornment0088.txt
p499
sg4
g412
sg6
g415
sa(dp500
g2
VC31-Enviornment0092.txt
p501
sg4
g412
sg6
g415
sa(dp502
g2
VC31-Enviornment0094.txt
p503
sg4
g412
sg6
g415
sa(dp504
g2
VC31-Enviornment0096.txt
p505
sg4
g412
sg6
g415
sa(dp506
g2
VC31-Enviornment0098.txt
p507
sg4
g412
sg6
g415
sa(dp508
g2
VC31-Enviornment0100.txt
p509
sg4
g412
sg6
g415
sa(dp510
g2
VC31-Enviornment0106.txt
p511
sg4
g412
sg6
g415
sa(dp512
g2
VC31-Enviornment0108.txt
p513
sg4
g412
sg6
g415
sa(dp514
g2
VC31-Enviornment0110.txt
p515
sg4
g412
sg6
g415
sa(dp516
g2
VC31-Enviornment0112.txt
p517
sg4
g412
sg6
g415
sa(dp518
g2
VC31-Enviornment0114.txt
p519
sg4
g412
sg6
g415
sa(dp520
g2
VC31-Enviornment0116.txt
p521
sg4
g412
sg6
g415
sa(dp522
g2
VC31-Enviornment0118.txt
p523
sg4
g412
sg6
g415
sa(dp524
g2
VC31-Enviornment0120.txt
p525
sg4
g412
sg6
g415
sa(dp526
g2
VC31-Enviornment0122.txt
p527
sg4
g412
sg6
g415
sa(dp528
g2
VC31-Enviornment0124.txt
p529
sg4
g412
sg6
g7
sa(dp530
g2
VC31-Enviornment0126.txt
p531
sg4
g412
sg6
g7
sa(dp532
g2
VC31-Enviornment0128.txt
p533
sg4
g412
sg6
g415
sa(dp534
g2
VC31-Enviornment0130.txt
p535
sg4
g412
sg6
g415
sa(dp536
g2
VC31-Enviornment0132.txt
p537
sg4
g412
sg6
g415
sa(dp538
g2
VC31-Enviornment0134.txt
p539
sg4
g412
sg6
g415
sa(dp540
g2
VC31-Enviornment0136.txt
p541
sg4
g412
sg6
g415
sa(dp542
g2
VC31-Enviornment0138.txt
p543
sg4
g412
sg6
g415
sa(dp544
g2
VC31-Enviornment0140.txt
p545
sg4
g412
sg6
g415
sa(dp546
g2
VC31-Enviornment0142.txt
p547
sg4
g412
sg6
g415
sa(dp548
g2
VC31-Enviornment0144.txt
p549
sg4
g412
sg6
g415
sa(dp550
g2
VC31-Enviornment0146.txt
p551
sg4
g412
sg6
g7
sa(dp552
g2
VC31-Enviornment0148.txt
p553
sg4
g412
sg6
g415
sa(dp554
g2
VC31-Enviornment0150.txt
p555
sg4
g412
sg6
g7
sa(dp556
g2
VC31-Enviornment0152.txt
p557
sg4
g412
sg6
g415
sa(dp558
g2
VC31-Enviornment0154.txt
p559
sg4
g412
sg6
g415
sa(dp560
g2
VC31-Enviornment0156.txt
p561
sg4
g412
sg6
g415
sa(dp562
g2
VC31-Enviornment0158.txt
p563
sg4
g412
sg6
g415
sa(dp564
g2
VC31-Enviornment0160.txt
p565
sg4
g412
sg6
g415
sa(dp566
g2
VC31-Enviornment0162.txt
p567
sg4
g412
sg6
g415
sa(dp568
g2
VC31-Enviornment0164.txt
p569
sg4
g412
sg6
g415
sa(dp570
g2
VC31-Enviornment0166.txt
p571
sg4
g412
sg6
g415
sa(dp572
g2
VC31-Enviornment0168.txt
p573
sg4
g412
sg6
g415
sa(dp574
g2
VC31-Enviornment0170.txt
p575
sg4
g412
sg6
g415
sa(dp576
g2
VC31-Enviornment0172.txt
p577
sg4
g412
sg6
g415
sa(dp578
g2
VC31-Enviornment0174.txt
p579
sg4
g412
sg6
g415
sa(dp580
g2
VC31-Enviornment0176.txt
p581
sg4
g412
sg6
g7
sa(dp582
g2
VC31-Enviornment0178.txt
p583
sg4
g412
sg6
g415
sa(dp584
g2
VC31-Enviornment0180.txt
p585
sg4
g412
sg6
g415
sa(dp586
g2
VC31-Enviornment0182.txt
p587
sg4
g412
sg6
g415
sa(dp588
g2
VC31-Enviornment0186.txt
p589
sg4
g412
sg6
g415
sa(dp590
g2
VC31-Enviornment0188.txt
p591
sg4
g412
sg6
g415
sa(dp592
g2
VC31-Enviornment0190.txt
p593
sg4
g412
sg6
g7
sa(dp594
g2
VC31-Enviornment0192.txt
p595
sg4
g412
sg6
g415
sa(dp596
g2
VC31-Enviornment0194.txt
p597
sg4
g412
sg6
g415
sa(dp598
g2
VC31-Enviornment0196.txt
p599
sg4
g412
sg6
g415
sa(dp600
g2
VC31-Enviornment0198.txt
p601
sg4
g412
sg6
g415
sa(dp602
g2
VC31-Enviornment0200.txt
p603
sg4
g412
sg6
g415
sa(dp604
g2
VC31-Enviornment0202.txt
p605
sg4
g412
sg6
g415
sa(dp606
g2
VC31-Enviornment0204.txt
p607
sg4
g412
sg6
g415
sa(dp608
g2
VC31-Enviornment0206.txt
p609
sg4
g412
sg6
g415
sa(dp610
g2
VC31-Enviornment0208.txt
p611
sg4
g412
sg6
g415
sa(dp612
g2
VC38-Politics0001.txt
p613
sg4
Vpolitics
p614
sg6
g258
sa(dp615
g2
VC38-Politics0002.txt
p616
sg4
g614
sg6
g258
sa(dp617
g2
VC38-Politics0004.txt
p618
sg4
g614
sg6
g258
sa(dp619
g2
VC38-Politics0006.txt
p620
sg4
g614
sg6
g258
sa(dp621
g2
VC38-Politics0008.txt
p622
sg4
g614
sg6
g258
sa(dp623
g2
VC38-Politics0010.txt
p624
sg4
g614
sg6
g258
sa(dp625
g2
VC38-Politics0012.txt
p626
sg4
g614
sg6
g258
sa(dp627
g2
VC38-Politics0014.txt
p628
sg4
g614
sg6
g258
sa(dp629
g2
VC38-Politics0016.txt
p630
sg4
g614
sg6
g258
sa(dp631
g2
VC38-Politics0019.txt
p632
sg4
g614
sg6
g258
sa(dp633
g2
VC38-Politics0021.txt
p634
sg4
g614
sg6
g258
sa(dp635
g2
VC38-Politics0023.txt
p636
sg4
g614
sg6
g258
sa(dp637
g2
VC38-Politics0025.txt
p638
sg4
g614
sg6
g258
sa(dp639
g2
VC38-Politics0027.txt
p640
sg4
g614
sg6
g258
sa(dp641
g2
VC38-Politics0029.txt
p642
sg4
g614
sg6
g258
sa(dp643
g2
VC38-Politics0031.txt
p644
sg4
g614
sg6
g258
sa(dp645
g2
VC38-Politics0033.txt
p646
sg4
g614
sg6
g258
sa(dp647
g2
VC38-Politics0035.txt
p648
sg4
g614
sg6
g258
sa(dp649
g2
VC38-Politics0037.txt
p650
sg4
g614
sg6
g387
sa(dp651
g2
VC38-Politics0039.txt
p652
sg4
g614
sg6
g258
sa(dp653
g2
VC38-Politics0041.txt
p654
sg4
g614
sg6
g258
sa(dp655
g2
VC38-Politics0043.txt
p656
sg4
g614
sg6
g258
sa(dp657
g2
VC38-Politics0045.txt
p658
sg4
g614
sg6
g258
sa(dp659
g2
VC38-Politics0047.txt
p660
sg4
g614
sg6
g258
sa(dp661
g2
VC38-Politics0049.txt
p662
sg4
g614
sg6
g258
sa(dp663
g2
VC38-Politics0051.txt
p664
sg4
g614
sg6
g258
sa(dp665
g2
VC38-Politics0053.txt
p666
sg4
g614
sg6
g258
sa(dp667
g2
VC38-Politics0055.txt
p668
sg4
g614
sg6
g258
sa(dp669
g2
VC38-Politics0057.txt
p670
sg4
g614
sg6
g258
sa(dp671
g2
VC38-Politics0059.txt
p672
sg4
g614
sg6
g258
sa(dp673
g2
VC38-Politics0061.txt
p674
sg4
g614
sg6
g258
sa(dp675
g2
VC38-Politics0063.txt
p676
sg4
g614
sg6
g258
sa(dp677
g2
VC38-Politics0065.txt
p678
sg4
g614
sg6
g258
sa(dp679
g2
VC38-Politics0067.txt
p680
sg4
g614
sg6
g38
sa(dp681
g2
VC38-Politics0069.txt
p682
sg4
g614
sg6
g258
sa(dp683
g2
VC38-Politics0071.txt
p684
sg4
g614
sg6
g258
sa(dp685
g2
VC38-Politics0073.txt
p686
sg4
g614
sg6
g38
sa(dp687
g2
VC38-Politics0074.txt
p688
sg4
g614
sg6
g258
sa(dp689
g2
VC38-Politics0076.txt
p690
sg4
g614
sg6
g258
sa(dp691
g2
VC38-Politics0078.txt
p692
sg4
g614
sg6
g258
sa(dp693
g2
VC38-Politics0080.txt
p694
sg4
g614
sg6
g258
sa(dp695
g2
VC38-Politics0082.txt
p696
sg4
g614
sg6
g258
sa(dp697
g2
VC38-Politics0084.txt
p698
sg4
g614
sg6
g258
sa(dp699
g2
VC38-Politics0086.txt
p700
sg4
g614
sg6
g258
sa(dp701
g2
VC38-Politics0088.txt
p702
sg4
g614
sg6
g258
sa(dp703
g2
VC38-Politics0090.txt
p704
sg4
g614
sg6
g258
sa(dp705
g2
VC38-Politics0092.txt
p706
sg4
g614
sg6
g258
sa(dp707
g2
VC38-Politics0094.txt
p708
sg4
g614
sg6
g258
sa(dp709
g2
VC38-Politics0096.txt
p710
sg4
g614
sg6
g258
sa(dp711
g2
VC38-Politics0098.txt
p712
sg4
g614
sg6
g258
sa(dp713
g2
VC38-Politics0100.txt
p714
sg4
g614
sg6
g258
sa(dp715
g2
VC38-Politics0102.txt
p716
sg4
g614
sg6
g258
sa(dp717
g2
VC38-Politics0104.txt
p718
sg4
g614
sg6
g258
sa(dp719
g2
VC38-Politics0106.txt
p720
sg4
g614
sg6
g258
sa(dp721
g2
VC38-Politics0108.txt
p722
sg4
g614
sg6
g258
sa(dp723
g2
VC38-Politics0110.txt
p724
sg4
g614
sg6
g258
sa(dp725
g2
VC38-Politics0112.txt
p726
sg4
g614
sg6
g258
sa(dp727
g2
VC38-Politics0114.txt
p728
sg4
g614
sg6
g258
sa(dp729
g2
VC38-Politics0116.txt
p730
sg4
g614
sg6
g258
sa(dp731
g2
VC38-Politics0118.txt
p732
sg4
g614
sg6
g258
sa(dp733
g2
VC38-Politics0120.txt
p734
sg4
g614
sg6
g258
sa(dp735
g2
VC38-Politics0122.txt
p736
sg4
g614
sg6
g258
sa(dp737
g2
VC38-Politics0124.txt
p738
sg4
g614
sg6
g258
sa(dp739
g2
VC38-Politics0126.txt
p740
sg4
g614
sg6
g258
sa(dp741
g2
VC38-Politics0128.txt
p742
sg4
g614
sg6
g258
sa(dp743
g2
VC38-Politics0130.txt
p744
sg4
g614
sg6
g258
sa(dp745
g2
VC38-Politics0132.txt
p746
sg4
g614
sg6
g258
sa(dp747
g2
VC38-Politics0134.txt
p748
sg4
g614
sg6
g258
sa(dp749
g2
VC38-Politics0136.txt
p750
sg4
g614
sg6
g258
sa(dp751
g2
VC38-Politics0138.txt
p752
sg4
g614
sg6
g258
sa(dp753
g2
VC38-Politics0140.txt
p754
sg4
g614
sg6
g258
sa(dp755
g2
VC38-Politics0142.txt
p756
sg4
g614
sg6
g258
sa(dp757
g2
VC38-Politics0144.txt
p758
sg4
g614
sg6
g258
sa(dp759
g2
VC38-Politics0146.txt
p760
sg4
g614
sg6
g258
sa(dp761
g2
VC38-Politics0148.txt
p762
sg4
g614
sg6
g258
sa(dp763
g2
VC38-Politics0150.txt
p764
sg4
g614
sg6
g258
sa(dp765
g2
VC38-Politics0152.txt
p766
sg4
g614
sg6
g258
sa(dp767
g2
VC38-Politics0154.txt
p768
sg4
g614
sg6
g258
sa(dp769
g2
VC38-Politics0156.txt
p770
sg4
g614
sg6
g258
sa(dp771
g2
VC38-Politics0158.txt
p772
sg4
g614
sg6
g258
sa(dp773
g2
VC38-Politics0160.txt
p774
sg4
g614
sg6
g258
sa(dp775
g2
VC38-Politics0162.txt
p776
sg4
g614
sg6
g258
sa(dp777
g2
VC38-Politics0164.txt
p778
sg4
g614
sg6
g258
sa(dp779
g2
VC38-Politics0166.txt
p780
sg4
g614
sg6
g258
sa(dp781
g2
VC38-Politics0168.txt
p782
sg4
g614
sg6
g258
sa(dp783
g2
VC38-Politics0170.txt
p784
sg4
g614
sg6
g258
sa(dp785
g2
VC38-Politics0172.txt
p786
sg4
g614
sg6
g258
sa(dp787
g2
VC38-Politics0174.txt
p788
sg4
g614
sg6
g258
sa(dp789
g2
VC38-Politics0176.txt
p790
sg4
g614
sg6
g258
sa(dp791
g2
VC38-Politics0178.txt
p792
sg4
g614
sg6
g258
sa(dp793
g2
VC38-Politics0180.txt
p794
sg4
g614
sg6
g258
sa(dp795
g2
VC38-Politics0182.txt
p796
sg4
g614
sg6
g258
sa(dp797
g2
VC38-Politics0185.txt
p798
sg4
g614
sg6
g258
sa(dp799
g2
VC38-Politics0187.txt
p800
sg4
g614
sg6
g258
sa(dp801
g2
VC38-Politics0189.txt
p802
sg4
g614
sg6
g258
sa(dp803
g2
VC38-Politics0191.txt
p804
sg4
g614
sg6
g258
sa(dp805
g2
VC38-Politics0193.txt
p806
sg4
g614
sg6
g258
sa(dp807
g2
VC38-Politics0195.txt
p808
sg4
g614
sg6
g258
sa(dp809
g2
VC38-Politics0197.txt
p810
sg4
g614
sg6
g258
sa(dp811
g2
VC38-Politics0199.txt
p812
sg4
g614
sg6
g258
sa(dp813
g2
VC39-Sports0001.txt
p814
sg4
Vsports
p815
sg6
g387
sa(dp816
g2
VC39-Sports0003.txt
p817
sg4
g815
sg6
g387
sa(dp818
g2
VC39-Sports0005.txt
p819
sg4
g815
sg6
g387
sa(dp820
g2
VC39-Sports0007.txt
p821
sg4
g815
sg6
g387
sa(dp822
g2
VC39-Sports0009.txt
p823
sg4
g815
sg6
g387
sa(dp824
g2
VC39-Sports0011.txt
p825
sg4
g815
sg6
g387
sa(dp826
g2
VC39-Sports0013.txt
p827
sg4
g815
sg6
g387
sa(dp828
g2
VC39-Sports0015.txt
p829
sg4
g815
sg6
g387
sa(dp830
g2
VC39-Sports0017.txt
p831
sg4
g815
sg6
g387
sa(dp832
g2
VC39-Sports0019.txt
p833
sg4
g815
sg6
g387
sa(dp834
g2
VC39-Sports0021.txt
p835
sg4
g815
sg6
g387
sa(dp836
g2
VC39-Sports0023.txt
p837
sg4
g815
sg6
g387
sa(dp838
g2
VC39-Sports0025.txt
p839
sg4
g815
sg6
g387
sa(dp840
g2
VC39-Sports0027.txt
p841
sg4
g815
sg6
g387
sa(dp842
g2
VC39-Sports0029.txt
p843
sg4
g815
sg6
g387
sa(dp844
g2
VC39-Sports0031.txt
p845
sg4
g815
sg6
g387
sa(dp846
g2
VC39-Sports0033.txt
p847
sg4
g815
sg6
g387
sa(dp848
g2
VC39-Sports0035.txt
p849
sg4
g815
sg6
g387
sa(dp850
g2
VC39-Sports0037.txt
p851
sg4
g815
sg6
g387
sa(dp852
g2
VC39-Sports0039.txt
p853
sg4
g815
sg6
g387
sa(dp854
g2
VC39-Sports0041.txt
p855
sg4
g815
sg6
g387
sa(dp856
g2
VC39-Sports0043.txt
p857
sg4
g815
sg6
g387
sa(dp858
g2
VC39-Sports0045.txt
p859
sg4
g815
sg6
g387
sa(dp860
g2
VC39-Sports0047.txt
p861
sg4
g815
sg6
g387
sa(dp862
g2
VC39-Sports0049.txt
p863
sg4
g815
sg6
g387
sa(dp864
g2
VC39-Sports0051.txt
p865
sg4
g815
sg6
g387
sa(dp866
g2
VC39-Sports0053.txt
p867
sg4
g815
sg6
g387
sa(dp868
g2
VC39-Sports0055.txt
p869
sg4
g815
sg6
g387
sa(dp870
g2
VC39-Sports0057.txt
p871
sg4
g815
sg6
g387
sa(dp872
g2
VC39-Sports0059.txt
p873
sg4
g815
sg6
g387
sa(dp874
g2
VC39-Sports0060.txt
p875
sg4
g815
sg6
g415
sa(dp876
g2
VC39-Sports0062.txt
p877
sg4
g815
sg6
g387
sa(dp878
g2
VC39-Sports0064.txt
p879
sg4
g815
sg6
g387
sa(dp880
g2
VC39-Sports0066.txt
p881
sg4
g815
sg6
g387
sa(dp882
g2
VC39-Sports0068.txt
p883
sg4
g815
sg6
g387
sa(dp884
g2
VC39-Sports0070.txt
p885
sg4
g815
sg6
g387
sa(dp886
g2
VC39-Sports0072.txt
p887
sg4
g815
sg6
g387
sa(dp888
g2
VC39-Sports0074.txt
p889
sg4
g815
sg6
g387
sa(dp890
g2
VC39-Sports0076.txt
p891
sg4
g815
sg6
g387
sa(dp892
g2
VC39-Sports0078.txt
p893
sg4
g815
sg6
g387
sa(dp894
g2
VC39-Sports0080.txt
p895
sg4
g815
sg6
g387
sa(dp896
g2
VC39-Sports0082.txt
p897
sg4
g815
sg6
g387
sa(dp898
g2
VC39-Sports0084.txt
p899
sg4
g815
sg6
g387
sa(dp900
g2
VC39-Sports0086.txt
p901
sg4
g815
sg6
g387
sa(dp902
g2
VC39-Sports0088.txt
p903
sg4
g815
sg6
g387
sa(dp904
g2
VC39-Sports0090.txt
p905
sg4
g815
sg6
g387
sa(dp906
g2
VC39-Sports0092.txt
p907
sg4
g815
sg6
g387
sa(dp908
g2
VC39-Sports0094.txt
p909
sg4
g815
sg6
g387
sa(dp910
g2
VC39-Sports0096.txt
p911
sg4
g815
sg6
g387
sa(dp912
g2
VC39-Sports0098.txt
p913
sg4
g815
sg6
g387
sa(dp914
g2
VC39-Sports0100.txt
p915
sg4
g815
sg6
g387
sa(dp916
g2
VC39-Sports0102.txt
p917
sg4
g815
sg6
g387
sa(dp918
g2
VC39-Sports0104.txt
p919
sg4
g815
sg6
g387
sa(dp920
g2
VC39-Sports0107.txt
p921
sg4
g815
sg6
g387
sa(dp922
g2
VC39-Sports0109.txt
p923
sg4
g815
sg6
g387
sa(dp924
g2
VC39-Sports0111.txt
p925
sg4
g815
sg6
g387
sa(dp926
g2
VC39-Sports0113.txt
p927
sg4
g815
sg6
g387
sa(dp928
g2
VC39-Sports0115.txt
p929
sg4
g815
sg6
g387
sa(dp930
g2
VC39-Sports0117.txt
p931
sg4
g815
sg6
g387
sa(dp932
g2
VC39-Sports0119.txt
p933
sg4
g815
sg6
g415
sa(dp934
g2
VC39-Sports0121.txt
p935
sg4
g815
sg6
g387
sa(dp936
g2
VC39-Sports0123.txt
p937
sg4
g815
sg6
g387
sa(dp938
g2
VC39-Sports0125.txt
p939
sg4
g815
sg6
g387
sa(dp940
g2
VC39-Sports0127.txt
p941
sg4
g815
sg6
g387
sa(dp942
g2
VC39-Sports0129.txt
p943
sg4
g815
sg6
g387
sa(dp944
g2
VC39-Sports0131.txt
p945
sg4
g815
sg6
g387
sa(dp946
g2
VC39-Sports0133.txt
p947
sg4
g815
sg6
g387
sa(dp948
g2
VC39-Sports0135.txt
p949
sg4
g815
sg6
g387
sa(dp950
g2
VC39-Sports0137.txt
p951
sg4
g815
sg6
g387
sa(dp952
g2
VC39-Sports0139.txt
p953
sg4
g815
sg6
g387
sa(dp954
g2
VC39-Sports0141.txt
p955
sg4
g815
sg6
g387
sa(dp956
g2
VC39-Sports0143.txt
p957
sg4
g815
sg6
g258
sa(dp958
g2
VC39-Sports0145.txt
p959
sg4
g815
sg6
g387
sa(dp960
g2
VC39-Sports0147.txt
p961
sg4
g815
sg6
g387
sa(dp962
g2
VC39-Sports0149.txt
p963
sg4
g815
sg6
g387
sa(dp964
g2
VC39-Sports0151.txt
p965
sg4
g815
sg6
g387
sa(dp966
g2
VC39-Sports0153.txt
p967
sg4
g815
sg6
g387
sa(dp968
g2
VC39-Sports0155.txt
p969
sg4
g815
sg6
g387
sa(dp970
g2
VC39-Sports0156.txt
p971
sg4
g815
sg6
g387
sa(dp972
g2
VC39-Sports0158.txt
p973
sg4
g815
sg6
g387
sa(dp974
g2
VC39-Sports0160.txt
p975
sg4
g815
sg6
g387
sa(dp976
g2
VC39-Sports0162.txt
p977
sg4
g815
sg6
g387
sa(dp978
g2
VC39-Sports0164.txt
p979
sg4
g815
sg6
g387
sa(dp980
g2
VC39-Sports0166.txt
p981
sg4
g815
sg6
g387
sa(dp982
g2
VC39-Sports0168.txt
p983
sg4
g815
sg6
g387
sa(dp984
g2
VC39-Sports0170.txt
p985
sg4
g815
sg6
g387
sa(dp986
g2
VC39-Sports0172.txt
p987
sg4
g815
sg6
g387
sa(dp988
g2
VC39-Sports0174.txt
p989
sg4
g815
sg6
g387
sa(dp990
g2
VC39-Sports0176.txt
p991
sg4
g815
sg6
g387
sa(dp992
g2
VC39-Sports0178.txt
p993
sg4
g815
sg6
g415
sa(dp994
g2
VC39-Sports0180.txt
p995
sg4
g815
sg6
g387
sa(dp996
g2
VC39-Sports0182.txt
p997
sg4
g815
sg6
g258
sa(dp998
g2
VC39-Sports0184.txt
p999
sg4
g815
sg6
g387
sa(dp1000
g2
VC39-Sports0186.txt
p1001
sg4
g815
sg6
g387
sa(dp1002
g2
VC39-Sports0188.txt
p1003
sg4
g815
sg6
g387
sa(dp1004
g2
VC39-Sports0190.txt
p1005
sg4
g815
sg6
g387
sa(dp1006
g2
VC39-Sports0192.txt
p1007
sg4
g815
sg6
g387
sa(dp1008
g2
VC39-Sports0194.txt
p1009
sg4
g815
sg6
g387
sa(dp1010
g2
VC39-Sports0196.txt
p1011
sg4
g815
sg6
g387
sa(dp1012
g2
VC39-Sports0198.txt
p1013
sg4
g815
sg6
g387
sa.