(lp0
(dp1
Vclassfilename
p2
Vsociety&law-207.txt
p3
sVreal_class
p4
Vsociety&law
p5
sVpre_class2
p6
Vsociety&law
p7
sa(dp8
g2
Vsociety&law-204.txt
p9
sg4
g5
sg6
g7
sa(dp10
g2
Vsociety&law-202.txt
p11
sg4
g5
sg6
Vhistory
p12
sa(dp13
g2
Vsociety&law-208.txt
p14
sg4
g5
sg6
g7
sa(dp15
g2
Vsociety&law-210.txt
p16
sg4
g5
sg6
g7
sa(dp17
g2
Vsociety&law-206.txt
p18
sg4
g5
sg6
Ventertainment
p19
sa(dp20
g2
Vsociety&law-201.txt
p21
sg4
g5
sg6
g7
sa(dp22
g2
Vsociety&law-205.txt
p23
sg4
g5
sg6
g12
sa(dp24
g2
Vsociety&law-203.txt
p25
sg4
g5
sg6
g7
sa(dp26
g2
Vsociety&law-200.txt
p27
sg4
g5
sg6
g7
sa(dp28
g2
Vsociety&law-209.txt
p29
sg4
g5
sg6
g7
sa(dp30
g2
Vit-201.txt
p31
sg4
Vit
p32
sg6
Veducation
p33
sa(dp34
g2
Vit-208.txt
p35
sg4
g32
sg6
Vit
p36
sa(dp37
g2
Vit-204.txt
p38
sg4
g32
sg6
g36
sa(dp39
g2
Vit-202.txt
p40
sg4
g32
sg6
g36
sa(dp41
g2
Vit-207.txt
p42
sg4
g32
sg6
g36
sa(dp43
g2
Vit-205.txt
p44
sg4
g32
sg6
g36
sa(dp45
g2
Vit-210.txt
p46
sg4
g32
sg6
g19
sa(dp47
g2
Vit-203.txt
p48
sg4
g32
sg6
g33
sa(dp49
g2
Vit-206.txt
p50
sg4
g32
sg6
g36
sa(dp51
g2
Vit-209.txt
p52
sg4
g32
sg6
g36
sa(dp53
g2
Ventertainment-208.txt
p54
sg4
Ventertainment
p55
sg6
g19
sa(dp56
g2
Ventertainment-209.txt
p57
sg4
g55
sg6
g33
sa(dp58
g2
Ventertainment-201.txt
p59
sg4
g55
sg6
g19
sa(dp60
g2
Ventertainment-202.txt
p61
sg4
g55
sg6
g19
sa(dp62
g2
Ventertainment-205.txt
p63
sg4
g55
sg6
g19
sa(dp64
g2
Ventertainment-206.txt
p65
sg4
g55
sg6
g19
sa(dp66
g2
Ventertainment-207.txt
p67
sg4
g55
sg6
g19
sa(dp68
g2
Ventertainment-203.txt
p69
sg4
g55
sg6
g19
sa(dp70
g2
Ventertainment-210.txt
p71
sg4
g55
sg6
g19
sa(dp72
g2
Ventertainment-204.txt
p73
sg4
g55
sg6
g19
sa(dp74
g2
Ventertainment-200.txt
p75
sg4
g55
sg6
g19
sa(dp76
g2
Vmilitary-208.txt
p77
sg4
Vmilitary
p78
sg6
Vmilitary
p79
sa(dp80
g2
Vmilitary-206.txt
p81
sg4
g78
sg6
g12
sa(dp82
g2
Vmilitary-204.txt
p83
sg4
g78
sg6
g33
sa(dp84
g2
Vmilitary-205.txt
p85
sg4
g78
sg6
g79
sa(dp86
g2
Vmilitary-209.txt
p87
sg4
g78
sg6
g79
sa(dp88
g2
Vmilitary-207.txt
p89
sg4
g78
sg6
g19
sa(dp90
g2
Vmilitary-201.txt
p91
sg4
g78
sg6
g79
sa(dp92
g2
Vmilitary-203.txt
p93
sg4
g78
sg6
g33
sa(dp94
g2
Vmilitary-200.txt
p95
sg4
g78
sg6
g79
sa(dp96
g2
Vmilitary-202.txt
p97
sg4
g78
sg6
g79
sa(dp98
g2
Vmilitary-210.txt
p99
sg4
g78
sg6
Vculture
p100
sa(dp101
g2
Vreading-203.txt
p102
sg4
Vreading
p103
sg6
g79
sa(dp104
g2
Vreading-202.txt
p105
sg4
g103
sg6
g100
sa(dp106
g2
Vreading-210.txt
p107
sg4
g103
sg6
g100
sa(dp108
g2
Vreading-201.txt
p109
sg4
g103
sg6
g79
sa(dp110
g2
Vreading-204.txt
p111
sg4
g103
sg6
g79
sa(dp112
g2
Vreading-200.txt
p113
sg4
g103
sg6
g12
sa(dp114
g2
Vreading-207.txt
p115
sg4
g103
sg6
g100
sa(dp116
g2
Vreading-209.txt
p117
sg4
g103
sg6
g33
sa(dp118
g2
Vreading-205.txt
p119
sg4
g103
sg6
g79
sa(dp120
g2
Vreading-208.txt
p121
sg4
g103
sg6
g19
sa(dp122
g2
Vreading-206.txt
p123
sg4
g103
sg6
g100
sa(dp124
g2
Vhistory-204.txt
p125
sg4
Vhistory
p126
sg6
g12
sa(dp127
g2
Vhistory-207.txt
p128
sg4
g126
sg6
g12
sa(dp129
g2
Vhistory-210.txt
p130
sg4
g126
sg6
g7
sa(dp131
g2
Vhistory-203.txt
p132
sg4
g126
sg6
g79
sa(dp133
g2
Vhistory-209.txt
p134
sg4
g126
sg6
g19
sa(dp135
g2
Vhistory-206.txt
p136
sg4
g126
sg6
g79
sa(dp137
g2
Vhistory-205.txt
p138
sg4
g126
sg6
g12
sa(dp139
g2
Vhistory-202.txt
p140
sg4
g126
sg6
g12
sa(dp141
g2
Vhistory-208.txt
p142
sg4
g126
sg6
g79
sa(dp143
g2
Vhistory-201.txt
p144
sg4
g126
sg6
g12
sa(dp145
g2
Vhistory-200.txt
p146
sg4
g126
sg6
g79
sa(dp147
g2
Veducation-71.txt
p148
sg4
Veducation
p149
sg6
g33
sa(dp150
g2
Veducation-65.txt
p151
sg4
g149
sg6
g33
sa(dp152
g2
Veducation-74.txt
p153
sg4
g149
sg6
g7
sa(dp154
g2
Veducation-69.txt
p155
sg4
g149
sg6
g33
sa(dp156
g2
Veducation-64.txt
p157
sg4
g149
sg6
g12
sa(dp158
g2
Veducation-76.txt
p159
sg4
g149
sg6
g100
sa(dp160
g2
Veducation-68.txt
p161
sg4
g149
sg6
g33
sa(dp162
g2
Veducation-78.txt
p163
sg4
g149
sg6
g33
sa(dp164
g2
Veducation-73.txt
p165
sg4
g149
sg6
g7
sa(dp166
g2
Veducation-62.txt
p167
sg4
g149
sg6
g33
sa(dp168
g2
Veducation-66.txt
p169
sg4
g149
sg6
g100
sa(dp170
g2
Veducation-75.txt
p171
sg4
g149
sg6
g100
sa(dp172
g2
Veducation-63.txt
p173
sg4
g149
sg6
g12
sa(dp174
g2
Veducation-67.txt
p175
sg4
g149
sg6
g33
sa(dp176
g2
Veducation-61.txt
p177
sg4
g149
sg6
g33
sa(dp178
g2
Veducation-77.txt
p179
sg4
g149
sg6
g33
sa(dp180
g2
Veducation-79.txt
p181
sg4
g149
sg6
g100
sa(dp182
g2
Veducation-72.txt
p183
sg4
g149
sg6
g33
sa(dp184
g2
Veducation-70.txt
p185
sg4
g149
sg6
g36
sa(dp186
g2
Vculture-202.txt
p187
sg4
Vculture
p188
sg6
g100
sa(dp189
g2
Vculture-207.txt
p190
sg4
g188
sg6
g7
sa(dp191
g2
Vculture-208.txt
p192
sg4
g188
sg6
g12
sa(dp193
g2
Vculture-209.txt
p194
sg4
g188
sg6
g79
sa(dp195
g2
Vculture-203.txt
p196
sg4
g188
sg6
g100
sa(dp197
g2
Vculture-206.txt
p198
sg4
g188
sg6
g12
sa(dp199
g2
Vculture-210.txt
p200
sg4
g188
sg6
g100
sa(dp201
g2
Vculture-201.txt
p202
sg4
g188
sg6
g100
sa(dp203
g2
Vculture-204.txt
p204
sg4
g188
sg6
g100
sa(dp205
g2
Vculture-205.txt
p206
sg4
g188
sg6
g12
sa.