(lp0
(dp1
Vclassfilename
p2
VC32-Agriculture0002.txt
p3
sVreal_class
p4
Vagriculture
p5
sVpre_class2
p6
Vagriculture
p7
sa(dp8
g2
VC32-Agriculture0003.txt
p9
sg4
g5
sg6
g7
sa(dp10
g2
VC32-Agriculture0005.txt
p11
sg4
g5
sg6
g7
sa(dp12
g2
VC32-Agriculture0007.txt
p13
sg4
g5
sg6
g7
sa(dp14
g2
VC32-Agriculture0009.txt
p15
sg4
g5
sg6
g7
sa(dp16
g2
VC32-Agriculture0011.txt
p17
sg4
g5
sg6
g7
sa(dp18
g2
VC32-Agriculture0013.txt
p19
sg4
g5
sg6
g7
sa(dp20
g2
VC32-Agriculture0015.txt
p21
sg4
g5
sg6
g7
sa(dp22
g2
VC32-Agriculture0017.txt
p23
sg4
g5
sg6
g7
sa(dp24
g2
VC32-Agriculture0019.txt
p25
sg4
g5
sg6
g7
sa(dp26
g2
VC32-Agriculture0021.txt
p27
sg4
g5
sg6
g7
sa(dp28
g2
VC32-Agriculture0023.txt
p29
sg4
g5
sg6
g7
sa(dp30
g2
VC32-Agriculture0025.txt
p31
sg4
g5
sg6
g7
sa(dp32
g2
VC32-Agriculture0027.txt
p33
sg4
g5
sg6
g7
sa(dp34
g2
VC32-Agriculture0029.txt
p35
sg4
g5
sg6
g7
sa(dp36
g2
VC32-Agriculture0031.txt
p37
sg4
g5
sg6
Veconomy
p38
sa(dp39
g2
VC32-Agriculture0033.txt
p40
sg4
g5
sg6
g7
sa(dp41
g2
VC32-Agriculture0035.txt
p42
sg4
g5
sg6
g7
sa(dp43
g2
VC32-Agriculture0037.txt
p44
sg4
g5
sg6
g7
sa(dp45
g2
VC32-Agriculture0039.txt
p46
sg4
g5
sg6
g7
sa(dp47
g2
VC32-Agriculture0041.txt
p48
sg4
g5
sg6
g7
sa(dp49
g2
VC32-Agriculture0043.txt
p50
sg4
g5
sg6
g7
sa(dp51
g2
VC32-Agriculture0045.txt
p52
sg4
g5
sg6
g7
sa(dp53
g2
VC32-Agriculture0047.txt
p54
sg4
g5
sg6
g7
sa(dp55
g2
VC32-Agriculture0049.txt
p56
sg4
g5
sg6
g7
sa(dp57
g2
VC32-Agriculture0051.txt
p58
sg4
g5
sg6
g7
sa(dp59
g2
VC32-Agriculture0053.txt
p60
sg4
g5
sg6
g7
sa(dp61
g2
VC32-Agriculture0055.txt
p62
sg4
g5
sg6
g7
sa(dp63
g2
VC32-Agriculture0057.txt
p64
sg4
g5
sg6
g7
sa(dp65
g2
VC32-Agriculture0059.txt
p66
sg4
g5
sg6
g7
sa(dp67
g2
VC32-Agriculture0061.txt
p68
sg4
g5
sg6
g7
sa(dp69
g2
VC32-Agriculture0063.txt
p70
sg4
g5
sg6
g7
sa(dp71
g2
VC32-Agriculture0064.txt
p72
sg4
g5
sg6
g7
sa(dp73
g2
VC32-Agriculture0066.txt
p74
sg4
g5
sg6
g7
sa(dp75
g2
VC32-Agriculture0068.txt
p76
sg4
g5
sg6
g7
sa(dp77
g2
VC32-Agriculture0070.txt
p78
sg4
g5
sg6
g7
sa(dp79
g2
VC32-Agriculture0072.txt
p80
sg4
g5
sg6
g7
sa(dp81
g2
VC32-Agriculture0074.txt
p82
sg4
g5
sg6
g7
sa(dp83
g2
VC32-Agriculture0076.txt
p84
sg4
g5
sg6
g7
sa(dp85
g2
VC32-Agriculture0078.txt
p86
sg4
g5
sg6
g7
sa(dp87
g2
VC32-Agriculture0080.txt
p88
sg4
g5
sg6
g7
sa(dp89
g2
VC32-Agriculture0082.txt
p90
sg4
g5
sg6
g7
sa(dp91
g2
VC32-Agriculture0084.txt
p92
sg4
g5
sg6
g7
sa(dp93
g2
VC32-Agriculture0086.txt
p94
sg4
g5
sg6
g7
sa(dp95
g2
VC32-Agriculture0088.txt
p96
sg4
g5
sg6
g7
sa(dp97
g2
VC32-Agriculture0090.txt
p98
sg4
g5
sg6
g7
sa(dp99
g2
VC32-Agriculture0092.txt
p100
sg4
g5
sg6
g7
sa(dp101
g2
VC32-Agriculture0094.txt
p102
sg4
g5
sg6
g7
sa(dp103
g2
VC32-Agriculture0096.txt
p104
sg4
g5
sg6
g7
sa(dp105
g2
VC32-Agriculture0098.txt
p106
sg4
g5
sg6
g7
sa(dp107
g2
VC32-Agriculture0100.txt
p108
sg4
g5
sg6
g7
sa(dp109
g2
VC32-Agriculture0102.txt
p110
sg4
g5
sg6
g7
sa(dp111
g2
VC32-Agriculture0104.txt
p112
sg4
g5
sg6
g7
sa(dp113
g2
VC32-Agriculture0106.txt
p114
sg4
g5
sg6
g7
sa(dp115
g2
VC32-Agriculture0108.txt
p116
sg4
g5
sg6
g7
sa(dp117
g2
VC32-Agriculture0110.txt
p118
sg4
g5
sg6
g7
sa(dp119
g2
VC32-Agriculture0112.txt
p120
sg4
g5
sg6
g7
sa(dp121
g2
VC32-Agriculture0114.txt
p122
sg4
g5
sg6
g7
sa(dp123
g2
VC32-Agriculture0116.txt
p124
sg4
g5
sg6
g7
sa(dp125
g2
VC32-Agriculture0118.txt
p126
sg4
g5
sg6
g7
sa(dp127
g2
VC32-Agriculture0120.txt
p128
sg4
g5
sg6
g7
sa(dp129
g2
VC32-Agriculture0123.txt
p130
sg4
g5
sg6
g7
sa(dp131
g2
VC32-Agriculture0125.txt
p132
sg4
g5
sg6
g7
sa(dp133
g2
VC32-Agriculture0127.txt
p134
sg4
g5
sg6
g7
sa(dp135
g2
VC32-Agriculture0129.txt
p136
sg4
g5
sg6
g7
sa(dp137
g2
VC32-Agriculture0131.txt
p138
sg4
g5
sg6
g7
sa(dp139
g2
VC32-Agriculture0133.txt
p140
sg4
g5
sg6
g7
sa(dp141
g2
VC32-Agriculture0135.txt
p142
sg4
g5
sg6
g7
sa(dp143
g2
VC32-Agriculture0137.txt
p144
sg4
g5
sg6
g7
sa(dp145
g2
VC32-Agriculture0139.txt
p146
sg4
g5
sg6
g7
sa(dp147
g2
VC32-Agriculture0141.txt
p148
sg4
g5
sg6
g7
sa(dp149
g2
VC32-Agriculture0143.txt
p150
sg4
g5
sg6
g7
sa(dp151
g2
VC32-Agriculture0145.txt
p152
sg4
g5
sg6
g7
sa(dp153
g2
VC32-Agriculture0147.txt
p154
sg4
g5
sg6
g7
sa(dp155
g2
VC32-Agriculture0149.txt
p156
sg4
g5
sg6
g7
sa(dp157
g2
VC32-Agriculture0151.txt
p158
sg4
g5
sg6
g7
sa(dp159
g2
VC32-Agriculture0153.txt
p160
sg4
g5
sg6
g7
sa(dp161
g2
VC32-Agriculture0155.txt
p162
sg4
g5
sg6
g7
sa(dp163
g2
VC32-Agriculture0157.txt
p164
sg4
g5
sg6
g7
sa(dp165
g2
VC32-Agriculture0159.txt
p166
sg4
g5
sg6
g7
sa(dp167
g2
VC32-Agriculture0161.txt
p168
sg4
g5
sg6
g7
sa(dp169
g2
VC32-Agriculture0163.txt
p170
sg4
g5
sg6
g7
sa(dp171
g2
VC32-Agriculture0165.txt
p172
sg4
g5
sg6
g7
sa(dp173
g2
VC32-Agriculture0167.txt
p174
sg4
g5
sg6
g7
sa(dp175
g2
VC32-Agriculture0169.txt
p176
sg4
g5
sg6
g7
sa(dp177
g2
VC32-Agriculture0171.txt
p178
sg4
g5
sg6
g7
sa(dp179
g2
VC32-Agriculture0173.txt
p180
sg4
g5
sg6
g7
sa(dp181
g2
VC32-Agriculture0175.txt
p182
sg4
g5
sg6
g7
sa(dp183
g2
VC32-Agriculture0177.txt
p184
sg4
g5
sg6
g7
sa(dp185
g2
VC32-Agriculture0179.txt
p186
sg4
g5
sg6
g7
sa(dp187
g2
VC32-Agriculture0181.txt
p188
sg4
g5
sg6
g7
sa(dp189
g2
VC32-Agriculture0183.txt
p190
sg4
g5
sg6
g7
sa(dp191
g2
VC32-Agriculture0185.txt
p192
sg4
g5
sg6
g7
sa(dp193
g2
VC32-Agriculture0187.txt
p194
sg4
g5
sg6
g7
sa(dp195
g2
VC32-Agriculture0189.txt
p196
sg4
g5
sg6
g7
sa(dp197
g2
VC32-Agriculture0191.txt
p198
sg4
g5
sg6
g7
sa(dp199
g2
VC32-Agriculture0193.txt
p200
sg4
g5
sg6
g7
sa(dp201
g2
VC32-Agriculture0195.txt
p202
sg4
g5
sg6
g7
sa(dp203
g2
VC32-Agriculture0197.txt
p204
sg4
g5
sg6
g38
sa(dp205
g2
VC32-Agriculture0199.txt
p206
sg4
g5
sg6
g7
sa(dp207
g2
VC32-Agriculture0201.txt
p208
sg4
g5
sg6
g7
sa(dp209
g2
VC32-Agriculture0203.txt
p210
sg4
g5
sg6
g38
sa(dp211
g2
VC32-Agriculture0205.txt
p212
sg4
g5
sg6
g38
sa(dp213
g2
VC32-Agriculture0207.txt
p214
sg4
g5
sg6
g7
sa(dp215
g2
VC32-Agriculture0209.txt
p216
sg4
g5
sg6
g7
sa(dp217
g2
VC32-Agriculture0211.txt
p218
sg4
g5
sg6
g38
sa(dp219
g2
VC32-Agriculture0213.txt
p220
sg4
g5
sg6
g38
sa(dp221
g2
VC32-Agriculture0215.txt
p222
sg4
g5
sg6
g7
sa(dp223
g2
VC32-Agriculture0217.txt
p224
sg4
g5
sg6
g38
sa(dp225
g2
VC32-Agriculture0219.txt
p226
sg4
g5
sg6
g7
sa(dp227
g2
VC32-Agriculture0221.txt
p228
sg4
g5
sg6
g7
sa(dp229
g2
VC32-Agriculture0223.txt
p230
sg4
g5
sg6
g7
sa(dp231
g2
VC32-Agriculture0225.txt
p232
sg4
g5
sg6
g7
sa(dp233
g2
VC32-Agriculture0227.txt
p234
sg4
g5
sg6
g7
sa(dp235
g2
VC32-Agriculture0229.txt
p236
sg4
g5
sg6
g7
sa(dp237
g2
VC32-Agriculture0231.txt
p238
sg4
g5
sg6
g7
sa(dp239
g2
VC32-Agriculture0233.txt
p240
sg4
g5
sg6
g7
sa(dp241
g2
VC32-Agriculture0235.txt
p242
sg4
g5
sg6
g7
sa(dp243
g2
VC32-Agriculture0237.txt
p244
sg4
g5
sg6
g7
sa(dp245
g2
VC32-Agriculture0239.txt
p246
sg4
g5
sg6
g7
sa(dp247
g2
VC32-Agriculture0241.txt
p248
sg4
g5
sg6
g7
sa(dp249
g2
VC32-Agriculture0243.txt
p250
sg4
g5
sg6
g7
sa(dp251
g2
VC32-Agriculture0245.txt
p252
sg4
g5
sg6
g7
sa(dp253
g2
VC32-Agriculture0247.txt
p254
sg4
g5
sg6
g7
sa(dp255
g2
VC32-Agriculture0249.txt
p256
sg4
g5
sg6
g7
sa(dp257
g2
VC32-Agriculture0251.txt
p258
sg4
g5
sg6
g7
sa(dp259
g2
VC32-Agriculture0253.txt
p260
sg4
g5
sg6
g7
sa(dp261
g2
VC32-Agriculture0254.txt
p262
sg4
g5
sg6
g7
sa(dp263
g2
VC32-Agriculture0256.txt
p264
sg4
g5
sg6
g7
sa(dp265
g2
VC32-Agriculture0258.txt
p266
sg4
g5
sg6
g7
sa(dp267
g2
VC32-Agriculture0260.txt
p268
sg4
g5
sg6
g7
sa(dp269
g2
VC32-Agriculture0262.txt
p270
sg4
g5
sg6
g7
sa(dp271
g2
VC32-Agriculture0264.txt
p272
sg4
g5
sg6
g7
sa(dp273
g2
VC32-Agriculture0266.txt
p274
sg4
g5
sg6
g38
sa(dp275
g2
VC32-Agriculture0268.txt
p276
sg4
g5
sg6
g7
sa(dp277
g2
VC32-Agriculture0270.txt
p278
sg4
g5
sg6
g7
sa(dp279
g2
VC32-Agriculture0272.txt
p280
sg4
g5
sg6
Venviornment
p281
sa(dp282
g2
VC32-Agriculture0274.txt
p283
sg4
g5
sg6
g7
sa(dp284
g2
VC32-Agriculture0276.txt
p285
sg4
g5
sg6
g7
sa(dp286
g2
VC32-Agriculture0278.txt
p287
sg4
g5
sg6
g7
sa(dp288
g2
VC32-Agriculture0280.txt
p289
sg4
g5
sg6
g7
sa(dp290
g2
VC32-Agriculture0282.txt
p291
sg4
g5
sg6
g7
sa(dp292
g2
VC32-Agriculture0284.txt
p293
sg4
g5
sg6
g7
sa(dp294
g2
VC32-Agriculture0286.txt
p295
sg4
g5
sg6
g7
sa(dp296
g2
VC32-Agriculture0288.txt
p297
sg4
g5
sg6
g7
sa(dp298
g2
VC32-Agriculture0290.txt
p299
sg4
g5
sg6
g7
sa(dp300
g2
VC32-Agriculture0292.txt
p301
sg4
g5
sg6
g7
sa(dp302
g2
VC32-Agriculture0294.txt
p303
sg4
g5
sg6
g7
sa(dp304
g2
VC32-Agriculture0296.txt
p305
sg4
g5
sg6
g7
sa(dp306
g2
VC32-Agriculture0298.txt
p307
sg4
g5
sg6
g7
sa(dp308
g2
VC32-Agriculture0300.txt
p309
sg4
g5
sg6
g7
sa(dp310
g2
VC32-Agriculture0302.txt
p311
sg4
g5
sg6
g7
sa(dp312
g2
VC32-Agriculture0304.txt
p313
sg4
g5
sg6
g38
sa(dp314
g2
VC32-Agriculture0306.txt
p315
sg4
g5
sg6
g7
sa(dp316
g2
VC32-Agriculture0308.txt
p317
sg4
g5
sg6
g7
sa(dp318
g2
VC32-Agriculture0310.txt
p319
sg4
g5
sg6
g7
sa(dp320
g2
VC32-Agriculture0312.txt
p321
sg4
g5
sg6
g7
sa(dp322
g2
VC32-Agriculture0314.txt
p323
sg4
g5
sg6
g7
sa(dp324
g2
VC32-Agriculture0317.txt
p325
sg4
g5
sg6
g7
sa(dp326
g2
VC32-Agriculture0319.txt
p327
sg4
g5
sg6
g7
sa(dp328
g2
VC32-Agriculture0321.txt
p329
sg4
g5
sg6
g7
sa(dp330
g2
VC32-Agriculture0323.txt
p331
sg4
g5
sg6
g7
sa(dp332
g2
VC32-Agriculture0325.txt
p333
sg4
g5
sg6
g7
sa(dp334
g2
VC32-Agriculture0327.txt
p335
sg4
g5
sg6
g7
sa(dp336
g2
VC32-Agriculture0329.txt
p337
sg4
g5
sg6
g7
sa(dp338
g2
VC32-Agriculture0331.txt
p339
sg4
g5
sg6
g7
sa(dp340
g2
VC32-Agriculture0333.txt
p341
sg4
g5
sg6
g7
sa(dp342
g2
VC32-Agriculture0335.txt
p343
sg4
g5
sg6
g7
sa(dp344
g2
VC32-Agriculture0337.txt
p345
sg4
g5
sg6
g7
sa(dp346
g2
VC32-Agriculture0339.txt
p347
sg4
g5
sg6
g7
sa(dp348
g2
VC32-Agriculture0341.txt
p349
sg4
g5
sg6
g7
sa(dp350
g2
VC32-Agriculture0343.txt
p351
sg4
g5
sg6
g7
sa(dp352
g2
VC32-Agriculture0345.txt
p353
sg4
g5
sg6
g7
sa(dp354
g2
VC32-Agriculture0347.txt
p355
sg4
g5
sg6
g7
sa(dp356
g2
VC32-Agriculture0349.txt
p357
sg4
g5
sg6
g7
sa(dp358
g2
VC32-Agriculture0351.txt
p359
sg4
g5
sg6
g7
sa(dp360
g2
VC32-Agriculture0353.txt
p361
sg4
g5
sg6
g7
sa(dp362
g2
VC32-Agriculture0355.txt
p363
sg4
g5
sg6
g7
sa(dp364
g2
VC32-Agriculture0357.txt
p365
sg4
g5
sg6
g7
sa(dp366
g2
VC32-Agriculture0359.txt
p367
sg4
g5
sg6
g7
sa(dp368
g2
VC32-Agriculture0361.txt
p369
sg4
g5
sg6
g7
sa(dp370
g2
VC32-Agriculture0363.txt
p371
sg4
g5
sg6
g7
sa(dp372
g2
VC32-Agriculture0365.txt
p373
sg4
g5
sg6
g7
sa(dp374
g2
VC32-Agriculture0367.txt
p375
sg4
g5
sg6
g7
sa(dp376
g2
VC32-Agriculture0369.txt
p377
sg4
g5
sg6
g7
sa(dp378
g2
VC32-Agriculture0371.txt
p379
sg4
g5
sg6
g7
sa(dp380
g2
VC32-Agriculture0373.txt
p381
sg4
g5
sg6
g7
sa(dp382
g2
VC32-Agriculture0375.txt
p383
sg4
g5
sg6
g7
sa(dp384
g2
VC32-Agriculture0377.txt
p385
sg4
g5
sg6
g7
sa(dp386
g2
VC32-Agriculture0378.txt
p387
sg4
g5
sg6
g7
sa(dp388
g2
VC32-Agriculture0380.txt
p389
sg4
g5
sg6
g7
sa(dp390
g2
VC32-Agriculture0382.txt
p391
sg4
g5
sg6
g7
sa(dp392
g2
VC32-Agriculture0384.txt
p393
sg4
g5
sg6
g7
sa(dp394
g2
VC32-Agriculture0386.txt
p395
sg4
g5
sg6
g7
sa(dp396
g2
VC32-Agriculture0388.txt
p397
sg4
g5
sg6
g7
sa(dp398
g2
VC32-Agriculture0390.txt
p399
sg4
g5
sg6
g7
sa(dp400
g2
VC32-Agriculture0392.txt
p401
sg4
g5
sg6
g38
sa(dp402
g2
VC32-Agriculture0394.txt
p403
sg4
g5
sg6
g38
sa(dp404
g2
VC32-Agriculture0396.txt
p405
sg4
g5
sg6
g7
sa(dp406
g2
VC32-Agriculture0398.txt
p407
sg4
g5
sg6
g7
sa(dp408
g2
VC34-Economy0002.txt
p409
sg4
Veconomy
p410
sg6
g38
sa(dp411
g2
VC34-Economy0003.txt
p412
sg4
g410
sg6
g38
sa(dp413
g2
VC34-Economy0004.txt
p414
sg4
g410
sg6
g38
sa(dp415
g2
VC34-Economy0006.txt
p416
sg4
g410
sg6
g7
sa(dp417
g2
VC34-Economy0008.txt
p418
sg4
g410
sg6
g38
sa(dp419
g2
VC34-Economy0010.txt
p420
sg4
g410
sg6
g38
sa(dp421
g2
VC34-Economy0012.txt
p422
sg4
g410
sg6
g38
sa(dp423
g2
VC34-Economy0014.txt
p424
sg4
g410
sg6
g38
sa(dp425
g2
VC34-Economy0016.txt
p426
sg4
g410
sg6
g38
sa(dp427
g2
VC34-Economy0018.txt
p428
sg4
g410
sg6
g38
sa(dp429
g2
VC34-Economy0020.txt
p430
sg4
g410
sg6
g38
sa(dp431
g2
VC34-Economy0022.txt
p432
sg4
g410
sg6
g38
sa(dp433
g2
VC34-Economy0024.txt
p434
sg4
g410
sg6
g38
sa(dp435
g2
VC34-Economy0026.txt
p436
sg4
g410
sg6
g38
sa(dp437
g2
VC34-Economy0028.txt
p438
sg4
g410
sg6
g38
sa(dp439
g2
VC34-Economy0030.txt
p440
sg4
g410
sg6
g38
sa(dp441
g2
VC34-Economy0032.txt
p442
sg4
g410
sg6
g38
sa(dp443
g2
VC34-Economy0034.txt
p444
sg4
g410
sg6
g38
sa(dp445
g2
VC34-Economy0036.txt
p446
sg4
g410
sg6
g38
sa(dp447
g2
VC34-Economy0038.txt
p448
sg4
g410
sg6
g38
sa(dp449
g2
VC34-Economy0040.txt
p450
sg4
g410
sg6
g38
sa(dp451
g2
VC34-Economy0042.txt
p452
sg4
g410
sg6
g7
sa(dp453
g2
VC34-Economy0044.txt
p454
sg4
g410
sg6
g38
sa(dp455
g2
VC34-Economy0046.txt
p456
sg4
g410
sg6
g38
sa(dp457
g2
VC34-Economy0048.txt
p458
sg4
g410
sg6
Vpolitics
p459
sa(dp460
g2
VC34-Economy0050.txt
p461
sg4
g410
sg6
g459
sa(dp462
g2
VC34-Economy0052.txt
p463
sg4
g410
sg6
g459
sa(dp464
g2
VC34-Economy0054.txt
p465
sg4
g410
sg6
g38
sa(dp466
g2
VC34-Economy0056.txt
p467
sg4
g410
sg6
g459
sa(dp468
g2
VC34-Economy0058.txt
p469
sg4
g410
sg6
g459
sa(dp470
g2
VC34-Economy0060.txt
p471
sg4
g410
sg6
g38
sa(dp472
g2
VC34-Economy0062.txt
p473
sg4
g410
sg6
g38
sa(dp474
g2
VC34-Economy0064.txt
p475
sg4
g410
sg6
g38
sa(dp476
g2
VC34-Economy0066.txt
p477
sg4
g410
sg6
g459
sa(dp478
g2
VC34-Economy0068.txt
p479
sg4
g410
sg6
g459
sa(dp480
g2
VC34-Economy0070.txt
p481
sg4
g410
sg6
g38
sa(dp482
g2
VC34-Economy0073.txt
p483
sg4
g410
sg6
g38
sa(dp484
g2
VC34-Economy0075.txt
p485
sg4
g410
sg6
g38
sa(dp486
g2
VC34-Economy0077.txt
p487
sg4
g410
sg6
g38
sa(dp488
g2
VC34-Economy0079.txt
p489
sg4
g410
sg6
g38
sa(dp490
g2
VC34-Economy0081.txt
p491
sg4
g410
sg6
g38
sa(dp492
g2
VC34-Economy0083.txt
p493
sg4
g410
sg6
g7
sa(dp494
g2
VC34-Economy0085.txt
p495
sg4
g410
sg6
g38
sa(dp496
g2
VC34-Economy0087.txt
p497
sg4
g410
sg6
g38
sa(dp498
g2
VC34-Economy0089.txt
p499
sg4
g410
sg6
g38
sa(dp500
g2
VC34-Economy0091.txt
p501
sg4
g410
sg6
g38
sa(dp502
g2
VC34-Economy0093.txt
p503
sg4
g410
sg6
g38
sa(dp504
g2
VC34-Economy0095.txt
p505
sg4
g410
sg6
g459
sa(dp506
g2
VC34-Economy0097.txt
p507
sg4
g410
sg6
g38
sa(dp508
g2
VC34-Economy0099.txt
p509
sg4
g410
sg6
g38
sa(dp510
g2
VC34-Economy0101.txt
p511
sg4
g410
sg6
g38
sa(dp512
g2
VC34-Economy0103.txt
p513
sg4
g410
sg6
g38
sa(dp514
g2
VC34-Economy0105.txt
p515
sg4
g410
sg6
g38
sa(dp516
g2
VC34-Economy0107.txt
p517
sg4
g410
sg6
g38
sa(dp518
g2
VC34-Economy0109.txt
p519
sg4
g410
sg6
g38
sa(dp520
g2
VC34-Economy0111.txt
p521
sg4
g410
sg6
g38
sa(dp522
g2
VC34-Economy0113.txt
p523
sg4
g410
sg6
g38
sa(dp524
g2
VC34-Economy0115.txt
p525
sg4
g410
sg6
g38
sa(dp526
g2
VC34-Economy0117.txt
p527
sg4
g410
sg6
g459
sa(dp528
g2
VC34-Economy0119.txt
p529
sg4
g410
sg6
g38
sa(dp530
g2
VC34-Economy0121.txt
p531
sg4
g410
sg6
g38
sa(dp532
g2
VC34-Economy0123.txt
p533
sg4
g410
sg6
g38
sa(dp534
g2
VC34-Economy0125.txt
p535
sg4
g410
sg6
g38
sa(dp536
g2
VC34-Economy0127.txt
p537
sg4
g410
sg6
g459
sa(dp538
g2
VC34-Economy0129.txt
p539
sg4
g410
sg6
g38
sa(dp540
g2
VC34-Economy0131.txt
p541
sg4
g410
sg6
g38
sa(dp542
g2
VC34-Economy0133.txt
p543
sg4
g410
sg6
g38
sa(dp544
g2
VC34-Economy0135.txt
p545
sg4
g410
sg6
g38
sa(dp546
g2
VC34-Economy0136.txt
p547
sg4
g410
sg6
g38
sa(dp548
g2
VC34-Economy0138.txt
p549
sg4
g410
sg6
g38
sa(dp550
g2
VC34-Economy0140.txt
p551
sg4
g410
sg6
g38
sa(dp552
g2
VC34-Economy0142.txt
p553
sg4
g410
sg6
g38
sa(dp554
g2
VC34-Economy0144.txt
p555
sg4
g410
sg6
g38
sa(dp556
g2
VC34-Economy0146.txt
p557
sg4
g410
sg6
g38
sa(dp558
g2
VC34-Economy0148.txt
p559
sg4
g410
sg6
g459
sa(dp560
g2
VC34-Economy0150.txt
p561
sg4
g410
sg6
g38
sa(dp562
g2
VC34-Economy0152.txt
p563
sg4
g410
sg6
g38
sa(dp564
g2
VC34-Economy0154.txt
p565
sg4
g410
sg6
g459
sa(dp566
g2
VC34-Economy0156.txt
p567
sg4
g410
sg6
g38
sa(dp568
g2
VC34-Economy0158.txt
p569
sg4
g410
sg6
g38
sa(dp570
g2
VC34-Economy0160.txt
p571
sg4
g410
sg6
g459
sa(dp572
g2
VC34-Economy0162.txt
p573
sg4
g410
sg6
g7
sa(dp574
g2
VC34-Economy0164.txt
p575
sg4
g410
sg6
g459
sa(dp576
g2
VC34-Economy0166.txt
p577
sg4
g410
sg6
g459
sa(dp578
g2
VC34-Economy0168.txt
p579
sg4
g410
sg6
g38
sa(dp580
g2
VC34-Economy0170.txt
p581
sg4
g410
sg6
g38
sa(dp582
g2
VC34-Economy0172.txt
p583
sg4
g410
sg6
g459
sa(dp584
g2
VC34-Economy0174.txt
p585
sg4
g410
sg6
g459
sa(dp586
g2
VC34-Economy0176.txt
p587
sg4
g410
sg6
Vsports
p588
sa(dp589
g2
VC34-Economy0178.txt
p590
sg4
g410
sg6
g38
sa(dp591
g2
VC34-Economy0180.txt
p592
sg4
g410
sg6
g38
sa(dp593
g2
VC34-Economy0182.txt
p594
sg4
g410
sg6
g38
sa(dp595
g2
VC34-Economy0184.txt
p596
sg4
g410
sg6
g38
sa(dp597
g2
VC34-Economy0186.txt
p598
sg4
g410
sg6
g38
sa(dp599
g2
VC34-Economy0190.txt
p600
sg4
g410
sg6
g38
sa(dp601
g2
VC34-Economy0192.txt
p602
sg4
g410
sg6
g38
sa(dp603
g2
VC34-Economy0196.txt
p604
sg4
g410
sg6
g459
sa(dp605
g2
VC34-Economy0198.txt
p606
sg4
g410
sg6
g38
sa(dp607
g2
VC34-Economy0200.txt
p608
sg4
g410
sg6
g459
sa(dp609
g2
VC34-Economy0204.txt
p610
sg4
g410
sg6
g459
sa(dp611
g2
VC34-Economy0212.txt
p612
sg4
g410
sg6
g38
sa(dp613
g2
VC34-Economy0214.txt
p614
sg4
g410
sg6
g459
sa(dp615
g2
VC34-Economy0216.txt
p616
sg4
g410
sg6
g459
sa(dp617
g2
VC34-Economy0218.txt
p618
sg4
g410
sg6
g38
sa(dp619
g2
VC34-Economy0220.txt
p620
sg4
g410
sg6
g459
sa(dp621
g2
VC34-Economy0222.txt
p622
sg4
g410
sg6
g38
sa(dp623
g2
VC34-Economy0224.txt
p624
sg4
g410
sg6
g38
sa(dp625
g2
VC34-Economy0226.txt
p626
sg4
g410
sg6
g38
sa(dp627
g2
VC34-Economy0228.txt
p628
sg4
g410
sg6
g7
sa(dp629
g2
VC34-Economy0230.txt
p630
sg4
g410
sg6
g459
sa(dp631
g2
VC34-Economy0232.txt
p632
sg4
g410
sg6
g38
sa(dp633
g2
VC34-Economy0234.txt
p634
sg4
g410
sg6
g459
sa(dp635
g2
VC34-Economy0236.txt
p636
sg4
g410
sg6
g38
sa(dp637
g2
VC34-Economy0238.txt
p638
sg4
g410
sg6
g38
sa(dp639
g2
VC34-Economy0240.txt
p640
sg4
g410
sg6
g38
sa(dp641
g2
VC34-Economy0242.txt
p642
sg4
g410
sg6
g38
sa(dp643
g2
VC34-Economy0244.txt
p644
sg4
g410
sg6
g38
sa(dp645
g2
VC34-Economy0246.txt
p646
sg4
g410
sg6
g38
sa(dp647
g2
VC34-Economy0248.txt
p648
sg4
g410
sg6
g38
sa(dp649
g2
VC34-Economy0250.txt
p650
sg4
g410
sg6
g38
sa(dp651
g2
VC34-Economy0252.txt
p652
sg4
g410
sg6
g38
sa(dp653
g2
VC34-Economy0254.txt
p654
sg4
g410
sg6
g38
sa(dp655
g2
VC34-Economy0256.txt
p656
sg4
g410
sg6
g38
sa(dp657
g2
VC34-Economy0258.txt
p658
sg4
g410
sg6
g38
sa(dp659
g2
VC34-Economy0261.txt
p660
sg4
g410
sg6
g38
sa(dp661
g2
VC34-Economy0263.txt
p662
sg4
g410
sg6
g38
sa(dp663
g2
VC34-Economy0265.txt
p664
sg4
g410
sg6
g38
sa(dp665
g2
VC34-Economy0267.txt
p666
sg4
g410
sg6
g38
sa(dp667
g2
VC34-Economy0269.txt
p668
sg4
g410
sg6
g7
sa(dp669
g2
VC34-Economy0271.txt
p670
sg4
g410
sg6
g7
sa(dp671
g2
VC34-Economy0273.txt
p672
sg4
g410
sg6
g38
sa(dp673
g2
VC34-Economy0275.txt
p674
sg4
g410
sg6
g38
sa(dp675
g2
VC34-Economy0277.txt
p676
sg4
g410
sg6
g38
sa(dp677
g2
VC34-Economy0279.txt
p678
sg4
g410
sg6
g38
sa(dp679
g2
VC34-Economy0281.txt
p680
sg4
g410
sg6
g38
sa(dp681
g2
VC34-Economy0283.txt
p682
sg4
g410
sg6
g38
sa(dp683
g2
VC34-Economy0285.txt
p684
sg4
g410
sg6
g38
sa(dp685
g2
VC34-Economy0287.txt
p686
sg4
g410
sg6
g38
sa(dp687
g2
VC34-Economy0289.txt
p688
sg4
g410
sg6
g38
sa(dp689
g2
VC34-Economy0309.txt
p690
sg4
g410
sg6
g7
sa(dp691
g2
VC34-Economy0311.txt
p692
sg4
g410
sg6
g38
sa(dp693
g2
VC34-Economy0313.txt
p694
sg4
g410
sg6
g38
sa(dp695
g2
VC34-Economy0315.txt
p696
sg4
g410
sg6
g38
sa(dp697
g2
VC34-Economy0317.txt
p698
sg4
g410
sg6
g38
sa(dp699
g2
VC34-Economy0319.txt
p700
sg4
g410
sg6
g7
sa(dp701
g2
VC34-Economy0321.txt
p702
sg4
g410
sg6
g7
sa(dp703
g2
VC34-Economy0340.txt
p704
sg4
g410
sg6
g38
sa(dp705
g2
VC34-Economy0342.txt
p706
sg4
g410
sg6
g38
sa(dp707
g2
VC34-Economy0344.txt
p708
sg4
g410
sg6
g38
sa(dp709
g2
VC34-Economy0346.txt
p710
sg4
g410
sg6
g38
sa(dp711
g2
VC34-Economy0348.txt
p712
sg4
g410
sg6
g459
sa(dp713
g2
VC34-Economy0350.txt
p714
sg4
g410
sg6
g38
sa(dp715
g2
VC34-Economy0352.txt
p716
sg4
g410
sg6
g38
sa(dp717
g2
VC34-Economy0354.txt
p718
sg4
g410
sg6
g38
sa(dp719
g2
VC34-Economy0356.txt
p720
sg4
g410
sg6
g38
sa(dp721
g2
VC34-Economy0358.txt
p722
sg4
g410
sg6
g38
sa(dp723
g2
VC34-Economy0360.txt
p724
sg4
g410
sg6
g38
sa(dp725
g2
VC34-Economy0362.txt
p726
sg4
g410
sg6
g38
sa(dp727
g2
VC34-Economy0364.txt
p728
sg4
g410
sg6
g38
sa(dp729
g2
VC34-Economy0366.txt
p730
sg4
g410
sg6
g38
sa(dp731
g2
VC34-Economy0368.txt
p732
sg4
g410
sg6
g38
sa(dp733
g2
VC34-Economy0370.txt
p734
sg4
g410
sg6
g38
sa(dp735
g2
VC34-Economy0372.txt
p736
sg4
g410
sg6
g38
sa(dp737
g2
VC34-Economy0374.txt
p738
sg4
g410
sg6
g38
sa(dp739
g2
VC34-Economy0376.txt
p740
sg4
g410
sg6
g38
sa(dp741
g2
VC34-Economy0378.txt
p742
sg4
g410
sg6
g38
sa(dp743
g2
VC34-Economy0380.txt
p744
sg4
g410
sg6
g38
sa(dp745
g2
VC34-Economy0383.txt
p746
sg4
g410
sg6
g38
sa(dp747
g2
VC34-Economy0385.txt
p748
sg4
g410
sg6
g38
sa(dp749
g2
VC34-Economy0387.txt
p750
sg4
g410
sg6
g38
sa(dp751
g2
VC34-Economy0389.txt
p752
sg4
g410
sg6
g38
sa(dp753
g2
VC34-Economy0391.txt
p754
sg4
g410
sg6
g38
sa(dp755
g2
VC34-Economy0393.txt
p756
sg4
g410
sg6
g38
sa(dp757
g2
VC34-Economy0395.txt
p758
sg4
g410
sg6
g38
sa(dp759
g2
VC34-Economy0397.txt
p760
sg4
g410
sg6
g38
sa(dp761
g2
VC34-Economy0399.txt
p762
sg4
g410
sg6
g38
sa(dp763
g2
VC34-Economy0401.txt
p764
sg4
g410
sg6
g38
sa(dp765
g2
VC34-Economy0403.txt
p766
sg4
g410
sg6
g38
sa(dp767
g2
VC34-Economy0405.txt
p768
sg4
g410
sg6
g38
sa(dp769
g2
VC34-Economy0407.txt
p770
sg4
g410
sg6
g38
sa(dp771
g2
VC34-Economy0409.txt
p772
sg4
g410
sg6
g38
sa(dp773
g2
VC34-Economy0411.txt
p774
sg4
g410
sg6
g38
sa(dp775
g2
VC34-Economy0413.txt
p776
sg4
g410
sg6
g38
sa(dp777
g2
VC34-Economy0415.txt
p778
sg4
g410
sg6
g38
sa(dp779
g2
VC34-Economy0417.txt
p780
sg4
g410
sg6
g38
sa(dp781
g2
VC34-Economy0419.txt
p782
sg4
g410
sg6
g7
sa(dp783
g2
VC34-Economy0421.txt
p784
sg4
g410
sg6
g38
sa(dp785
g2
VC34-Economy0423.txt
p786
sg4
g410
sg6
g38
sa(dp787
g2
VC34-Economy0425.txt
p788
sg4
g410
sg6
g38
sa(dp789
g2
VC34-Economy0427.txt
p790
sg4
g410
sg6
g38
sa(dp791
g2
VC34-Economy0429.txt
p792
sg4
g410
sg6
g38
sa(dp793
g2
VC34-Economy0431.txt
p794
sg4
g410
sg6
g38
sa(dp795
g2
VC34-Economy0433.txt
p796
sg4
g410
sg6
g38
sa(dp797
g2
VC34-Economy0435.txt
p798
sg4
g410
sg6
g38
sa(dp799
g2
VC34-Economy0437.txt
p800
sg4
g410
sg6
g38
sa(dp801
g2
VC34-Economy0439.txt
p802
sg4
g410
sg6
g38
sa(dp803
g2
VC34-Economy0441.txt
p804
sg4
g410
sg6
g38
sa(dp805
g2
VC34-Economy0443.txt
p806
sg4
g410
sg6
g38
sa(dp807
g2
VC34-Economy0445.txt
p808
sg4
g410
sg6
g459
sa(dp809
g2
VC34-Economy0447.txt
p810
sg4
g410
sg6
g38
sa(dp811
g2
VC31-Enviornment0002.txt
p812
sg4
Venviornment
p813
sg6
g588
sa(dp814
g2
VC31-Enviornment0003.txt
p815
sg4
g813
sg6
g281
sa(dp816
g2
VC31-Enviornment0005.txt
p817
sg4
g813
sg6
g281
sa(dp818
g2
VC31-Enviornment0007.txt
p819
sg4
g813
sg6
g281
sa(dp820
g2
VC31-Enviornment0009.txt
p821
sg4
g813
sg6
g281
sa(dp822
g2
VC31-Enviornment0011.txt
p823
sg4
g813
sg6
g281
sa(dp824
g2
VC31-Enviornment0013.txt
p825
sg4
g813
sg6
g281
sa(dp826
g2
VC31-Enviornment0015.txt
p827
sg4
g813
sg6
g7
sa(dp828
g2
VC31-Enviornment0017.txt
p829
sg4
g813
sg6
g7
sa(dp830
g2
VC31-Enviornment0019.txt
p831
sg4
g813
sg6
g281
sa(dp832
g2
VC31-Enviornment0021.txt
p833
sg4
g813
sg6
g281
sa(dp834
g2
VC31-Enviornment0023.txt
p835
sg4
g813
sg6
g281
sa(dp836
g2
VC31-Enviornment0025.txt
p837
sg4
g813
sg6
g281
sa(dp838
g2
VC31-Enviornment0027.txt
p839
sg4
g813
sg6
g281
sa(dp840
g2
VC31-Enviornment0029.txt
p841
sg4
g813
sg6
g281
sa(dp842
g2
VC31-Enviornment0031.txt
p843
sg4
g813
sg6
g281
sa(dp844
g2
VC31-Enviornment0033.txt
p845
sg4
g813
sg6
g281
sa(dp846
g2
VC31-Enviornment0035.txt
p847
sg4
g813
sg6
g281
sa(dp848
g2
VC31-Enviornment0037.txt
p849
sg4
g813
sg6
g281
sa(dp850
g2
VC31-Enviornment0039.txt
p851
sg4
g813
sg6
g281
sa(dp852
g2
VC31-Enviornment0041.txt
p853
sg4
g813
sg6
g281
sa(dp854
g2
VC31-Enviornment0043.txt
p855
sg4
g813
sg6
g281
sa(dp856
g2
VC31-Enviornment0045.txt
p857
sg4
g813
sg6
g281
sa(dp858
g2
VC31-Enviornment0046.txt
p859
sg4
g813
sg6
g281
sa(dp860
g2
VC31-Enviornment0048.txt
p861
sg4
g813
sg6
g281
sa(dp862
g2
VC31-Enviornment0050.txt
p863
sg4
g813
sg6
g281
sa(dp864
g2
VC31-Enviornment0052.txt
p865
sg4
g813
sg6
g281
sa(dp866
g2
VC31-Enviornment0054.txt
p867
sg4
g813
sg6
g281
sa(dp868
g2
VC31-Enviornment0056.txt
p869
sg4
g813
sg6
g281
sa(dp870
g2
VC31-Enviornment0058.txt
p871
sg4
g813
sg6
g281
sa(dp872
g2
VC31-Enviornment0060.txt
p873
sg4
g813
sg6
g281
sa(dp874
g2
VC31-Enviornment0062.txt
p875
sg4
g813
sg6
g38
sa(dp876
g2
VC31-Enviornment0064.txt
p877
sg4
g813
sg6
g38
sa(dp878
g2
VC31-Enviornment0066.txt
p879
sg4
g813
sg6
g281
sa(dp880
g2
VC31-Enviornment0068.txt
p881
sg4
g813
sg6
g281
sa(dp882
g2
VC31-Enviornment0070.txt
p883
sg4
g813
sg6
g281
sa(dp884
g2
VC31-Enviornment0072.txt
p885
sg4
g813
sg6
g281
sa(dp886
g2
VC31-Enviornment0074.txt
p887
sg4
g813
sg6
g281
sa(dp888
g2
VC31-Enviornment0078.txt
p889
sg4
g813
sg6
g281
sa(dp890
g2
VC31-Enviornment0080.txt
p891
sg4
g813
sg6
g281
sa(dp892
g2
VC31-Enviornment0082.txt
p893
sg4
g813
sg6
g281
sa(dp894
g2
VC31-Enviornment0084.txt
p895
sg4
g813
sg6
g281
sa(dp896
g2
VC31-Enviornment0086.txt
p897
sg4
g813
sg6
g281
sa(dp898
g2
VC31-Enviornment0088.txt
p899
sg4
g813
sg6
g281
sa(dp900
g2
VC31-Enviornment0092.txt
p901
sg4
g813
sg6
g281
sa(dp902
g2
VC31-Enviornment0094.txt
p903
sg4
g813
sg6
g281
sa(dp904
g2
VC31-Enviornment0096.txt
p905
sg4
g813
sg6
g281
sa(dp906
g2
VC31-Enviornment0098.txt
p907
sg4
g813
sg6
g281
sa(dp908
g2
VC31-Enviornment0100.txt
p909
sg4
g813
sg6
g281
sa(dp910
g2
VC31-Enviornment0106.txt
p911
sg4
g813
sg6
g281
sa(dp912
g2
VC31-Enviornment0108.txt
p913
sg4
g813
sg6
g281
sa(dp914
g2
VC31-Enviornment0110.txt
p915
sg4
g813
sg6
g281
sa(dp916
g2
VC31-Enviornment0112.txt
p917
sg4
g813
sg6
g281
sa(dp918
g2
VC31-Enviornment0114.txt
p919
sg4
g813
sg6
g281
sa(dp920
g2
VC31-Enviornment0116.txt
p921
sg4
g813
sg6
g281
sa(dp922
g2
VC31-Enviornment0118.txt
p923
sg4
g813
sg6
g281
sa(dp924
g2
VC31-Enviornment0120.txt
p925
sg4
g813
sg6
g281
sa(dp926
g2
VC31-Enviornment0122.txt
p927
sg4
g813
sg6
g281
sa(dp928
g2
VC31-Enviornment0124.txt
p929
sg4
g813
sg6
g7
sa(dp930
g2
VC31-Enviornment0126.txt
p931
sg4
g813
sg6
g7
sa(dp932
g2
VC31-Enviornment0128.txt
p933
sg4
g813
sg6
g281
sa(dp934
g2
VC31-Enviornment0130.txt
p935
sg4
g813
sg6
g281
sa(dp936
g2
VC31-Enviornment0132.txt
p937
sg4
g813
sg6
g281
sa(dp938
g2
VC31-Enviornment0134.txt
p939
sg4
g813
sg6
g281
sa(dp940
g2
VC31-Enviornment0136.txt
p941
sg4
g813
sg6
g281
sa(dp942
g2
VC31-Enviornment0138.txt
p943
sg4
g813
sg6
g281
sa(dp944
g2
VC31-Enviornment0140.txt
p945
sg4
g813
sg6
g281
sa(dp946
g2
VC31-Enviornment0142.txt
p947
sg4
g813
sg6
g281
sa(dp948
g2
VC31-Enviornment0144.txt
p949
sg4
g813
sg6
g281
sa(dp950
g2
VC31-Enviornment0146.txt
p951
sg4
g813
sg6
g7
sa(dp952
g2
VC31-Enviornment0148.txt
p953
sg4
g813
sg6
g281
sa(dp954
g2
VC31-Enviornment0150.txt
p955
sg4
g813
sg6
g7
sa(dp956
g2
VC31-Enviornment0152.txt
p957
sg4
g813
sg6
g281
sa(dp958
g2
VC31-Enviornment0154.txt
p959
sg4
g813
sg6
g281
sa(dp960
g2
VC31-Enviornment0156.txt
p961
sg4
g813
sg6
g281
sa(dp962
g2
VC31-Enviornment0158.txt
p963
sg4
g813
sg6
g281
sa(dp964
g2
VC31-Enviornment0160.txt
p965
sg4
g813
sg6
g281
sa(dp966
g2
VC31-Enviornment0162.txt
p967
sg4
g813
sg6
g281
sa(dp968
g2
VC31-Enviornment0164.txt
p969
sg4
g813
sg6
g281
sa(dp970
g2
VC31-Enviornment0166.txt
p971
sg4
g813
sg6
g281
sa(dp972
g2
VC31-Enviornment0168.txt
p973
sg4
g813
sg6
g281
sa(dp974
g2
VC31-Enviornment0170.txt
p975
sg4
g813
sg6
g281
sa(dp976
g2
VC31-Enviornment0172.txt
p977
sg4
g813
sg6
g281
sa(dp978
g2
VC31-Enviornment0174.txt
p979
sg4
g813
sg6
g281
sa(dp980
g2
VC31-Enviornment0176.txt
p981
sg4
g813
sg6
g7
sa(dp982
g2
VC31-Enviornment0178.txt
p983
sg4
g813
sg6
g281
sa(dp984
g2
VC31-Enviornment0180.txt
p985
sg4
g813
sg6
g281
sa(dp986
g2
VC31-Enviornment0182.txt
p987
sg4
g813
sg6
g281
sa(dp988
g2
VC31-Enviornment0186.txt
p989
sg4
g813
sg6
g281
sa(dp990
g2
VC31-Enviornment0188.txt
p991
sg4
g813
sg6
g281
sa(dp992
g2
VC31-Enviornment0190.txt
p993
sg4
g813
sg6
g7
sa(dp994
g2
VC31-Enviornment0192.txt
p995
sg4
g813
sg6
g281
sa(dp996
g2
VC31-Enviornment0194.txt
p997
sg4
g813
sg6
g281
sa(dp998
g2
VC31-Enviornment0196.txt
p999
sg4
g813
sg6
g281
sa(dp1000
g2
VC31-Enviornment0198.txt
p1001
sg4
g813
sg6
g281
sa(dp1002
g2
VC31-Enviornment0200.txt
p1003
sg4
g813
sg6
g281
sa(dp1004
g2
VC31-Enviornment0202.txt
p1005
sg4
g813
sg6
g281
sa(dp1006
g2
VC31-Enviornment0204.txt
p1007
sg4
g813
sg6
g281
sa(dp1008
g2
VC31-Enviornment0206.txt
p1009
sg4
g813
sg6
g281
sa(dp1010
g2
VC31-Enviornment0208.txt
p1011
sg4
g813
sg6
g281
sa(dp1012
g2
VC31-Enviornment0210.txt
p1013
sg4
g813
sg6
g281
sa(dp1014
g2
VC31-Enviornment0212.txt
p1015
sg4
g813
sg6
g281
sa(dp1016
g2
VC31-Enviornment0214.txt
p1017
sg4
g813
sg6
g281
sa(dp1018
g2
VC31-Enviornment0216.txt
p1019
sg4
g813
sg6
g281
sa(dp1020
g2
VC31-Enviornment0218.txt
p1021
sg4
g813
sg6
g281
sa(dp1022
g2
VC31-Enviornment0220.txt
p1023
sg4
g813
sg6
g281
sa(dp1024
g2
VC31-Enviornment0222.txt
p1025
sg4
g813
sg6
g281
sa(dp1026
g2
VC31-Enviornment0224.txt
p1027
sg4
g813
sg6
g281
sa(dp1028
g2
VC31-Enviornment0226.txt
p1029
sg4
g813
sg6
g281
sa(dp1030
g2
VC31-Enviornment0228.txt
p1031
sg4
g813
sg6
g281
sa(dp1032
g2
VC31-Enviornment0231.txt
p1033
sg4
g813
sg6
g281
sa(dp1034
g2
VC31-Enviornment0233.txt
p1035
sg4
g813
sg6
g281
sa(dp1036
g2
VC31-Enviornment0235.txt
p1037
sg4
g813
sg6
g281
sa(dp1038
g2
VC31-Enviornment0237.txt
p1039
sg4
g813
sg6
g281
sa(dp1040
g2
VC31-Enviornment0239.txt
p1041
sg4
g813
sg6
g281
sa(dp1042
g2
VC31-Enviornment0241.txt
p1043
sg4
g813
sg6
g281
sa(dp1044
g2
VC31-Enviornment0243.txt
p1045
sg4
g813
sg6
g281
sa(dp1046
g2
VC31-Enviornment0245.txt
p1047
sg4
g813
sg6
g281
sa(dp1048
g2
VC31-Enviornment0247.txt
p1049
sg4
g813
sg6
g281
sa(dp1050
g2
VC31-Enviornment0249.txt
p1051
sg4
g813
sg6
g281
sa(dp1052
g2
VC31-Enviornment0251.txt
p1053
sg4
g813
sg6
g281
sa(dp1054
g2
VC31-Enviornment0253.txt
p1055
sg4
g813
sg6
g281
sa(dp1056
g2
VC31-Enviornment0255.txt
p1057
sg4
g813
sg6
g281
sa(dp1058
g2
VC31-Enviornment0257.txt
p1059
sg4
g813
sg6
g281
sa(dp1060
g2
VC31-Enviornment0259.txt
p1061
sg4
g813
sg6
g281
sa(dp1062
g2
VC31-Enviornment0261.txt
p1063
sg4
g813
sg6
g281
sa(dp1064
g2
VC31-Enviornment0263.txt
p1065
sg4
g813
sg6
g281
sa(dp1066
g2
VC31-Enviornment0265.txt
p1067
sg4
g813
sg6
g281
sa(dp1068
g2
VC31-Enviornment0267.txt
p1069
sg4
g813
sg6
g281
sa(dp1070
g2
VC31-Enviornment0269.txt
p1071
sg4
g813
sg6
g281
sa(dp1072
g2
VC31-Enviornment0271.txt
p1073
sg4
g813
sg6
g281
sa(dp1074
g2
VC31-Enviornment0273.txt
p1075
sg4
g813
sg6
g281
sa(dp1076
g2
VC31-Enviornment0275.txt
p1077
sg4
g813
sg6
g281
sa(dp1078
g2
VC31-Enviornment0277.txt
p1079
sg4
g813
sg6
g281
sa(dp1080
g2
VC31-Enviornment0279.txt
p1081
sg4
g813
sg6
g281
sa(dp1082
g2
VC31-Enviornment0281.txt
p1083
sg4
g813
sg6
g281
sa(dp1084
g2
VC31-Enviornment0283.txt
p1085
sg4
g813
sg6
g281
sa(dp1086
g2
VC31-Enviornment0285.txt
p1087
sg4
g813
sg6
g281
sa(dp1088
g2
VC31-Enviornment0287.txt
p1089
sg4
g813
sg6
g281
sa(dp1090
g2
VC31-Enviornment0289.txt
p1091
sg4
g813
sg6
g281
sa(dp1092
g2
VC31-Enviornment0291.txt
p1093
sg4
g813
sg6
g281
sa(dp1094
g2
VC31-Enviornment0293.txt
p1095
sg4
g813
sg6
g281
sa(dp1096
g2
VC31-Enviornment0295.txt
p1097
sg4
g813
sg6
g281
sa(dp1098
g2
VC31-Enviornment0297.txt
p1099
sg4
g813
sg6
g281
sa(dp1100
g2
VC31-Enviornment0299.txt
p1101
sg4
g813
sg6
g281
sa(dp1102
g2
VC31-Enviornment0301.txt
p1103
sg4
g813
sg6
g281
sa(dp1104
g2
VC31-Enviornment0303.txt
p1105
sg4
g813
sg6
g281
sa(dp1106
g2
VC31-Enviornment0305.txt
p1107
sg4
g813
sg6
g281
sa(dp1108
g2
VC31-Enviornment0307.txt
p1109
sg4
g813
sg6
g281
sa(dp1110
g2
VC31-Enviornment0309.txt
p1111
sg4
g813
sg6
g281
sa(dp1112
g2
VC31-Enviornment0311.txt
p1113
sg4
g813
sg6
g281
sa(dp1114
g2
VC31-Enviornment0312.txt
p1115
sg4
g813
sg6
g281
sa(dp1116
g2
VC31-Enviornment0314.txt
p1117
sg4
g813
sg6
g281
sa(dp1118
g2
VC31-Enviornment0316.txt
p1119
sg4
g813
sg6
g281
sa(dp1120
g2
VC31-Enviornment0318.txt
p1121
sg4
g813
sg6
g281
sa(dp1122
g2
VC31-Enviornment0320.txt
p1123
sg4
g813
sg6
g281
sa(dp1124
g2
VC31-Enviornment0322.txt
p1125
sg4
g813
sg6
g281
sa(dp1126
g2
VC31-Enviornment0324.txt
p1127
sg4
g813
sg6
g281
sa(dp1128
g2
VC31-Enviornment0326.txt
p1129
sg4
g813
sg6
g281
sa(dp1130
g2
VC31-Enviornment0328.txt
p1131
sg4
g813
sg6
g281
sa(dp1132
g2
VC31-Enviornment0330.txt
p1133
sg4
g813
sg6
g281
sa(dp1134
g2
VC31-Enviornment0332.txt
p1135
sg4
g813
sg6
g281
sa(dp1136
g2
VC31-Enviornment0334.txt
p1137
sg4
g813
sg6
g281
sa(dp1138
g2
VC31-Enviornment0336.txt
p1139
sg4
g813
sg6
g281
sa(dp1140
g2
VC31-Enviornment0338.txt
p1141
sg4
g813
sg6
g281
sa(dp1142
g2
VC31-Enviornment0340.txt
p1143
sg4
g813
sg6
g281
sa(dp1144
g2
VC31-Enviornment0342.txt
p1145
sg4
g813
sg6
g281
sa(dp1146
g2
VC31-Enviornment0344.txt
p1147
sg4
g813
sg6
g281
sa(dp1148
g2
VC31-Enviornment0346.txt
p1149
sg4
g813
sg6
g281
sa(dp1150
g2
VC31-Enviornment0348.txt
p1151
sg4
g813
sg6
g38
sa(dp1152
g2
VC31-Enviornment0350.txt
p1153
sg4
g813
sg6
g281
sa(dp1154
g2
VC31-Enviornment0352.txt
p1155
sg4
g813
sg6
g281
sa(dp1156
g2
VC31-Enviornment0354.txt
p1157
sg4
g813
sg6
g281
sa(dp1158
g2
VC31-Enviornment0356.txt
p1159
sg4
g813
sg6
g281
sa(dp1160
g2
VC31-Enviornment0358.txt
p1161
sg4
g813
sg6
g281
sa(dp1162
g2
VC31-Enviornment0360.txt
p1163
sg4
g813
sg6
g281
sa(dp1164
g2
VC31-Enviornment0362.txt
p1165
sg4
g813
sg6
g281
sa(dp1166
g2
VC31-Enviornment0364.txt
p1167
sg4
g813
sg6
g281
sa(dp1168
g2
VC31-Enviornment0366.txt
p1169
sg4
g813
sg6
g281
sa(dp1170
g2
VC31-Enviornment0368.txt
p1171
sg4
g813
sg6
g281
sa(dp1172
g2
VC31-Enviornment0370.txt
p1173
sg4
g813
sg6
g281
sa(dp1174
g2
VC31-Enviornment0372.txt
p1175
sg4
g813
sg6
g281
sa(dp1176
g2
VC31-Enviornment0374.txt
p1177
sg4
g813
sg6
g281
sa(dp1178
g2
VC31-Enviornment0376.txt
p1179
sg4
g813
sg6
g281
sa(dp1180
g2
VC31-Enviornment0378.txt
p1181
sg4
g813
sg6
g281
sa(dp1182
g2
VC31-Enviornment0380.txt
p1183
sg4
g813
sg6
g281
sa(dp1184
g2
VC31-Enviornment0382.txt
p1185
sg4
g813
sg6
g281
sa(dp1186
g2
VC31-Enviornment0384.txt
p1187
sg4
g813
sg6
g281
sa(dp1188
g2
VC31-Enviornment0386.txt
p1189
sg4
g813
sg6
g281
sa(dp1190
g2
VC31-Enviornment0388.txt
p1191
sg4
g813
sg6
g281
sa(dp1192
g2
VC31-Enviornment0390.txt
p1193
sg4
g813
sg6
g281
sa(dp1194
g2
VC31-Enviornment0392.txt
p1195
sg4
g813
sg6
g281
sa(dp1196
g2
VC31-Enviornment0394.txt
p1197
sg4
g813
sg6
g281
sa(dp1198
g2
VC31-Enviornment0396.txt
p1199
sg4
g813
sg6
g281
sa(dp1200
g2
VC31-Enviornment0399.txt
p1201
sg4
g813
sg6
g281
sa(dp1202
g2
VC31-Enviornment0401.txt
p1203
sg4
g813
sg6
g281
sa(dp1204
g2
VC31-Enviornment0403.txt
p1205
sg4
g813
sg6
g281
sa(dp1206
g2
VC31-Enviornment0405.txt
p1207
sg4
g813
sg6
g281
sa(dp1208
g2
VC31-Enviornment0407.txt
p1209
sg4
g813
sg6
g281
sa(dp1210
g2
VC31-Enviornment0409.txt
p1211
sg4
g813
sg6
g38
sa(dp1212
g2
VC38-Politics0001.txt
p1213
sg4
Vpolitics
p1214
sg6
g459
sa(dp1215
g2
VC38-Politics0002.txt
p1216
sg4
g1214
sg6
g459
sa(dp1217
g2
VC38-Politics0004.txt
p1218
sg4
g1214
sg6
g459
sa(dp1219
g2
VC38-Politics0006.txt
p1220
sg4
g1214
sg6
g459
sa(dp1221
g2
VC38-Politics0008.txt
p1222
sg4
g1214
sg6
g459
sa(dp1223
g2
VC38-Politics0010.txt
p1224
sg4
g1214
sg6
g459
sa(dp1225
g2
VC38-Politics0012.txt
p1226
sg4
g1214
sg6
g459
sa(dp1227
g2
VC38-Politics0014.txt
p1228
sg4
g1214
sg6
g459
sa(dp1229
g2
VC38-Politics0016.txt
p1230
sg4
g1214
sg6
g459
sa(dp1231
g2
VC38-Politics0019.txt
p1232
sg4
g1214
sg6
g459
sa(dp1233
g2
VC38-Politics0021.txt
p1234
sg4
g1214
sg6
g459
sa(dp1235
g2
VC38-Politics0023.txt
p1236
sg4
g1214
sg6
g459
sa(dp1237
g2
VC38-Politics0025.txt
p1238
sg4
g1214
sg6
g459
sa(dp1239
g2
VC38-Politics0027.txt
p1240
sg4
g1214
sg6
g459
sa(dp1241
g2
VC38-Politics0029.txt
p1242
sg4
g1214
sg6
g459
sa(dp1243
g2
VC38-Politics0031.txt
p1244
sg4
g1214
sg6
g459
sa(dp1245
g2
VC38-Politics0033.txt
p1246
sg4
g1214
sg6
g459
sa(dp1247
g2
VC38-Politics0035.txt
p1248
sg4
g1214
sg6
g459
sa(dp1249
g2
VC38-Politics0037.txt
p1250
sg4
g1214
sg6
g588
sa(dp1251
g2
VC38-Politics0039.txt
p1252
sg4
g1214
sg6
g459
sa(dp1253
g2
VC38-Politics0041.txt
p1254
sg4
g1214
sg6
g459
sa(dp1255
g2
VC38-Politics0043.txt
p1256
sg4
g1214
sg6
g459
sa(dp1257
g2
VC38-Politics0045.txt
p1258
sg4
g1214
sg6
g459
sa(dp1259
g2
VC38-Politics0047.txt
p1260
sg4
g1214
sg6
g459
sa(dp1261
g2
VC38-Politics0049.txt
p1262
sg4
g1214
sg6
g459
sa(dp1263
g2
VC38-Politics0051.txt
p1264
sg4
g1214
sg6
g459
sa(dp1265
g2
VC38-Politics0053.txt
p1266
sg4
g1214
sg6
g459
sa(dp1267
g2
VC38-Politics0055.txt
p1268
sg4
g1214
sg6
g459
sa(dp1269
g2
VC38-Politics0057.txt
p1270
sg4
g1214
sg6
g459
sa(dp1271
g2
VC38-Politics0059.txt
p1272
sg4
g1214
sg6
g459
sa(dp1273
g2
VC38-Politics0061.txt
p1274
sg4
g1214
sg6
g459
sa(dp1275
g2
VC38-Politics0063.txt
p1276
sg4
g1214
sg6
g459
sa(dp1277
g2
VC38-Politics0065.txt
p1278
sg4
g1214
sg6
g459
sa(dp1279
g2
VC38-Politics0067.txt
p1280
sg4
g1214
sg6
g38
sa(dp1281
g2
VC38-Politics0069.txt
p1282
sg4
g1214
sg6
g459
sa(dp1283
g2
VC38-Politics0071.txt
p1284
sg4
g1214
sg6
g459
sa(dp1285
g2
VC38-Politics0073.txt
p1286
sg4
g1214
sg6
g38
sa(dp1287
g2
VC38-Politics0074.txt
p1288
sg4
g1214
sg6
g459
sa(dp1289
g2
VC38-Politics0076.txt
p1290
sg4
g1214
sg6
g459
sa(dp1291
g2
VC38-Politics0078.txt
p1292
sg4
g1214
sg6
g459
sa(dp1293
g2
VC38-Politics0080.txt
p1294
sg4
g1214
sg6
g459
sa(dp1295
g2
VC38-Politics0082.txt
p1296
sg4
g1214
sg6
g459
sa(dp1297
g2
VC38-Politics0084.txt
p1298
sg4
g1214
sg6
g459
sa(dp1299
g2
VC38-Politics0086.txt
p1300
sg4
g1214
sg6
g459
sa(dp1301
g2
VC38-Politics0088.txt
p1302
sg4
g1214
sg6
g459
sa(dp1303
g2
VC38-Politics0090.txt
p1304
sg4
g1214
sg6
g459
sa(dp1305
g2
VC38-Politics0092.txt
p1306
sg4
g1214
sg6
g459
sa(dp1307
g2
VC38-Politics0094.txt
p1308
sg4
g1214
sg6
g459
sa(dp1309
g2
VC38-Politics0096.txt
p1310
sg4
g1214
sg6
g459
sa(dp1311
g2
VC38-Politics0098.txt
p1312
sg4
g1214
sg6
g459
sa(dp1313
g2
VC38-Politics0100.txt
p1314
sg4
g1214
sg6
g459
sa(dp1315
g2
VC38-Politics0102.txt
p1316
sg4
g1214
sg6
g459
sa(dp1317
g2
VC38-Politics0104.txt
p1318
sg4
g1214
sg6
g459
sa(dp1319
g2
VC38-Politics0106.txt
p1320
sg4
g1214
sg6
g459
sa(dp1321
g2
VC38-Politics0108.txt
p1322
sg4
g1214
sg6
g459
sa(dp1323
g2
VC38-Politics0110.txt
p1324
sg4
g1214
sg6
g459
sa(dp1325
g2
VC38-Politics0112.txt
p1326
sg4
g1214
sg6
g459
sa(dp1327
g2
VC38-Politics0114.txt
p1328
sg4
g1214
sg6
g459
sa(dp1329
g2
VC38-Politics0116.txt
p1330
sg4
g1214
sg6
g459
sa(dp1331
g2
VC38-Politics0118.txt
p1332
sg4
g1214
sg6
g459
sa(dp1333
g2
VC38-Politics0120.txt
p1334
sg4
g1214
sg6
g459
sa(dp1335
g2
VC38-Politics0122.txt
p1336
sg4
g1214
sg6
g459
sa(dp1337
g2
VC38-Politics0124.txt
p1338
sg4
g1214
sg6
g459
sa(dp1339
g2
VC38-Politics0126.txt
p1340
sg4
g1214
sg6
g459
sa(dp1341
g2
VC38-Politics0128.txt
p1342
sg4
g1214
sg6
g459
sa(dp1343
g2
VC38-Politics0130.txt
p1344
sg4
g1214
sg6
g459
sa(dp1345
g2
VC38-Politics0132.txt
p1346
sg4
g1214
sg6
g459
sa(dp1347
g2
VC38-Politics0134.txt
p1348
sg4
g1214
sg6
g459
sa(dp1349
g2
VC38-Politics0136.txt
p1350
sg4
g1214
sg6
g459
sa(dp1351
g2
VC38-Politics0138.txt
p1352
sg4
g1214
sg6
g459
sa(dp1353
g2
VC38-Politics0140.txt
p1354
sg4
g1214
sg6
g459
sa(dp1355
g2
VC38-Politics0142.txt
p1356
sg4
g1214
sg6
g459
sa(dp1357
g2
VC38-Politics0144.txt
p1358
sg4
g1214
sg6
g459
sa(dp1359
g2
VC38-Politics0146.txt
p1360
sg4
g1214
sg6
g459
sa(dp1361
g2
VC38-Politics0148.txt
p1362
sg4
g1214
sg6
g459
sa(dp1363
g2
VC38-Politics0150.txt
p1364
sg4
g1214
sg6
g459
sa(dp1365
g2
VC38-Politics0152.txt
p1366
sg4
g1214
sg6
g459
sa(dp1367
g2
VC38-Politics0154.txt
p1368
sg4
g1214
sg6
g459
sa(dp1369
g2
VC38-Politics0156.txt
p1370
sg4
g1214
sg6
g459
sa(dp1371
g2
VC38-Politics0158.txt
p1372
sg4
g1214
sg6
g459
sa(dp1373
g2
VC38-Politics0160.txt
p1374
sg4
g1214
sg6
g459
sa(dp1375
g2
VC38-Politics0162.txt
p1376
sg4
g1214
sg6
g459
sa(dp1377
g2
VC38-Politics0164.txt
p1378
sg4
g1214
sg6
g459
sa(dp1379
g2
VC38-Politics0166.txt
p1380
sg4
g1214
sg6
g459
sa(dp1381
g2
VC38-Politics0168.txt
p1382
sg4
g1214
sg6
g459
sa(dp1383
g2
VC38-Politics0170.txt
p1384
sg4
g1214
sg6
g459
sa(dp1385
g2
VC38-Politics0172.txt
p1386
sg4
g1214
sg6
g459
sa(dp1387
g2
VC38-Politics0174.txt
p1388
sg4
g1214
sg6
g459
sa(dp1389
g2
VC38-Politics0176.txt
p1390
sg4
g1214
sg6
g459
sa(dp1391
g2
VC38-Politics0178.txt
p1392
sg4
g1214
sg6
g459
sa(dp1393
g2
VC38-Politics0180.txt
p1394
sg4
g1214
sg6
g459
sa(dp1395
g2
VC38-Politics0182.txt
p1396
sg4
g1214
sg6
g459
sa(dp1397
g2
VC38-Politics0185.txt
p1398
sg4
g1214
sg6
g459
sa(dp1399
g2
VC38-Politics0187.txt
p1400
sg4
g1214
sg6
g459
sa(dp1401
g2
VC38-Politics0189.txt
p1402
sg4
g1214
sg6
g459
sa(dp1403
g2
VC38-Politics0191.txt
p1404
sg4
g1214
sg6
g459
sa(dp1405
g2
VC38-Politics0193.txt
p1406
sg4
g1214
sg6
g459
sa(dp1407
g2
VC38-Politics0195.txt
p1408
sg4
g1214
sg6
g459
sa(dp1409
g2
VC38-Politics0197.txt
p1410
sg4
g1214
sg6
g459
sa(dp1411
g2
VC38-Politics0199.txt
p1412
sg4
g1214
sg6
g459
sa(dp1413
g2
VC38-Politics0201.txt
p1414
sg4
g1214
sg6
g459
sa(dp1415
g2
VC38-Politics0203.txt
p1416
sg4
g1214
sg6
g459
sa(dp1417
g2
VC38-Politics0205.txt
p1418
sg4
g1214
sg6
g459
sa(dp1419
g2
VC38-Politics0207.txt
p1420
sg4
g1214
sg6
g459
sa(dp1421
g2
VC38-Politics0209.txt
p1422
sg4
g1214
sg6
g459
sa(dp1423
g2
VC38-Politics0211.txt
p1424
sg4
g1214
sg6
g459
sa(dp1425
g2
VC38-Politics0213.txt
p1426
sg4
g1214
sg6
g459
sa(dp1427
g2
VC38-Politics0215.txt
p1428
sg4
g1214
sg6
g459
sa(dp1429
g2
VC38-Politics0217.txt
p1430
sg4
g1214
sg6
g459
sa(dp1431
g2
VC38-Politics0219.txt
p1432
sg4
g1214
sg6
g459
sa(dp1433
g2
VC38-Politics0221.txt
p1434
sg4
g1214
sg6
g38
sa(dp1435
g2
VC38-Politics0223.txt
p1436
sg4
g1214
sg6
g459
sa(dp1437
g2
VC38-Politics0225.txt
p1438
sg4
g1214
sg6
g459
sa(dp1439
g2
VC38-Politics0227.txt
p1440
sg4
g1214
sg6
g459
sa(dp1441
g2
VC38-Politics0229.txt
p1442
sg4
g1214
sg6
g459
sa(dp1443
g2
VC38-Politics0231.txt
p1444
sg4
g1214
sg6
g459
sa(dp1445
g2
VC38-Politics0233.txt
p1446
sg4
g1214
sg6
g459
sa(dp1447
g2
VC38-Politics0234.txt
p1448
sg4
g1214
sg6
g459
sa(dp1449
g2
VC38-Politics0236.txt
p1450
sg4
g1214
sg6
g459
sa(dp1451
g2
VC38-Politics0238.txt
p1452
sg4
g1214
sg6
g459
sa(dp1453
g2
VC38-Politics0240.txt
p1454
sg4
g1214
sg6
g459
sa(dp1455
g2
VC38-Politics0242.txt
p1456
sg4
g1214
sg6
g459
sa(dp1457
g2
VC38-Politics0244.txt
p1458
sg4
g1214
sg6
g459
sa(dp1459
g2
VC38-Politics0246.txt
p1460
sg4
g1214
sg6
g459
sa(dp1461
g2
VC38-Politics0248.txt
p1462
sg4
g1214
sg6
g459
sa(dp1463
g2
VC38-Politics0250.txt
p1464
sg4
g1214
sg6
g459
sa(dp1465
g2
VC38-Politics0252.txt
p1466
sg4
g1214
sg6
g459
sa(dp1467
g2
VC38-Politics0254.txt
p1468
sg4
g1214
sg6
g459
sa(dp1469
g2
VC38-Politics0256.txt
p1470
sg4
g1214
sg6
g459
sa(dp1471
g2
VC38-Politics0258.txt
p1472
sg4
g1214
sg6
g459
sa(dp1473
g2
VC38-Politics0260.txt
p1474
sg4
g1214
sg6
g459
sa(dp1475
g2
VC38-Politics0262.txt
p1476
sg4
g1214
sg6
g459
sa(dp1477
g2
VC38-Politics0264.txt
p1478
sg4
g1214
sg6
g459
sa(dp1479
g2
VC38-Politics0266.txt
p1480
sg4
g1214
sg6
g459
sa(dp1481
g2
VC38-Politics0268.txt
p1482
sg4
g1214
sg6
g459
sa(dp1483
g2
VC38-Politics0270.txt
p1484
sg4
g1214
sg6
g459
sa(dp1485
g2
VC38-Politics0272.txt
p1486
sg4
g1214
sg6
g459
sa(dp1487
g2
VC38-Politics0274.txt
p1488
sg4
g1214
sg6
g38
sa(dp1489
g2
VC38-Politics0276.txt
p1490
sg4
g1214
sg6
g459
sa(dp1491
g2
VC38-Politics0278.txt
p1492
sg4
g1214
sg6
g459
sa(dp1493
g2
VC38-Politics0280.txt
p1494
sg4
g1214
sg6
g459
sa(dp1495
g2
VC38-Politics0283.txt
p1496
sg4
g1214
sg6
g459
sa(dp1497
g2
VC38-Politics0285.txt
p1498
sg4
g1214
sg6
g459
sa(dp1499
g2
VC38-Politics0287.txt
p1500
sg4
g1214
sg6
g459
sa(dp1501
g2
VC38-Politics0289.txt
p1502
sg4
g1214
sg6
g459
sa(dp1503
g2
VC38-Politics0291.txt
p1504
sg4
g1214
sg6
g459
sa(dp1505
g2
VC38-Politics0293.txt
p1506
sg4
g1214
sg6
g459
sa(dp1507
g2
VC38-Politics0295.txt
p1508
sg4
g1214
sg6
g459
sa(dp1509
g2
VC38-Politics0297.txt
p1510
sg4
g1214
sg6
g459
sa(dp1511
g2
VC38-Politics0299.txt
p1512
sg4
g1214
sg6
g459
sa(dp1513
g2
VC38-Politics0301.txt
p1514
sg4
g1214
sg6
g459
sa(dp1515
g2
VC38-Politics0303.txt
p1516
sg4
g1214
sg6
g459
sa(dp1517
g2
VC38-Politics0305.txt
p1518
sg4
g1214
sg6
g459
sa(dp1519
g2
VC38-Politics0307.txt
p1520
sg4
g1214
sg6
g459
sa(dp1521
g2
VC38-Politics0309.txt
p1522
sg4
g1214
sg6
g459
sa(dp1523
g2
VC38-Politics0311.txt
p1524
sg4
g1214
sg6
g459
sa(dp1525
g2
VC38-Politics0313.txt
p1526
sg4
g1214
sg6
g459
sa(dp1527
g2
VC38-Politics0315.txt
p1528
sg4
g1214
sg6
g459
sa(dp1529
g2
VC38-Politics0317.txt
p1530
sg4
g1214
sg6
g459
sa(dp1531
g2
VC38-Politics0319.txt
p1532
sg4
g1214
sg6
g459
sa(dp1533
g2
VC38-Politics0321.txt
p1534
sg4
g1214
sg6
g459
sa(dp1535
g2
VC38-Politics0323.txt
p1536
sg4
g1214
sg6
g459
sa(dp1537
g2
VC38-Politics0325.txt
p1538
sg4
g1214
sg6
g38
sa(dp1539
g2
VC38-Politics0327.txt
p1540
sg4
g1214
sg6
g459
sa(dp1541
g2
VC38-Politics0329.txt
p1542
sg4
g1214
sg6
g459
sa(dp1543
g2
VC38-Politics0331.txt
p1544
sg4
g1214
sg6
g588
sa(dp1545
g2
VC38-Politics0333.txt
p1546
sg4
g1214
sg6
g459
sa(dp1547
g2
VC38-Politics0335.txt
p1548
sg4
g1214
sg6
g459
sa(dp1549
g2
VC38-Politics0337.txt
p1550
sg4
g1214
sg6
g459
sa(dp1551
g2
VC38-Politics0339.txt
p1552
sg4
g1214
sg6
g459
sa(dp1553
g2
VC38-Politics0341.txt
p1554
sg4
g1214
sg6
g459
sa(dp1555
g2
VC38-Politics0343.txt
p1556
sg4
g1214
sg6
g459
sa(dp1557
g2
VC38-Politics0345.txt
p1558
sg4
g1214
sg6
g459
sa(dp1559
g2
VC38-Politics0347.txt
p1560
sg4
g1214
sg6
g459
sa(dp1561
g2
VC38-Politics0349.txt
p1562
sg4
g1214
sg6
g459
sa(dp1563
g2
VC38-Politics0351.txt
p1564
sg4
g1214
sg6
g459
sa(dp1565
g2
VC38-Politics0353.txt
p1566
sg4
g1214
sg6
g459
sa(dp1567
g2
VC38-Politics0355.txt
p1568
sg4
g1214
sg6
g38
sa(dp1569
g2
VC38-Politics0356.txt
p1570
sg4
g1214
sg6
g38
sa(dp1571
g2
VC38-Politics0358.txt
p1572
sg4
g1214
sg6
g459
sa(dp1573
g2
VC38-Politics0360.txt
p1574
sg4
g1214
sg6
g459
sa(dp1575
g2
VC38-Politics0362.txt
p1576
sg4
g1214
sg6
g459
sa(dp1577
g2
VC38-Politics0364.txt
p1578
sg4
g1214
sg6
g459
sa(dp1579
g2
VC38-Politics0366.txt
p1580
sg4
g1214
sg6
g459
sa(dp1581
g2
VC38-Politics0368.txt
p1582
sg4
g1214
sg6
g459
sa(dp1583
g2
VC38-Politics0370.txt
p1584
sg4
g1214
sg6
g459
sa(dp1585
g2
VC38-Politics0372.txt
p1586
sg4
g1214
sg6
g459
sa(dp1587
g2
VC38-Politics0374.txt
p1588
sg4
g1214
sg6
g459
sa(dp1589
g2
VC38-Politics0376.txt
p1590
sg4
g1214
sg6
g459
sa(dp1591
g2
VC38-Politics0378.txt
p1592
sg4
g1214
sg6
g459
sa(dp1593
g2
VC38-Politics0380.txt
p1594
sg4
g1214
sg6
g459
sa(dp1595
g2
VC38-Politics0382.txt
p1596
sg4
g1214
sg6
g459
sa(dp1597
g2
VC38-Politics0384.txt
p1598
sg4
g1214
sg6
g459
sa(dp1599
g2
VC38-Politics0386.txt
p1600
sg4
g1214
sg6
g459
sa(dp1601
g2
VC38-Politics0388.txt
p1602
sg4
g1214
sg6
g459
sa(dp1603
g2
VC38-Politics0390.txt
p1604
sg4
g1214
sg6
g459
sa(dp1605
g2
VC38-Politics0392.txt
p1606
sg4
g1214
sg6
g588
sa(dp1607
g2
VC38-Politics0394.txt
p1608
sg4
g1214
sg6
g459
sa(dp1609
g2
VC38-Politics0397.txt
p1610
sg4
g1214
sg6
g459
sa(dp1611
g2
VC38-Politics0399.txt
p1612
sg4
g1214
sg6
g459
sa(dp1613
g2
VC39-Sports0001.txt
p1614
sg4
Vsports
p1615
sg6
g588
sa(dp1616
g2
VC39-Sports0003.txt
p1617
sg4
g1615
sg6
g588
sa(dp1618
g2
VC39-Sports0005.txt
p1619
sg4
g1615
sg6
g588
sa(dp1620
g2
VC39-Sports0007.txt
p1621
sg4
g1615
sg6
g588
sa(dp1622
g2
VC39-Sports0009.txt
p1623
sg4
g1615
sg6
g588
sa(dp1624
g2
VC39-Sports0011.txt
p1625
sg4
g1615
sg6
g588
sa(dp1626
g2
VC39-Sports0013.txt
p1627
sg4
g1615
sg6
g588
sa(dp1628
g2
VC39-Sports0015.txt
p1629
sg4
g1615
sg6
g588
sa(dp1630
g2
VC39-Sports0017.txt
p1631
sg4
g1615
sg6
g588
sa(dp1632
g2
VC39-Sports0019.txt
p1633
sg4
g1615
sg6
g588
sa(dp1634
g2
VC39-Sports0021.txt
p1635
sg4
g1615
sg6
g588
sa(dp1636
g2
VC39-Sports0023.txt
p1637
sg4
g1615
sg6
g588
sa(dp1638
g2
VC39-Sports0025.txt
p1639
sg4
g1615
sg6
g588
sa(dp1640
g2
VC39-Sports0027.txt
p1641
sg4
g1615
sg6
g588
sa(dp1642
g2
VC39-Sports0029.txt
p1643
sg4
g1615
sg6
g588
sa(dp1644
g2
VC39-Sports0031.txt
p1645
sg4
g1615
sg6
g588
sa(dp1646
g2
VC39-Sports0033.txt
p1647
sg4
g1615
sg6
g588
sa(dp1648
g2
VC39-Sports0035.txt
p1649
sg4
g1615
sg6
g588
sa(dp1650
g2
VC39-Sports0037.txt
p1651
sg4
g1615
sg6
g588
sa(dp1652
g2
VC39-Sports0039.txt
p1653
sg4
g1615
sg6
g588
sa(dp1654
g2
VC39-Sports0041.txt
p1655
sg4
g1615
sg6
g588
sa(dp1656
g2
VC39-Sports0043.txt
p1657
sg4
g1615
sg6
g588
sa(dp1658
g2
VC39-Sports0045.txt
p1659
sg4
g1615
sg6
g588
sa(dp1660
g2
VC39-Sports0047.txt
p1661
sg4
g1615
sg6
g588
sa(dp1662
g2
VC39-Sports0049.txt
p1663
sg4
g1615
sg6
g588
sa(dp1664
g2
VC39-Sports0051.txt
p1665
sg4
g1615
sg6
g588
sa(dp1666
g2
VC39-Sports0053.txt
p1667
sg4
g1615
sg6
g588
sa(dp1668
g2
VC39-Sports0055.txt
p1669
sg4
g1615
sg6
g588
sa(dp1670
g2
VC39-Sports0057.txt
p1671
sg4
g1615
sg6
g588
sa(dp1672
g2
VC39-Sports0059.txt
p1673
sg4
g1615
sg6
g588
sa(dp1674
g2
VC39-Sports0060.txt
p1675
sg4
g1615
sg6
g281
sa(dp1676
g2
VC39-Sports0062.txt
p1677
sg4
g1615
sg6
g588
sa(dp1678
g2
VC39-Sports0064.txt
p1679
sg4
g1615
sg6
g588
sa(dp1680
g2
VC39-Sports0066.txt
p1681
sg4
g1615
sg6
g588
sa(dp1682
g2
VC39-Sports0068.txt
p1683
sg4
g1615
sg6
g588
sa(dp1684
g2
VC39-Sports0070.txt
p1685
sg4
g1615
sg6
g588
sa(dp1686
g2
VC39-Sports0072.txt
p1687
sg4
g1615
sg6
g588
sa(dp1688
g2
VC39-Sports0074.txt
p1689
sg4
g1615
sg6
g588
sa(dp1690
g2
VC39-Sports0076.txt
p1691
sg4
g1615
sg6
g588
sa(dp1692
g2
VC39-Sports0078.txt
p1693
sg4
g1615
sg6
g588
sa(dp1694
g2
VC39-Sports0080.txt
p1695
sg4
g1615
sg6
g588
sa(dp1696
g2
VC39-Sports0082.txt
p1697
sg4
g1615
sg6
g588
sa(dp1698
g2
VC39-Sports0084.txt
p1699
sg4
g1615
sg6
g588
sa(dp1700
g2
VC39-Sports0086.txt
p1701
sg4
g1615
sg6
g588
sa(dp1702
g2
VC39-Sports0088.txt
p1703
sg4
g1615
sg6
g588
sa(dp1704
g2
VC39-Sports0090.txt
p1705
sg4
g1615
sg6
g588
sa(dp1706
g2
VC39-Sports0092.txt
p1707
sg4
g1615
sg6
g588
sa(dp1708
g2
VC39-Sports0094.txt
p1709
sg4
g1615
sg6
g588
sa(dp1710
g2
VC39-Sports0096.txt
p1711
sg4
g1615
sg6
g588
sa(dp1712
g2
VC39-Sports0098.txt
p1713
sg4
g1615
sg6
g588
sa(dp1714
g2
VC39-Sports0100.txt
p1715
sg4
g1615
sg6
g588
sa(dp1716
g2
VC39-Sports0102.txt
p1717
sg4
g1615
sg6
g588
sa(dp1718
g2
VC39-Sports0104.txt
p1719
sg4
g1615
sg6
g588
sa(dp1720
g2
VC39-Sports0107.txt
p1721
sg4
g1615
sg6
g588
sa(dp1722
g2
VC39-Sports0109.txt
p1723
sg4
g1615
sg6
g588
sa(dp1724
g2
VC39-Sports0111.txt
p1725
sg4
g1615
sg6
g588
sa(dp1726
g2
VC39-Sports0113.txt
p1727
sg4
g1615
sg6
g588
sa(dp1728
g2
VC39-Sports0115.txt
p1729
sg4
g1615
sg6
g588
sa(dp1730
g2
VC39-Sports0117.txt
p1731
sg4
g1615
sg6
g588
sa(dp1732
g2
VC39-Sports0119.txt
p1733
sg4
g1615
sg6
g281
sa(dp1734
g2
VC39-Sports0121.txt
p1735
sg4
g1615
sg6
g588
sa(dp1736
g2
VC39-Sports0123.txt
p1737
sg4
g1615
sg6
g588
sa(dp1738
g2
VC39-Sports0125.txt
p1739
sg4
g1615
sg6
g588
sa(dp1740
g2
VC39-Sports0127.txt
p1741
sg4
g1615
sg6
g588
sa(dp1742
g2
VC39-Sports0129.txt
p1743
sg4
g1615
sg6
g588
sa(dp1744
g2
VC39-Sports0131.txt
p1745
sg4
g1615
sg6
g588
sa(dp1746
g2
VC39-Sports0133.txt
p1747
sg4
g1615
sg6
g588
sa(dp1748
g2
VC39-Sports0135.txt
p1749
sg4
g1615
sg6
g588
sa(dp1750
g2
VC39-Sports0137.txt
p1751
sg4
g1615
sg6
g588
sa(dp1752
g2
VC39-Sports0139.txt
p1753
sg4
g1615
sg6
g588
sa(dp1754
g2
VC39-Sports0141.txt
p1755
sg4
g1615
sg6
g588
sa(dp1756
g2
VC39-Sports0143.txt
p1757
sg4
g1615
sg6
g459
sa(dp1758
g2
VC39-Sports0145.txt
p1759
sg4
g1615
sg6
g588
sa(dp1760
g2
VC39-Sports0147.txt
p1761
sg4
g1615
sg6
g588
sa(dp1762
g2
VC39-Sports0149.txt
p1763
sg4
g1615
sg6
g588
sa(dp1764
g2
VC39-Sports0151.txt
p1765
sg4
g1615
sg6
g588
sa(dp1766
g2
VC39-Sports0153.txt
p1767
sg4
g1615
sg6
g588
sa(dp1768
g2
VC39-Sports0155.txt
p1769
sg4
g1615
sg6
g588
sa(dp1770
g2
VC39-Sports0156.txt
p1771
sg4
g1615
sg6
g588
sa(dp1772
g2
VC39-Sports0158.txt
p1773
sg4
g1615
sg6
g588
sa(dp1774
g2
VC39-Sports0160.txt
p1775
sg4
g1615
sg6
g588
sa(dp1776
g2
VC39-Sports0162.txt
p1777
sg4
g1615
sg6
g588
sa(dp1778
g2
VC39-Sports0164.txt
p1779
sg4
g1615
sg6
g588
sa(dp1780
g2
VC39-Sports0166.txt
p1781
sg4
g1615
sg6
g588
sa(dp1782
g2
VC39-Sports0168.txt
p1783
sg4
g1615
sg6
g588
sa(dp1784
g2
VC39-Sports0170.txt
p1785
sg4
g1615
sg6
g588
sa(dp1786
g2
VC39-Sports0172.txt
p1787
sg4
g1615
sg6
g588
sa(dp1788
g2
VC39-Sports0174.txt
p1789
sg4
g1615
sg6
g588
sa(dp1790
g2
VC39-Sports0176.txt
p1791
sg4
g1615
sg6
g588
sa(dp1792
g2
VC39-Sports0178.txt
p1793
sg4
g1615
sg6
g281
sa(dp1794
g2
VC39-Sports0180.txt
p1795
sg4
g1615
sg6
g588
sa(dp1796
g2
VC39-Sports0182.txt
p1797
sg4
g1615
sg6
g459
sa(dp1798
g2
VC39-Sports0184.txt
p1799
sg4
g1615
sg6
g588
sa(dp1800
g2
VC39-Sports0186.txt
p1801
sg4
g1615
sg6
g588
sa(dp1802
g2
VC39-Sports0188.txt
p1803
sg4
g1615
sg6
g588
sa(dp1804
g2
VC39-Sports0190.txt
p1805
sg4
g1615
sg6
g588
sa(dp1806
g2
VC39-Sports0192.txt
p1807
sg4
g1615
sg6
g588
sa(dp1808
g2
VC39-Sports0194.txt
p1809
sg4
g1615
sg6
g588
sa(dp1810
g2
VC39-Sports0196.txt
p1811
sg4
g1615
sg6
g588
sa(dp1812
g2
VC39-Sports0198.txt
p1813
sg4
g1615
sg6
g588
sa(dp1814
g2
VC39-Sports0200.txt
p1815
sg4
g1615
sg6
g588
sa(dp1816
g2
VC39-Sports0202.txt
p1817
sg4
g1615
sg6
g459
sa(dp1818
g2
VC39-Sports0204.txt
p1819
sg4
g1615
sg6
g459
sa(dp1820
g2
VC39-Sports0206.txt
p1821
sg4
g1615
sg6
g588
sa(dp1822
g2
VC39-Sports0208.txt
p1823
sg4
g1615
sg6
g588
sa(dp1824
g2
VC39-Sports0210.txt
p1825
sg4
g1615
sg6
g588
sa(dp1826
g2
VC39-Sports0212.txt
p1827
sg4
g1615
sg6
g588
sa(dp1828
g2
VC39-Sports0214.txt
p1829
sg4
g1615
sg6
g588
sa(dp1830
g2
VC39-Sports0216.txt
p1831
sg4
g1615
sg6
g588
sa(dp1832
g2
VC39-Sports0218.txt
p1833
sg4
g1615
sg6
g588
sa(dp1834
g2
VC39-Sports0220.txt
p1835
sg4
g1615
sg6
g588
sa(dp1836
g2
VC39-Sports0222.txt
p1837
sg4
g1615
sg6
g588
sa(dp1838
g2
VC39-Sports0224.txt
p1839
sg4
g1615
sg6
g588
sa(dp1840
g2
VC39-Sports0226.txt
p1841
sg4
g1615
sg6
g588
sa(dp1842
g2
VC39-Sports0228.txt
p1843
sg4
g1615
sg6
g588
sa(dp1844
g2
VC39-Sports0230.txt
p1845
sg4
g1615
sg6
g588
sa(dp1846
g2
VC39-Sports0232.txt
p1847
sg4
g1615
sg6
g588
sa(dp1848
g2
VC39-Sports0234.txt
p1849
sg4
g1615
sg6
g588
sa(dp1850
g2
VC39-Sports0236.txt
p1851
sg4
g1615
sg6
g588
sa(dp1852
g2
VC39-Sports0238.txt
p1853
sg4
g1615
sg6
g588
sa(dp1854
g2
VC39-Sports0241.txt
p1855
sg4
g1615
sg6
g588
sa(dp1856
g2
VC39-Sports0243.txt
p1857
sg4
g1615
sg6
g588
sa(dp1858
g2
VC39-Sports0245.txt
p1859
sg4
g1615
sg6
g588
sa(dp1860
g2
VC39-Sports0247.txt
p1861
sg4
g1615
sg6
g459
sa(dp1862
g2
VC39-Sports0249.txt
p1863
sg4
g1615
sg6
g588
sa(dp1864
g2
VC39-Sports0251.txt
p1865
sg4
g1615
sg6
g588
sa(dp1866
g2
VC39-Sports0253.txt
p1867
sg4
g1615
sg6
g588
sa(dp1868
g2
VC39-Sports0255.txt
p1869
sg4
g1615
sg6
g588
sa(dp1870
g2
VC39-Sports0257.txt
p1871
sg4
g1615
sg6
g588
sa(dp1872
g2
VC39-Sports0259.txt
p1873
sg4
g1615
sg6
g588
sa(dp1874
g2
VC39-Sports0261.txt
p1875
sg4
g1615
sg6
g588
sa(dp1876
g2
VC39-Sports0263.txt
p1877
sg4
g1615
sg6
g588
sa(dp1878
g2
VC39-Sports0265.txt
p1879
sg4
g1615
sg6
g459
sa(dp1880
g2
VC39-Sports0267.txt
p1881
sg4
g1615
sg6
g588
sa(dp1882
g2
VC39-Sports0269.txt
p1883
sg4
g1615
sg6
g459
sa(dp1884
g2
VC39-Sports0271.txt
p1885
sg4
g1615
sg6
g588
sa(dp1886
g2
VC39-Sports0273.txt
p1887
sg4
g1615
sg6
g588
sa(dp1888
g2
VC39-Sports0275.txt
p1889
sg4
g1615
sg6
g588
sa(dp1890
g2
VC39-Sports0277.txt
p1891
sg4
g1615
sg6
g588
sa(dp1892
g2
VC39-Sports0279.txt
p1893
sg4
g1615
sg6
g588
sa(dp1894
g2
VC39-Sports0281.txt
p1895
sg4
g1615
sg6
g588
sa(dp1896
g2
VC39-Sports0283.txt
p1897
sg4
g1615
sg6
g588
sa(dp1898
g2
VC39-Sports0284.txt
p1899
sg4
g1615
sg6
g588
sa(dp1900
g2
VC39-Sports0286.txt
p1901
sg4
g1615
sg6
g588
sa(dp1902
g2
VC39-Sports0288.txt
p1903
sg4
g1615
sg6
g588
sa(dp1904
g2
VC39-Sports0290.txt
p1905
sg4
g1615
sg6
g588
sa(dp1906
g2
VC39-Sports0292.txt
p1907
sg4
g1615
sg6
g459
sa(dp1908
g2
VC39-Sports0294.txt
p1909
sg4
g1615
sg6
g588
sa(dp1910
g2
VC39-Sports0296.txt
p1911
sg4
g1615
sg6
g588
sa(dp1912
g2
VC39-Sports0298.txt
p1913
sg4
g1615
sg6
g588
sa(dp1914
g2
VC39-Sports0300.txt
p1915
sg4
g1615
sg6
g588
sa(dp1916
g2
VC39-Sports0302.txt
p1917
sg4
g1615
sg6
g459
sa(dp1918
g2
VC39-Sports0304.txt
p1919
sg4
g1615
sg6
g588
sa(dp1920
g2
VC39-Sports0306.txt
p1921
sg4
g1615
sg6
g588
sa(dp1922
g2
VC39-Sports0308.txt
p1923
sg4
g1615
sg6
g588
sa(dp1924
g2
VC39-Sports0310.txt
p1925
sg4
g1615
sg6
g588
sa(dp1926
g2
VC39-Sports0312.txt
p1927
sg4
g1615
sg6
g459
sa(dp1928
g2
VC39-Sports0314.txt
p1929
sg4
g1615
sg6
g588
sa(dp1930
g2
VC39-Sports0316.txt
p1931
sg4
g1615
sg6
g588
sa(dp1932
g2
VC39-Sports0318.txt
p1933
sg4
g1615
sg6
g588
sa(dp1934
g2
VC39-Sports0320.txt
p1935
sg4
g1615
sg6
g588
sa(dp1936
g2
VC39-Sports0322.txt
p1937
sg4
g1615
sg6
g588
sa(dp1938
g2
VC39-Sports0324.txt
p1939
sg4
g1615
sg6
g459
sa(dp1940
g2
VC39-Sports0326.txt
p1941
sg4
g1615
sg6
g588
sa(dp1942
g2
VC39-Sports0328.txt
p1943
sg4
g1615
sg6
g588
sa(dp1944
g2
VC39-Sports0330.txt
p1945
sg4
g1615
sg6
g588
sa(dp1946
g2
VC39-Sports0332.txt
p1947
sg4
g1615
sg6
g588
sa(dp1948
g2
VC39-Sports0335.txt
p1949
sg4
g1615
sg6
g459
sa(dp1950
g2
VC39-Sports0337.txt
p1951
sg4
g1615
sg6
g588
sa(dp1952
g2
VC39-Sports0339.txt
p1953
sg4
g1615
sg6
g588
sa(dp1954
g2
VC39-Sports0341.txt
p1955
sg4
g1615
sg6
g588
sa(dp1956
g2
VC39-Sports0343.txt
p1957
sg4
g1615
sg6
g588
sa(dp1958
g2
VC39-Sports0345.txt
p1959
sg4
g1615
sg6
g588
sa(dp1960
g2
VC39-Sports0347.txt
p1961
sg4
g1615
sg6
g588
sa(dp1962
g2
VC39-Sports0349.txt
p1963
sg4
g1615
sg6
g588
sa(dp1964
g2
VC39-Sports0351.txt
p1965
sg4
g1615
sg6
g588
sa(dp1966
g2
VC39-Sports0353.txt
p1967
sg4
g1615
sg6
g588
sa(dp1968
g2
VC39-Sports0355.txt
p1969
sg4
g1615
sg6
g588
sa(dp1970
g2
VC39-Sports0357.txt
p1971
sg4
g1615
sg6
g588
sa(dp1972
g2
VC39-Sports0359.txt
p1973
sg4
g1615
sg6
g588
sa(dp1974
g2
VC39-Sports0361.txt
p1975
sg4
g1615
sg6
g588
sa(dp1976
g2
VC39-Sports0363.txt
p1977
sg4
g1615
sg6
g588
sa(dp1978
g2
VC39-Sports0365.txt
p1979
sg4
g1615
sg6
g588
sa(dp1980
g2
VC39-Sports0367.txt
p1981
sg4
g1615
sg6
g459
sa(dp1982
g2
VC39-Sports0369.txt
p1983
sg4
g1615
sg6
g588
sa(dp1984
g2
VC39-Sports0371.txt
p1985
sg4
g1615
sg6
g588
sa(dp1986
g2
VC39-Sports0373.txt
p1987
sg4
g1615
sg6
g588
sa(dp1988
g2
VC39-Sports0375.txt
p1989
sg4
g1615
sg6
g588
sa(dp1990
g2
VC39-Sports0376.txt
p1991
sg4
g1615
sg6
g588
sa(dp1992
g2
VC39-Sports0378.txt
p1993
sg4
g1615
sg6
g459
sa(dp1994
g2
VC39-Sports0380.txt
p1995
sg4
g1615
sg6
g588
sa(dp1996
g2
VC39-Sports0382.txt
p1997
sg4
g1615
sg6
g588
sa(dp1998
g2
VC39-Sports0384.txt
p1999
sg4
g1615
sg6
g588
sa(dp2000
g2
VC39-Sports0386.txt
p2001
sg4
g1615
sg6
g588
sa(dp2002
g2
VC39-Sports0388.txt
p2003
sg4
g1615
sg6
g588
sa(dp2004
g2
VC39-Sports0390.txt
p2005
sg4
g1615
sg6
g588
sa(dp2006
g2
VC39-Sports0392.txt
p2007
sg4
g1615
sg6
g588
sa(dp2008
g2
VC39-Sports0394.txt
p2009
sg4
g1615
sg6
g588
sa(dp2010
g2
VC39-Sports0396.txt
p2011
sg4
g1615
sg6
g588
sa(dp2012
g2
VC39-Sports0398.txt
p2013
sg4
g1615
sg6
g588
sa.